(dp1
S'output'
p2
S''
sS'layer'
p3
S'/Users/ilustre/development/repo/jittest/web2py/applications/infovis/controllers/visual.py'
p4
sS'code'
p5
S'# -*- coding: utf-8 -*-\n# this file is released under public domain and you can use without limitations\n\n#########################################################################\n## This is a samples controller\n## - index is the default action of any application\n## - user is required for authentication and authorization\n## - download is for downloading files uploaded in the db (does streaming)\n## - call exposes all registered services (none by default)\n#########################################################################\nEXAMPLE = \'ilustreWebTest.20110805.soqrates.SS.trdmsq_wait\'\n\ndef example(x):\n\n    nametoks = x.split(\'.\')\n    \n    d = None\n    \n    lastn = None\n    id_ = \'\'\n    for name in nametoks:\n        if id_ == \'\':\n            id_ = name\n        else:\n            id_ = id_ + \'.\' + name\n\n        n = {}\n        n[\'id\'] = id_\n        n[\'name\'] = name\n        n[\'children\'] = []\n        n[\'data\'] = {}\n        n[\'data\'][\'$area\'] = 50\n        n[\'data\'][\'$color\'] = "#906E32"\n\n        if d == None:\n            d = n\n        else:\n            lastn[\'children\'].append(n)\n        \n        lastn = n\n        \n        \n    return d\n\ndef treemap():\n    import json\n    t = example(EXAMPLE)\n    r = json.dumps(t, sort_keys=True, indent=4)\n    print type(r)\n    return dict(message=x)\n\n\ndef index():\n    """\n    example action using the internationalization operator T and flash\n    rendered by views/default/index.html or views/generic.html\n    """\n    return dict(message=T(\'Hello World\'))\n\ndef user():\n    """\n    exposes:\n    http://..../[app]/default/user/login\n    http://..../[app]/default/user/logout\n    http://..../[app]/default/user/register\n    http://..../[app]/default/user/profile\n    http://..../[app]/default/user/retrieve_password\n    http://..../[app]/default/user/change_password\n    use @auth.requires_login()\n        @auth.requires_membership(\'group name\')\n        @auth.requires_permission(\'read\',\'table name\',record_id)\n    to decorate functions that need access control\n    """\n    return dict(form=auth())\n\n\ndef download():\n    """\n    allows downloading of uploaded files\n    http://..../[app]/default/download/[filename]\n    """\n    return response.download(request,db)\n\n\ndef call():\n    """\n    exposes services. for example:\n    http://..../[app]/default/call/jsonrpc\n    decorate with @services.jsonrpc the functions to expose\n    supports xml, json, xmlrpc, jsonrpc, amfrpc, rss, csv\n    """\n    return service()\n\n\n@auth.requires_signature()\ndef data():\n    """\n    http://..../[app]/default/data/tables\n    http://..../[app]/default/data/create/[table]\n    http://..../[app]/default/data/read/[table]/[id]\n    http://..../[app]/default/data/update/[table]/[id]\n    http://..../[app]/default/data/delete/[table]/[id[\n    http://..../[app]/default/data/select/[table]\n    http://..../[app]/default/data/search/[table]\n    but URLs bust be signed, i.e. linked with\n      A(\'table\',_href=URL(\'data/tables\',user_signature=True))\n    or with the signed load operator\n      LOAD(\'default\',\'data.load\',args=\'tables\',ajax=True,user_signature=True)\n    """\n    return dict(form=crud())\n\n\n\n\n\nxxx = """\n{  \n  "children": [  \n   {  \n     "children": [  \n       {  \n         "children": [],   \n         "data": {  \n           "playcount": "276",   \n           "$color": "#8E7032",   \n           "image": "http://userserve-ak.last.fm/serve/300x300/11403219.jpg",   \n           "$area": 276  \n         },   \n         "id": "album-Thirteenth Step",   \n         "name": "Thirteenth Step"  \n       },   \n       {  \n         "children": [],   \n         "data": {  \n           "playcount": "271",   \n           "$color": "#906E32",   \n           "image": "http://userserve-ak.last.fm/serve/300x300/11393921.jpg",   \n           "$area": 271  \n         },   \n         "id": "album-Mer De Noms",   \n         "name": "Mer De Noms"  \n       }  \n     ],   \n     "data": {  \n       "playcount": 547,   \n       "$area": 547  \n     },   \n     "id": "artist_A Perfect Circle",   \n     "name": "A Perfect Circle"  \n   },   \n   {  \n     "children": [  \n       {  \n         "children": [],   \n         "data": {  \n           "playcount": "209",   \n           "$color": "#AA5532",   \n           "image": "http://userserve-ak.last.fm/serve/300x300/32349839.jpg",   \n           "$area": 209  \n         },   \n         "id": "album-Above",   \n         "name": "Above"  \n       }  \n     ],   \n     "data": {  \n       "playcount": 209,   \n       "$area": 209  \n     },   \n     "id": "artist_Mad Season",   \n     "name": "Mad Season"  \n   },   \n   {  \n     "children": [  \n       {  \n         "children": [],   \n         "data": {  \n           "playcount": "260",   \n           "$color": "#956932",   \n           "image": "http://userserve-ak.last.fm/serve/300x300/38753425.jpg",   \n           "$area": 260  \n         },   \n         "id": "album-Tiny Music... Songs From the Vatican Gift Shop",   \n         "name": "Tiny Music... Songs From the Vatican Gift Shop"  \n       },   \n       {  \n         "children": [],   \n         "data": {  \n           "playcount": "254",   \n           "$color": "#976732",   \n           "image": "http://images.amazon.com/images/P/B000002IU3.01.LZZZZZZZ.jpg",   \n           "$area": 254  \n         },   \n         "id": "album-Core",   \n         "name": "Core"  \n       }  \n     ],   \n     "data": {  \n       "playcount": 514,   \n       "$area": 514  \n     },   \n     "id": "artist_Stone Temple Pilots",   \n     "name": "Stone Temple Pilots"  \n   },   \n   {  \n     "children": [  \n       {  \n         "children": [],   \n         "data": {  \n           "playcount": "181",   \n           "$color": "#B54932",   \n           "image": "http://userserve-ak.last.fm/serve/300x300/8673371.jpg",   \n           "$area": 181  \n         },   \n         "id": "album-The Science of Things",   \n         "name": "The Science of Things"  \n       }  \n     ],   \n     "data": {  \n       "playcount": 181,   \n       "$area": 181  \n     },   \n     "id": "artist_Bush",   \n     "name": "Bush"  \n   },   \n   {  \n     "children": [  \n       {  \n         "children": [],   \n         "data": {  \n           "playcount": "229",   \n           "$color": "#A15D32",   \n           "image": "http://userserve-ak.last.fm/serve/300x300/32579429.jpg",   \n           "$area": 229  \n         },   \n         "id": "album-Echoes, Silence, Patience &amp; Grace",   \n         "name": "Echoes, Silence, Patience &amp; Grace"  \n       },   \n       {  \n         "children": [],   \n         "data": {  \n           "playcount": "185",   \n           "$color": "#B34B32",   \n           "image": "http://images.amazon.com/images/P/B0009HLDFU.01.MZZZZZZZ.jpg",   \n           "$area": 185  \n         },   \n         "id": "album-In Your Honor (disc 2)",   \n         "name": "In Your Honor (disc 2)"  \n       }  \n     ],   \n     "data": {  \n       "playcount": 414,   \n       "$area": 414  \n     },   \n     "id": "artist_Foo Fighters",   \n     "name": "Foo Fighters"  \n   },   \n   {  \n     "children": [  \n       {  \n         "children": [],   \n         "data": {  \n           "playcount": "398",   \n           "$color": "#5DA132",   \n           "image": "http://images.amazon.com/images/P/B00005LNP5.01._SCMZZZZZZZ_.jpg",   \n           "$area": 398  \n         },   \n         "id": "album-Elija Y Gane",   \n         "name": "Elija Y Gane"  \n       },   \n       {  \n         "children": [],   \n         "data": {  \n           "playcount": "203",   \n           "$color": "#AC5232",   \n           "image": "http://images.amazon.com/images/P/B0000B193V.01._SCMZZZZZZZ_.jpg",   \n           "$area": 203  \n         },   \n         "id": "album-Para los Arboles",   \n         "name": "Para los Arboles"  \n       }  \n     ],   \n     "data": {  \n       "playcount": 601,   \n       "$area": 601  \n     },   \n     "id": "artist_Luis Alberto Spinetta",   \n     "name": "Luis Alberto Spinetta"  \n   },   \n   {  \n     "children": [  \n       {  \n         "children": [],   \n         "data": {  \n           "playcount": "224",   \n           "$color": "#A35B32",   \n           "image": "http://userserve-ak.last.fm/serve/300x300/26497553.jpg",   \n           "$area": 224  \n         },   \n         "id": "album-Music Bank",   \n         "name": "Music Bank"  \n       },   \n       {  \n         "children": [],   \n         "data": {  \n           "playcount": "217",   \n           "$color": "#A65832",   \n           "image": "http://images.amazon.com/images/P/B0000296JW.01.MZZZZZZZ.jpg",   \n           "$area": 217  \n         },   \n         "id": "album-Music Bank (disc 1)",   \n         "name": "Music Bank (disc 1)"  \n       },   \n       {  \n         "children": [],   \n         "data": {  \n           "playcount": "215",   \n           "$color": "#A75732",   \n           "image": "http://images.amazon.com/images/P/B0000296JW.01.MZZZZZZZ.jpg",   \n           "$area": 215  \n         },   \n         "id": "album-Music Bank (disc 2)",   \n         "name": "Music Bank (disc 2)"  \n       },   \n       {  \n         "children": [],   \n         "data": {  \n           "playcount": "181",   \n           "$color": "#B54932",   \n           "image": "http://images.amazon.com/images/P/B0000296JW.01.MZZZZZZZ.jpg",   \n           "$area": 181  \n         },   \n         "id": "album-Music Bank (disc 3)",   \n         "name": "Music Bank (disc 3)"  \n       }  \n     ],   \n     "data": {  \n       "playcount": 837,   \n       "$area": 837  \n     },   \n     "id": "artist_Alice in Chains",   \n     "name": "Alice in Chains"  \n   },   \n   {  \n     "children": [  \n       {  \n         "children": [],   \n         "data": {  \n           "playcount": "627",   \n           "$color": "#00FF32",   \n           "image": "http://userserve-ak.last.fm/serve/300x300/8480501.jpg",   \n           "$area": 627  \n         },   \n         "id": "album-10,000 Days",   \n         "name": "10,000 Days"  \n       }  \n     ],   \n     "data": {  \n       "playcount": 627,   \n       "$area": 627  \n     },   \n     "id": "artist_Tool",   \n     "name": "Tool"  \n   },   \n   {  \n     "children": [  \n       {  \n         "children": [],   \n         "data": {  \n           "playcount": "261",   \n           "$color": "#946A32",   \n           "image": "http://cdn.last.fm/flatness/catalogue/noimage/2/default_album_medium.png",   \n           "$area": 261  \n         },   \n         "id": "album-2006-09-07: O-Bar, Stockholm, Sweden",   \n         "name": "2006-09-07: O-Bar, Stockholm, Sweden"  \n       },   \n       {  \n         "children": [],   \n         "data": {  \n           "playcount": "211",   \n           "$color": "#A95532",   \n           "image": "http://userserve-ak.last.fm/serve/300x300/25402479.jpg",   \n           "$area": 211  \n         },   \n         "id": "album-Lost and Found",   \n         "name": "Lost and Found"  \n       }  \n     ],   \n     "data": {  \n       "playcount": 472,   \n       "$area": 472  \n     },   \n     "id": "artist_Chris Cornell",   \n     "name": "Chris Cornell"  \n   },   \n   {  \n     "children": [  \n       {  \n         "children": [],   \n         "data": {  \n           "playcount": "197",   \n           "$color": "#AE5032",   \n           "image": "http://userserve-ak.last.fm/serve/300x300/8634627.jpg",   \n           "$area": 197  \n         },   \n         "id": "album-The Sickness",   \n         "name": "The Sickness"  \n       }  \n     ],   \n     "data": {  \n       "playcount": 197,   \n       "$area": 197  \n     },   \n     "id": "artist_Disturbed",   \n     "name": "Disturbed"  \n   },   \n   {  \n     "children": [  \n       {  \n         "children": [],   \n         "data": {  \n           "playcount": "493",   \n           "$color": "#36C832",   \n           "image": "http://userserve-ak.last.fm/serve/300x300/8591345.jpg",   \n           "$area": 493  \n         },   \n         "id": "album-Mama\'s Gun",   \n         "name": "Mama\'s Gun"  \n       }  \n     ],   \n     "data": {  \n       "playcount": 493,   \n       "$area": 493  \n     },   \n     "id": "artist_Erykah Badu",   \n     "name": "Erykah Badu"  \n   },   \n   {  \n     "children": [  \n       {  \n         "children": [],   \n         "data": {  \n           "playcount": "249",   \n           "$color": "#996532",   \n           "image": "http://userserve-ak.last.fm/serve/300x300/32070871.jpg",   \n           "$area": 249  \n         },   \n         "id": "album-Audioslave",   \n         "name": "Audioslave"  \n       }  \n     ],   \n     "data": {  \n       "playcount": 249,   \n       "$area": 249  \n     },   \n     "id": "artist_Audioslave",   \n     "name": "Audioslave"  \n   },   \n   {  \n     "children": [  \n       {  \n         "children": [],   \n         "data": {  \n           "playcount": "359",   \n           "$color": "#6C9232",   \n           "image": "http://userserve-ak.last.fm/serve/300x300/15858421.jpg",   \n           "$area": 359  \n         },   \n         "id": "album-Comfort y M\\u00fasica Para Volar",   \n         "name": "Comfort y M\\u00fasica Para Volar"  \n       }  \n     ],   \n     "data": {  \n       "playcount": 359,   \n       "$area": 359  \n     },   \n     "id": "artist_Soda Stereo",   \n     "name": "Soda Stereo"  \n   },   \n   {  \n     "children": [  \n       {  \n         "children": [],   \n         "data": {  \n           "playcount": "302",   \n           "$color": "#847A32",   \n           "image": "http://userserve-ak.last.fm/serve/300x300/8776205.jpg",   \n           "$area": 302  \n         },   \n         "id": "album-Clearing the Channel",   \n         "name": "Clearing the Channel"  \n       }  \n     ],   \n     "data": {  \n       "playcount": 302,   \n       "$area": 302  \n     },   \n     "id": "artist_Sinch",   \n     "name": "Sinch"  \n   },   \n   {  \n     "children": [  \n       {  \n         "children": [],   \n         "data": {  \n           "playcount": "177",   \n           "$color": "#B74732",   \n           "image": "http://userserve-ak.last.fm/serve/300x300/32457599.jpg",   \n           "$area": 177  \n         },   \n         "id": "album-Crash",   \n         "name": "Crash"  \n       }  \n     ],   \n     "data": {  \n       "playcount": 177,   \n       "$area": 177  \n     },   \n     "id": "artist_Dave Matthews Band",   \n     "name": "Dave Matthews Band"  \n   },   \n   {  \n     "children": [  \n       {  \n         "children": [],   \n         "data": {  \n           "playcount": "207",   \n           "$color": "#AA5432",   \n           "image": "http://userserve-ak.last.fm/serve/300x300/30352203.jpg",   \n           "$area": 207  \n         },   \n         "id": "album-Vs.",   \n         "name": "Vs."  \n       }  \n     ],   \n     "data": {  \n       "playcount": 207,   \n       "$area": 207  \n     },   \n     "id": "artist_Pearl Jam",   \n     "name": "Pearl Jam"  \n   },   \n   {  \n     "children": [  \n       {  \n         "children": [],   \n         "data": {  \n           "playcount": "486",   \n           "$color": "#39C532",   \n           "image": "http://userserve-ak.last.fm/serve/300x300/26053425.jpg",   \n           "$area": 486  \n         },   \n         "id": "album-It All Makes Sense Now",   \n         "name": "It All Makes Sense Now"  \n       },   \n       {  \n         "children": [],   \n         "data": {  \n           "playcount": "251",   \n           "$color": "#986632",   \n           "image": "http://userserve-ak.last.fm/serve/300x300/9658733.jpg",   \n           "$area": 251  \n         },   \n         "id": "album-Air",   \n         "name": "Air"  \n       }  \n     ],   \n     "data": {  \n       "playcount": 737,   \n       "$area": 737  \n     },   \n     "id": "artist_Kr\\u00f8m",   \n     "name": "Kr\\u00f8m"  \n   },   \n   {  \n     "children": [  \n       {  \n         "children": [],   \n         "data": {  \n           "playcount": "345",   \n           "$color": "#728C32",   \n           "image": "http://userserve-ak.last.fm/serve/300x300/8605651.jpg",   \n           "$area": 345  \n         },   \n         "id": "album-Temple Of The Dog",   \n         "name": "Temple Of The Dog"  \n       }  \n     ],   \n     "data": {  \n       "playcount": 345,   \n       "$area": 345  \n     },   \n     "id": "artist_Temple of the Dog",   \n     "name": "Temple of the Dog"  \n   },   \n   {  \n     "children": [  \n       {  \n         "children": [],   \n         "data": {  \n           "playcount": "318",   \n           "$color": "#7D8132",   \n           "image": "http://userserve-ak.last.fm/serve/300x300/29274729.jpg",   \n           "$area": 318  \n         },   \n         "id": "album-And All That Could Have Been (Still)",   \n         "name": "And All That Could Have Been (Still)"  \n       }  \n     ],   \n     "data": {  \n       "playcount": 318,   \n       "$area": 318  \n     },   \n     "id": "artist_Nine Inch Nails",   \n     "name": "Nine Inch Nails"  \n   },   \n   {  \n     "children": [  \n       {  \n         "children": [],   \n         "data": {  \n           "playcount": "256",   \n           "$color": "#966832",   \n           "image": "http://userserve-ak.last.fm/serve/300x300/32595059.jpg",   \n           "$area": 256  \n         },   \n         "id": "album-Mamagubida",   \n         "name": "Mamagubida"  \n       },   \n       {  \n         "children": [],   \n         "data": {  \n           "playcount": "220",   \n           "$color": "#A55932",   \n           "image": "http://cdn.last.fm/flatness/catalogue/noimage/2/default_album_medium.png",   \n           "$area": 220  \n         },   \n         "id": "album-Reggae \\u00e0 Coup de Cirque",   \n         "name": "Reggae \\u00e0 Coup de Cirque"  \n       },   \n       {  \n         "children": [],   \n         "data": {  \n           "playcount": "181",   \n           "$color": "#B54932",   \n           "image": "http://userserve-ak.last.fm/serve/300x300/16799743.jpg",   \n           "$area": 181  \n         },   \n         "id": "album-Grain de sable",   \n         "name": "Grain de sable"  \n       }  \n     ],   \n     "data": {  \n       "playcount": 657,   \n       "$area": 657  \n     },   \n     "id": "artist_Tryo",   \n     "name": "Tryo"  \n   },   \n   {  \n     "children": [  \n       {  \n         "children": [],   \n         "data": {  \n           "playcount": "258",   \n           "$color": "#966832",   \n           "image": "http://cdn.last.fm/flatness/catalogue/noimage/2/default_album_medium.png",   \n           "$area": 258  \n         },   \n         "id": "album-Best Of",   \n         "name": "Best Of"  \n       },   \n       {  \n         "children": [],   \n         "data": {  \n           "playcount": "176",   \n           "$color": "#B74732",   \n           "image": "http://userserve-ak.last.fm/serve/300x300/5264426.jpg",   \n           "$area": 176  \n         },   \n         "id": "album-Robbin\' The Hood",   \n         "name": "Robbin\' The Hood"  \n       }  \n     ],   \n     "data": {  \n       "playcount": 434,   \n       "$area": 434  \n     },   \n     "id": "artist_Sublime",   \n     "name": "Sublime"  \n   },   \n   {  \n     "children": [  \n       {  \n         "children": [],   \n         "data": {  \n           "playcount": "418",   \n           "$color": "#55AA32",   \n           "image": "http://userserve-ak.last.fm/serve/300x300/8590493.jpg",   \n           "$area": 418  \n         },   \n         "id": "album-One Hot Minute",   \n         "name": "One Hot Minute"  \n       }  \n     ],   \n     "data": {  \n       "playcount": 418,   \n       "$area": 418  \n     },   \n     "id": "artist_Red Hot Chili Peppers",   \n     "name": "Red Hot Chili Peppers"  \n   },   \n   {  \n     "children": [  \n       {  \n         "children": [],   \n         "data": {  \n           "playcount": "275",   \n           "$color": "#8F6F32",   \n           "image": "http://userserve-ak.last.fm/serve/300x300/17597653.jpg",   \n           "$area": 275  \n         },   \n         "id": "album-Chinese Democracy",   \n         "name": "Chinese Democracy"  \n       },   \n       {  \n         "children": [],   \n         "data": {  \n           "playcount": "203",   \n           "$color": "#AC5232",   \n           "image": "http://userserve-ak.last.fm/serve/300x300/15231979.jpg",   \n           "$area": 203  \n         },   \n         "id": "album-Use Your Illusion II",   \n         "name": "Use Your Illusion II"  \n       }  \n     ],   \n     "data": {  \n       "playcount": 478,   \n       "$area": 478  \n     },   \n     "id": "artist_Guns N\' Roses",   \n     "name": "Guns N\' Roses"  \n   },   \n   {  \n     "children": [  \n       {  \n         "children": [],   \n         "data": {  \n           "playcount": "208",   \n           "$color": "#AA5432",   \n           "image": "http://images.amazon.com/images/P/B0007LCNNE.01.MZZZZZZZ.jpg",   \n           "$area": 208  \n         },   \n         "id": "album-Tales of the Forgotten Melodies",   \n         "name": "Tales of the Forgotten Melodies"  \n       }  \n     ],   \n     "data": {  \n       "playcount": 208,   \n       "$area": 208  \n     },   \n     "id": "artist_Wax Tailor",   \n     "name": "Wax Tailor"  \n   },   \n   {  \n     "children": [  \n       {  \n         "children": [],   \n         "data": {  \n           "playcount": "208",   \n           "$color": "#AA5432",   \n           "image": "http://userserve-ak.last.fm/serve/300x300/7862623.png",   \n           "$area": 208  \n         },   \n         "id": "album-In Rainbows",   \n         "name": "In Rainbows"  \n       }  \n     ],   \n     "data": {  \n       "playcount": 208,   \n       "$area": 208  \n     },   \n     "id": "artist_Radiohead",   \n     "name": "Radiohead"  \n   },   \n   {  \n     "children": [  \n       {  \n         "children": [],   \n         "data": {  \n           "playcount": "317",   \n           "$color": "#7E8032",   \n           "image": "http://userserve-ak.last.fm/serve/300x300/8600371.jpg",   \n           "$area": 317  \n         },   \n         "id": "album-Down On The Upside",   \n         "name": "Down On The Upside"  \n       },   \n       {  \n         "children": [],   \n         "data": {  \n           "playcount": "290",   \n           "$color": "#897532",   \n           "image": "http://userserve-ak.last.fm/serve/300x300/8590515.jpg",   \n           "$area": 290  \n         },   \n         "id": "album-Superunknown",   \n         "name": "Superunknown"  \n       }  \n     ],   \n     "data": {  \n       "playcount": 607,   \n       "$area": 607  \n     },   \n     "id": "artist_Soundgarden",   \n     "name": "Soundgarden"  \n   },   \n   {  \n     "children": [  \n       {  \n         "children": [],   \n         "data": {  \n           "playcount": "247",   \n           "$color": "#9A6432",   \n           "image": "http://userserve-ak.last.fm/serve/300x300/15113951.jpg",   \n           "$area": 247  \n         },   \n         "id": "album-Nico",   \n         "name": "Nico"  \n       },   \n       {  \n         "children": [],   \n         "data": {  \n           "playcount": "218",   \n           "$color": "#A65832",   \n           "image": "http://userserve-ak.last.fm/serve/300x300/45729417.jpg",   \n           "$area": 218  \n         },   \n         "id": "album-Soup",   \n         "name": "Soup"  \n       },   \n       {  \n         "children": [],   \n         "data": {  \n           "playcount": "197",   \n           "$color": "#AE5032",   \n           "image": "http://images.amazon.com/images/P/B00005V5PW.01.MZZZZZZZ.jpg",   \n           "$area": 197  \n         },   \n         "id": "album-Classic Masters",   \n         "name": "Classic Masters"  \n       },   \n       {  \n         "children": [],   \n         "data": {  \n           "playcount": "194",   \n           "$color": "#B04E32",   \n           "image": "http://userserve-ak.last.fm/serve/300x300/15157989.jpg",   \n           "$area": 194  \n         },   \n         "id": "album-Blind Melon",   \n         "name": "Blind Melon"  \n       }  \n     ],   \n     "data": {  \n       "playcount": 856,   \n       "$area": 856  \n     },   \n     "id": "artist_Blind Melon",   \n     "name": "Blind Melon"  \n   },   \n   {  \n     "children": [  \n       {  \n         "children": [],   \n         "data": {  \n           "playcount": "537",   \n           "$color": "#24DA32",   \n           "image": "http://userserve-ak.last.fm/serve/300x300/17594883.jpg",   \n           "$area": 537  \n         },   \n         "id": "album-Make Yourself",   \n         "name": "Make Yourself"  \n       },   \n       {  \n         "children": [],   \n         "data": {  \n           "playcount": "258",   \n           "$color": "#966832",   \n           "image": "http://userserve-ak.last.fm/serve/300x300/31550385.jpg",   \n           "$area": 258  \n         },   \n         "id": "album-Light Grenades",   \n         "name": "Light Grenades"  \n       },   \n       {  \n         "children": [],   \n         "data": {  \n           "playcount": "181",   \n           "$color": "#B54932",   \n           "image": "http://userserve-ak.last.fm/serve/300x300/32309285.jpg",   \n           "$area": 181  \n         },   \n         "id": "album-Morning View",   \n         "name": "Morning View"  \n       }  \n     ],   \n     "data": {  \n       "playcount": 976,   \n       "$area": 976  \n     },   \n     "id": "artist_Incubus",   \n     "name": "Incubus"  \n   },   \n   {  \n     "children": [  \n       {  \n         "children": [],   \n         "data": {  \n           "playcount": "198",   \n           "$color": "#AE5032",   \n           "image": "http://userserve-ak.last.fm/serve/300x300/8599099.jpg",   \n           "$area": 198  \n         },   \n         "id": "album-On And On",   \n         "name": "On And On"  \n       },   \n       {  \n         "children": [],   \n         "data": {  \n           "playcount": "186",   \n           "$color": "#B34B32",   \n           "image": "http://userserve-ak.last.fm/serve/300x300/30082075.jpg",   \n           "$area": 186  \n         },   \n         "id": "album-Brushfire Fairytales",   \n         "name": "Brushfire Fairytales"  \n       }  \n     ],   \n     "data": {  \n       "playcount": 384,   \n       "$area": 384  \n     },   \n     "id": "artist_Jack Johnson",   \n     "name": "Jack Johnson"  \n   },   \n   {  \n     "children": [  \n       {  \n         "children": [],   \n         "data": {  \n           "playcount": "349",   \n           "$color": "#718D32",   \n           "image": "http://userserve-ak.last.fm/serve/300x300/21881921.jpg",   \n           "$area": 349  \n         },   \n         "id": "album-Mother Love Bone",   \n         "name": "Mother Love Bone"  \n       }  \n     ],   \n     "data": {  \n       "playcount": 349,   \n       "$area": 349  \n     },   \n     "id": "artist_Mother Love Bone",   \n     "name": "Mother Love Bone"  \n   }  \n ],   \n "data": {},   \n "id": "root",   \n "name": "Top Albums"  \n };  \n"""\n\nresponse._vars=response._caller(treemap)\n'
p6
sS'snapshot'
p7
(dp8
S'exception'
p9
(dp10
S'__hash__'
p11
S"<method-wrapper '__hash__' of exceptions.NameError object>"
p12
sS'__setattr__'
p13
S"<method-wrapper '__setattr__' of exceptions.NameError object>"
p14
sS'__reduce_ex__'
p15
S'<built-in method __reduce_ex__ of exceptions.NameError object>'
p16
sS'__getslice__'
p17
S"<method-wrapper '__getslice__' of exceptions.NameError object>"
p18
sS'__getitem__'
p19
S"<method-wrapper '__getitem__' of exceptions.NameError object>"
p20
sS'__setstate__'
p21
S'<built-in method __setstate__ of exceptions.NameError object>'
p22
sS'args'
p23
S'("global name \'x\' is not defined",)'
p24
sS'__reduce__'
p25
S'<built-in method __reduce__ of exceptions.NameError object>'
p26
sS'__str__'
p27
S"<method-wrapper '__str__' of exceptions.NameError object>"
p28
sS'__format__'
p29
S'<built-in method __format__ of exceptions.NameError object>'
p30
sS'__getattribute__'
p31
S"<method-wrapper '__getattribute__' of exceptions.NameError object>"
p32
sS'__class__'
p33
S"<type 'exceptions.NameError'>"
p34
sS'__unicode__'
p35
S'<built-in method __unicode__ of exceptions.NameError object>'
p36
sS'__delattr__'
p37
S"<method-wrapper '__delattr__' of exceptions.NameError object>"
p38
sS'__subclasshook__'
p39
S'<built-in method __subclasshook__ of type object>'
p40
sS'__repr__'
p41
S"<method-wrapper '__repr__' of exceptions.NameError object>"
p42
sS'__dict__'
p43
S'{}'
p44
sS'__sizeof__'
p45
S'<built-in method __sizeof__ of exceptions.NameError object>'
p46
sS'__doc__'
p47
S"'Name not found globally.'"
p48
sS'__init__'
p49
S"<method-wrapper '__init__' of exceptions.NameError object>"
p50
sS'__new__'
p51
S'<built-in method __new__ of type object>'
p52
ssS'evalue'
p53
S"global name 'x' is not defined"
p54
sS'request'
p55
ccopy_reg
_reconstructor
p56
(cgluon.html
BEAUTIFY
p57
c__builtin__
object
p58
NtRp59
(dp60
S'attributes'
p61
(dp62
sS'components'
p63
(lp64
g56
(cgluon.html
TABLE
p65
g58
NtRp66
(dp67
g61
(dp68
S'level'
p69
I5
ssS'parent'
p70
Nsg63
(lp71
g56
(cgluon.html
TR
p72
g58
NtRp73
(dp74
g61
(dp75
sg70
g66
sg63
(lp76
g56
(cgluon.html
TD
p77
g58
NtRp78
(dp79
g61
(dp80
S'_style'
p81
S'font-weight:bold;'
p82
ssg70
g73
sg63
(lp83
S'ajax'
p84
asbag56
(g77
g58
NtRp85
(dp86
g61
(dp87
S'_valign'
p88
S'top'
p89
ssg70
g73
sg63
(lp90
S':'
asbag56
(g77
g58
NtRp91
(dp92
g61
(dp93
sg70
g73
sg63
(lp94
g56
(g57
g58
NtRp95
(dp96
g61
(dp97
g69
I5
ssg70
g91
sg63
(lp98
S'False'
p99
asbasbasbag56
(g72
g58
NtRp100
(dp101
g61
(dp102
sg70
g66
sg63
(lp103
g56
(g77
g58
NtRp104
(dp105
g61
(dp106
g81
g82
ssg70
g100
sg63
(lp107
S'application'
p108
asbag56
(g77
g58
NtRp109
(dp110
g61
(dp111
g88
g89
ssg70
g100
sg63
(lp112
S':'
asbag56
(g77
g58
NtRp113
(dp114
g61
(dp115
sg70
g100
sg63
(lp116
g56
(g57
g58
NtRp117
(dp118
g61
(dp119
g69
I5
ssg70
g113
sg63
(lp120
S'infovis'
p121
asbasbasbag56
(g72
g58
NtRp122
(dp123
g61
(dp124
sg70
g66
sg63
(lp125
g56
(g77
g58
NtRp126
(dp127
g61
(dp128
g81
g82
ssg70
g122
sg63
(lp129
g23
asbag56
(g77
g58
NtRp130
(dp131
g61
(dp132
g88
g89
ssg70
g122
sg63
(lp133
S':'
asbag56
(g77
g58
NtRp134
(dp135
g61
(dp136
sg70
g122
sg63
(lp137
g56
(g57
g58
NtRp138
(dp139
g61
(dp140
g69
I5
ssg70
g134
sg63
(lp141
g56
(g65
g58
NtRp142
(dp143
g61
(dp144
g69
I4
ssg70
Nsg63
(lp145
sbasbasbasbag56
(g72
g58
NtRp146
(dp147
g61
(dp148
sg70
g66
sg63
(lp149
g56
(g77
g58
NtRp150
(dp151
g61
(dp152
g81
g82
ssg70
g146
sg63
(lp153
S'body'
p154
asbag56
(g77
g58
NtRp155
(dp156
g61
(dp157
g88
g89
ssg70
g146
sg63
(lp158
S':'
asbag56
(g77
g58
NtRp159
(dp160
g61
(dp161
sg70
g146
sg63
(lp162
g56
(g57
g58
NtRp163
(dp164
g61
(dp165
g69
I5
ssg70
g159
sg63
(lp166
S'<cStringIO.StringO object at 0x1027ebf10>'
p167
asbasbasbag56
(g72
g58
NtRp168
(dp169
g61
(dp170
sg70
g66
sg63
(lp171
g56
(g77
g58
NtRp172
(dp173
g61
(dp174
g81
g82
ssg70
g168
sg63
(lp175
S'client'
p176
asbag56
(g77
g58
NtRp177
(dp178
g61
(dp179
g88
g89
ssg70
g168
sg63
(lp180
S':'
asbag56
(g77
g58
NtRp181
(dp182
g61
(dp183
sg70
g168
sg63
(lp184
g56
(g57
g58
NtRp185
(dp186
g61
(dp187
g69
I5
ssg70
g181
sg63
(lp188
S'127.0.0.1'
p189
asbasbasbag56
(g72
g58
NtRp190
(dp191
g61
(dp192
sg70
g66
sg63
(lp193
g56
(g77
g58
NtRp194
(dp195
g61
(dp196
g81
g82
ssg70
g190
sg63
(lp197
S'controller'
p198
asbag56
(g77
g58
NtRp199
(dp200
g61
(dp201
g88
g89
ssg70
g190
sg63
(lp202
S':'
asbag56
(g77
g58
NtRp203
(dp204
g61
(dp205
sg70
g190
sg63
(lp206
g56
(g57
g58
NtRp207
(dp208
g61
(dp209
g69
I5
ssg70
g203
sg63
(lp210
S'visual'
p211
asbasbasbag56
(g72
g58
NtRp212
(dp213
g61
(dp214
sg70
g66
sg63
(lp215
g56
(g77
g58
NtRp216
(dp217
g61
(dp218
g81
g82
ssg70
g212
sg63
(lp219
S'cookies'
p220
asbag56
(g77
g58
NtRp221
(dp222
g61
(dp223
g88
g89
ssg70
g212
sg63
(lp224
S':'
asbag56
(g77
g58
NtRp225
(dp226
g61
(dp227
sg70
g212
sg63
(lp228
g56
(g57
g58
NtRp229
(dp230
g61
(dp231
g69
I5
ssg70
g225
sg63
(lp232
g56
(g65
g58
NtRp233
(dp234
g61
(dp235
g69
I4
ssg70
Nsg63
(lp236
g56
(g72
g58
NtRp237
(dp238
g61
(dp239
sg70
g233
sg63
(lp240
g56
(g77
g58
NtRp241
(dp242
g61
(dp243
g81
g82
ssg70
g237
sg63
(lp244
S'session_id_infovis'
p245
asbag56
(g77
g58
NtRp246
(dp247
g61
(dp248
g88
g89
ssg70
g237
sg63
(lp249
S':'
asbag56
(g77
g58
NtRp250
(dp251
g61
(dp252
sg70
g237
sg63
(lp253
g56
(g57
g58
NtRp254
(dp255
g61
(dp256
g69
I4
ssg70
g250
sg63
(lp257
g56
(g65
g58
NtRp258
(dp259
g61
(dp260
g69
I3
ssg70
Nsg63
(lp261
g56
(g72
g58
NtRp262
(dp263
g61
(dp264
sg70
g258
sg63
(lp265
g56
(g77
g58
NtRp266
(dp267
g61
(dp268
g81
g82
ssg70
g262
sg63
(lp269
S'comment'
p270
asbag56
(g77
g58
NtRp271
(dp272
g61
(dp273
g88
g89
ssg70
g262
sg63
(lp274
S':'
asbag56
(g77
g58
NtRp275
(dp276
g61
(dp277
sg70
g262
sg63
(lp278
g56
(g57
g58
NtRp279
(dp280
g61
(dp281
g69
I3
ssg70
g275
sg63
(lp282
S''
asbasbasbag56
(g72
g58
NtRp283
(dp284
g61
(dp285
sg70
g258
sg63
(lp286
g56
(g77
g58
NtRp287
(dp288
g61
(dp289
g81
g82
ssg70
g283
sg63
(lp290
S'domain'
p291
asbag56
(g77
g58
NtRp292
(dp293
g61
(dp294
g88
g89
ssg70
g283
sg63
(lp295
S':'
asbag56
(g77
g58
NtRp296
(dp297
g61
(dp298
sg70
g283
sg63
(lp299
g56
(g57
g58
NtRp300
(dp301
g61
(dp302
g69
I3
ssg70
g296
sg63
(lp303
S''
asbasbasbag56
(g72
g58
NtRp304
(dp305
g61
(dp306
sg70
g258
sg63
(lp307
g56
(g77
g58
NtRp308
(dp309
g61
(dp310
g81
g82
ssg70
g304
sg63
(lp311
S'expires'
p312
asbag56
(g77
g58
NtRp313
(dp314
g61
(dp315
g88
g89
ssg70
g304
sg63
(lp316
S':'
asbag56
(g77
g58
NtRp317
(dp318
g61
(dp319
sg70
g304
sg63
(lp320
g56
(g57
g58
NtRp321
(dp322
g61
(dp323
g69
I3
ssg70
g317
sg63
(lp324
S''
asbasbasbag56
(g72
g58
NtRp325
(dp326
g61
(dp327
sg70
g258
sg63
(lp328
g56
(g77
g58
NtRp329
(dp330
g61
(dp331
g81
g82
ssg70
g325
sg63
(lp332
S'httponly'
p333
asbag56
(g77
g58
NtRp334
(dp335
g61
(dp336
g88
g89
ssg70
g325
sg63
(lp337
S':'
asbag56
(g77
g58
NtRp338
(dp339
g61
(dp340
sg70
g325
sg63
(lp341
g56
(g57
g58
NtRp342
(dp343
g61
(dp344
g69
I3
ssg70
g338
sg63
(lp345
S''
asbasbasbag56
(g72
g58
NtRp346
(dp347
g61
(dp348
sg70
g258
sg63
(lp349
g56
(g77
g58
NtRp350
(dp351
g61
(dp352
g81
g82
ssg70
g346
sg63
(lp353
S'max-age'
p354
asbag56
(g77
g58
NtRp355
(dp356
g61
(dp357
g88
g89
ssg70
g346
sg63
(lp358
S':'
asbag56
(g77
g58
NtRp359
(dp360
g61
(dp361
sg70
g346
sg63
(lp362
g56
(g57
g58
NtRp363
(dp364
g61
(dp365
g69
I3
ssg70
g359
sg63
(lp366
S''
asbasbasbag56
(g72
g58
NtRp367
(dp368
g61
(dp369
sg70
g258
sg63
(lp370
g56
(g77
g58
NtRp371
(dp372
g61
(dp373
g81
g82
ssg70
g367
sg63
(lp374
S'path'
p375
asbag56
(g77
g58
NtRp376
(dp377
g61
(dp378
g88
g89
ssg70
g367
sg63
(lp379
S':'
asbag56
(g77
g58
NtRp380
(dp381
g61
(dp382
sg70
g367
sg63
(lp383
g56
(g57
g58
NtRp384
(dp385
g61
(dp386
g69
I3
ssg70
g380
sg63
(lp387
S''
asbasbasbag56
(g72
g58
NtRp388
(dp389
g61
(dp390
sg70
g258
sg63
(lp391
g56
(g77
g58
NtRp392
(dp393
g61
(dp394
g81
g82
ssg70
g388
sg63
(lp395
S'secure'
p396
asbag56
(g77
g58
NtRp397
(dp398
g61
(dp399
g88
g89
ssg70
g388
sg63
(lp400
S':'
asbag56
(g77
g58
NtRp401
(dp402
g61
(dp403
sg70
g388
sg63
(lp404
g56
(g57
g58
NtRp405
(dp406
g61
(dp407
g69
I3
ssg70
g401
sg63
(lp408
S''
asbasbasbag56
(g72
g58
NtRp409
(dp410
g61
(dp411
sg70
g258
sg63
(lp412
g56
(g77
g58
NtRp413
(dp414
g61
(dp415
g81
g82
ssg70
g409
sg63
(lp416
S'version'
p417
asbag56
(g77
g58
NtRp418
(dp419
g61
(dp420
g88
g89
ssg70
g409
sg63
(lp421
S':'
asbag56
(g77
g58
NtRp422
(dp423
g61
(dp424
sg70
g409
sg63
(lp425
g56
(g57
g58
NtRp426
(dp427
g61
(dp428
g69
I3
ssg70
g422
sg63
(lp429
S''
asbasbasbasbasbasbasbag56
(g72
g58
NtRp430
(dp431
g61
(dp432
sg70
g233
sg63
(lp433
g56
(g77
g58
NtRp434
(dp435
g61
(dp436
g81
g82
ssg70
g430
sg63
(lp437
S'session_id_welcome'
p438
asbag56
(g77
g58
NtRp439
(dp440
g61
(dp441
g88
g89
ssg70
g430
sg63
(lp442
S':'
asbag56
(g77
g58
NtRp443
(dp444
g61
(dp445
sg70
g430
sg63
(lp446
g56
(g57
g58
NtRp447
(dp448
g61
(dp449
g69
I4
ssg70
g443
sg63
(lp450
g56
(g65
g58
NtRp451
(dp452
g61
(dp453
g69
I3
ssg70
Nsg63
(lp454
g56
(g72
g58
NtRp455
(dp456
g61
(dp457
sg70
g451
sg63
(lp458
g56
(g77
g58
NtRp459
(dp460
g61
(dp461
g81
g82
ssg70
g455
sg63
(lp462
g270
asbag56
(g77
g58
NtRp463
(dp464
g61
(dp465
g88
g89
ssg70
g455
sg63
(lp466
S':'
asbag56
(g77
g58
NtRp467
(dp468
g61
(dp469
sg70
g455
sg63
(lp470
g56
(g57
g58
NtRp471
(dp472
g61
(dp473
g69
I3
ssg70
g467
sg63
(lp474
S''
asbasbasbag56
(g72
g58
NtRp475
(dp476
g61
(dp477
sg70
g451
sg63
(lp478
g56
(g77
g58
NtRp479
(dp480
g61
(dp481
g81
g82
ssg70
g475
sg63
(lp482
g291
asbag56
(g77
g58
NtRp483
(dp484
g61
(dp485
g88
g89
ssg70
g475
sg63
(lp486
S':'
asbag56
(g77
g58
NtRp487
(dp488
g61
(dp489
sg70
g475
sg63
(lp490
g56
(g57
g58
NtRp491
(dp492
g61
(dp493
g69
I3
ssg70
g487
sg63
(lp494
S''
asbasbasbag56
(g72
g58
NtRp495
(dp496
g61
(dp497
sg70
g451
sg63
(lp498
g56
(g77
g58
NtRp499
(dp500
g61
(dp501
g81
g82
ssg70
g495
sg63
(lp502
g312
asbag56
(g77
g58
NtRp503
(dp504
g61
(dp505
g88
g89
ssg70
g495
sg63
(lp506
S':'
asbag56
(g77
g58
NtRp507
(dp508
g61
(dp509
sg70
g495
sg63
(lp510
g56
(g57
g58
NtRp511
(dp512
g61
(dp513
g69
I3
ssg70
g507
sg63
(lp514
S''
asbasbasbag56
(g72
g58
NtRp515
(dp516
g61
(dp517
sg70
g451
sg63
(lp518
g56
(g77
g58
NtRp519
(dp520
g61
(dp521
g81
g82
ssg70
g515
sg63
(lp522
g333
asbag56
(g77
g58
NtRp523
(dp524
g61
(dp525
g88
g89
ssg70
g515
sg63
(lp526
S':'
asbag56
(g77
g58
NtRp527
(dp528
g61
(dp529
sg70
g515
sg63
(lp530
g56
(g57
g58
NtRp531
(dp532
g61
(dp533
g69
I3
ssg70
g527
sg63
(lp534
S''
asbasbasbag56
(g72
g58
NtRp535
(dp536
g61
(dp537
sg70
g451
sg63
(lp538
g56
(g77
g58
NtRp539
(dp540
g61
(dp541
g81
g82
ssg70
g535
sg63
(lp542
g354
asbag56
(g77
g58
NtRp543
(dp544
g61
(dp545
g88
g89
ssg70
g535
sg63
(lp546
S':'
asbag56
(g77
g58
NtRp547
(dp548
g61
(dp549
sg70
g535
sg63
(lp550
g56
(g57
g58
NtRp551
(dp552
g61
(dp553
g69
I3
ssg70
g547
sg63
(lp554
S''
asbasbasbag56
(g72
g58
NtRp555
(dp556
g61
(dp557
sg70
g451
sg63
(lp558
g56
(g77
g58
NtRp559
(dp560
g61
(dp561
g81
g82
ssg70
g555
sg63
(lp562
g375
asbag56
(g77
g58
NtRp563
(dp564
g61
(dp565
g88
g89
ssg70
g555
sg63
(lp566
S':'
asbag56
(g77
g58
NtRp567
(dp568
g61
(dp569
sg70
g555
sg63
(lp570
g56
(g57
g58
NtRp571
(dp572
g61
(dp573
g69
I3
ssg70
g567
sg63
(lp574
S''
asbasbasbag56
(g72
g58
NtRp575
(dp576
g61
(dp577
sg70
g451
sg63
(lp578
g56
(g77
g58
NtRp579
(dp580
g61
(dp581
g81
g82
ssg70
g575
sg63
(lp582
g396
asbag56
(g77
g58
NtRp583
(dp584
g61
(dp585
g88
g89
ssg70
g575
sg63
(lp586
S':'
asbag56
(g77
g58
NtRp587
(dp588
g61
(dp589
sg70
g575
sg63
(lp590
g56
(g57
g58
NtRp591
(dp592
g61
(dp593
g69
I3
ssg70
g587
sg63
(lp594
S''
asbasbasbag56
(g72
g58
NtRp595
(dp596
g61
(dp597
sg70
g451
sg63
(lp598
g56
(g77
g58
NtRp599
(dp600
g61
(dp601
g81
g82
ssg70
g595
sg63
(lp602
g417
asbag56
(g77
g58
NtRp603
(dp604
g61
(dp605
g88
g89
ssg70
g595
sg63
(lp606
S':'
asbag56
(g77
g58
NtRp607
(dp608
g61
(dp609
sg70
g595
sg63
(lp610
g56
(g57
g58
NtRp611
(dp612
g61
(dp613
g69
I3
ssg70
g607
sg63
(lp614
S''
asbasbasbasbasbasbasbasbasbasbasbag56
(g72
g58
NtRp615
(dp616
g61
(dp617
sg70
g66
sg63
(lp618
g56
(g77
g58
NtRp619
(dp620
g61
(dp621
g81
g82
ssg70
g615
sg63
(lp622
S'env'
p623
asbag56
(g77
g58
NtRp624
(dp625
g61
(dp626
g88
g89
ssg70
g615
sg63
(lp627
S':'
asbag56
(g77
g58
NtRp628
(dp629
g61
(dp630
sg70
g615
sg63
(lp631
g56
(g57
g58
NtRp632
(dp633
g61
(dp634
g69
I5
ssg70
g628
sg63
(lp635
g56
(g65
g58
NtRp636
(dp637
g61
(dp638
g69
I4
ssg70
Nsg63
(lp639
g56
(g72
g58
NtRp640
(dp641
g61
(dp642
sg70
g636
sg63
(lp643
g56
(g77
g58
NtRp644
(dp645
g61
(dp646
g81
g82
ssg70
g640
sg63
(lp647
S'app_folders'
p648
asbag56
(g77
g58
NtRp649
(dp650
g61
(dp651
g88
g89
ssg70
g640
sg63
(lp652
S':'
asbag56
(g77
g58
NtRp653
(dp654
g61
(dp655
sg70
g640
sg63
(lp656
g56
(g57
g58
NtRp657
(dp658
g61
(dp659
g69
I4
ssg70
g653
sg63
(lp660
S"set(['/Users/ilustre/development/repo/jittest/web2py/applications/admin/', '/Users/ilustre/development/repo/jittest/web2py/applications/welcome/', '/Users/ilustre/development/repo/jittest/web2py/applications/infovis/'])"
p661
asbasbasbag56
(g72
g58
NtRp662
(dp663
g61
(dp664
sg70
g636
sg63
(lp665
g56
(g77
g58
NtRp666
(dp667
g61
(dp668
g81
g82
ssg70
g662
sg63
(lp669
S'applications_parent'
p670
asbag56
(g77
g58
NtRp671
(dp672
g61
(dp673
g88
g89
ssg70
g662
sg63
(lp674
S':'
asbag56
(g77
g58
NtRp675
(dp676
g61
(dp677
sg70
g662
sg63
(lp678
g56
(g57
g58
NtRp679
(dp680
g61
(dp681
g69
I4
ssg70
g675
sg63
(lp682
S'/Users/ilustre/development/repo/jittest/web2py'
p683
asbasbasbag56
(g72
g58
NtRp684
(dp685
g61
(dp686
sg70
g636
sg63
(lp687
g56
(g77
g58
NtRp688
(dp689
g61
(dp690
g81
g82
ssg70
g684
sg63
(lp691
S'cmd_args'
p692
asbag56
(g77
g58
NtRp693
(dp694
g61
(dp695
g88
g89
ssg70
g684
sg63
(lp696
S':'
asbag56
(g77
g58
NtRp697
(dp698
g61
(dp699
sg70
g684
sg63
(lp700
g56
(g57
g58
NtRp701
(dp702
g61
(dp703
g69
I4
ssg70
g697
sg63
(lp704
g56
(g65
g58
NtRp705
(dp706
g61
(dp707
g69
I3
ssg70
Nsg63
(lp708
sbasbasbasbag56
(g72
g58
NtRp709
(dp710
g61
(dp711
sg70
g636
sg63
(lp712
g56
(g77
g58
NtRp713
(dp714
g61
(dp715
g81
g82
ssg70
g709
sg63
(lp716
S'cmd_options'
p717
asbag56
(g77
g58
NtRp718
(dp719
g61
(dp720
g88
g89
ssg70
g709
sg63
(lp721
S':'
asbag56
(g77
g58
NtRp722
(dp723
g61
(dp724
sg70
g709
sg63
(lp725
g56
(g57
g58
NtRp726
(dp727
g61
(dp728
g69
I4
ssg70
g722
sg63
(lp729
S"<Values at 0x1014a8050: {'verbose': False, 'ip': '127.0.0.1', 'shutdown_timeout': 5, 'taskbar': False, 'port': 8000, 'maxthreads': None, 'softcron': False, 'server_name': 'ilustrepro.local', 'bpython': False, 'nogui': False, 'nocron': False, 'extcron': False, 'debuglevel': 30, 'test': None, 'folder': '/Users/ilustre/development/repo/jittest/web2py', 'config': '', 'import_models': False, 'winservice': '', 'shell': None, 'run': '', 'log_filename': 'httpserver.log', 'args': [''], 'profiler_filename': None, 'ssl_private_key': '', 'password': 'admin', 'request_queue_size': 5, 'ssl_certificate': '', 'cronjob': False, 'plain': False, 'quiet': False, 'interfaces': None, 'minthreads': None, 'timeout': 10, 'numthreads': None, 'nobanner': False, 'pid_filename': 'httpserver.pid'}>"
p730
asbasbasbag56
(g72
g58
NtRp731
(dp732
g61
(dp733
sg70
g636
sg63
(lp734
g56
(g77
g58
NtRp735
(dp736
g61
(dp737
g81
g82
ssg70
g731
sg63
(lp738
S'db_sessions'
p739
asbag56
(g77
g58
NtRp740
(dp741
g61
(dp742
g88
g89
ssg70
g731
sg63
(lp743
S':'
asbag56
(g77
g58
NtRp744
(dp745
g61
(dp746
sg70
g731
sg63
(lp747
g56
(g57
g58
NtRp748
(dp749
g61
(dp750
g69
I4
ssg70
g744
sg63
(lp751
S'set([])'
p752
asbasbasbag56
(g72
g58
NtRp753
(dp754
g61
(dp755
sg70
g636
sg63
(lp756
g56
(g77
g58
NtRp757
(dp758
g61
(dp759
g81
g82
ssg70
g753
sg63
(lp760
S'debugging'
p761
asbag56
(g77
g58
NtRp762
(dp763
g61
(dp764
g88
g89
ssg70
g753
sg63
(lp765
S':'
asbag56
(g77
g58
NtRp766
(dp767
g61
(dp768
sg70
g753
sg63
(lp769
g56
(g57
g58
NtRp770
(dp771
g61
(dp772
g69
I4
ssg70
g766
sg63
(lp773
g99
asbasbasbag56
(g72
g58
NtRp774
(dp775
g61
(dp776
sg70
g636
sg63
(lp777
g56
(g77
g58
NtRp778
(dp779
g61
(dp780
g81
g82
ssg70
g774
sg63
(lp781
S'gluon_parent'
p782
asbag56
(g77
g58
NtRp783
(dp784
g61
(dp785
g88
g89
ssg70
g774
sg63
(lp786
S':'
asbag56
(g77
g58
NtRp787
(dp788
g61
(dp789
sg70
g774
sg63
(lp790
g56
(g57
g58
NtRp791
(dp792
g61
(dp793
g69
I4
ssg70
g787
sg63
(lp794
S'/Users/ilustre/development/repo/jittest/web2py'
p795
asbasbasbag56
(g72
g58
NtRp796
(dp797
g61
(dp798
sg70
g636
sg63
(lp799
g56
(g77
g58
NtRp800
(dp801
g61
(dp802
g81
g82
ssg70
g796
sg63
(lp803
S'http_accept'
p804
asbag56
(g77
g58
NtRp805
(dp806
g61
(dp807
g88
g89
ssg70
g796
sg63
(lp808
S':'
asbag56
(g77
g58
NtRp809
(dp810
g61
(dp811
sg70
g796
sg63
(lp812
g56
(g57
g58
NtRp813
(dp814
g61
(dp815
g69
I4
ssg70
g809
sg63
(lp816
S'text/html,application/xhtml+xml,application/xml;q=0.9,*/*;q=0.8'
p817
asbasbasbag56
(g72
g58
NtRp818
(dp819
g61
(dp820
sg70
g636
sg63
(lp821
g56
(g77
g58
NtRp822
(dp823
g61
(dp824
g81
g82
ssg70
g818
sg63
(lp825
S'http_accept_charset'
p826
asbag56
(g77
g58
NtRp827
(dp828
g61
(dp829
g88
g89
ssg70
g818
sg63
(lp830
S':'
asbag56
(g77
g58
NtRp831
(dp832
g61
(dp833
sg70
g818
sg63
(lp834
g56
(g57
g58
NtRp835
(dp836
g61
(dp837
g69
I4
ssg70
g831
sg63
(lp838
S'ISO-8859-1,utf-8;q=0.7,*;q=0.7'
p839
asbasbasbag56
(g72
g58
NtRp840
(dp841
g61
(dp842
sg70
g636
sg63
(lp843
g56
(g77
g58
NtRp844
(dp845
g61
(dp846
g81
g82
ssg70
g840
sg63
(lp847
S'http_accept_encoding'
p848
asbag56
(g77
g58
NtRp849
(dp850
g61
(dp851
g88
g89
ssg70
g840
sg63
(lp852
S':'
asbag56
(g77
g58
NtRp853
(dp854
g61
(dp855
sg70
g840
sg63
(lp856
g56
(g57
g58
NtRp857
(dp858
g61
(dp859
g69
I4
ssg70
g853
sg63
(lp860
S'gzip, deflate'
p861
asbasbasbag56
(g72
g58
NtRp862
(dp863
g61
(dp864
sg70
g636
sg63
(lp865
g56
(g77
g58
NtRp866
(dp867
g61
(dp868
g81
g82
ssg70
g862
sg63
(lp869
S'http_accept_language'
p870
asbag56
(g77
g58
NtRp871
(dp872
g61
(dp873
g88
g89
ssg70
g862
sg63
(lp874
S':'
asbag56
(g77
g58
NtRp875
(dp876
g61
(dp877
sg70
g862
sg63
(lp878
g56
(g57
g58
NtRp879
(dp880
g61
(dp881
g69
I4
ssg70
g875
sg63
(lp882
S'en-us,en;q=0.5'
p883
asbasbasbag56
(g72
g58
NtRp884
(dp885
g61
(dp886
sg70
g636
sg63
(lp887
g56
(g77
g58
NtRp888
(dp889
g61
(dp890
g81
g82
ssg70
g884
sg63
(lp891
S'http_cache_control'
p892
asbag56
(g77
g58
NtRp893
(dp894
g61
(dp895
g88
g89
ssg70
g884
sg63
(lp896
S':'
asbag56
(g77
g58
NtRp897
(dp898
g61
(dp899
sg70
g884
sg63
(lp900
g56
(g57
g58
NtRp901
(dp902
g61
(dp903
g69
I4
ssg70
g897
sg63
(lp904
S'max-age=0'
p905
asbasbasbag56
(g72
g58
NtRp906
(dp907
g61
(dp908
sg70
g636
sg63
(lp909
g56
(g77
g58
NtRp910
(dp911
g61
(dp912
g81
g82
ssg70
g906
sg63
(lp913
S'http_connection'
p914
asbag56
(g77
g58
NtRp915
(dp916
g61
(dp917
g88
g89
ssg70
g906
sg63
(lp918
S':'
asbag56
(g77
g58
NtRp919
(dp920
g61
(dp921
sg70
g906
sg63
(lp922
g56
(g57
g58
NtRp923
(dp924
g61
(dp925
g69
I4
ssg70
g919
sg63
(lp926
S'keep-alive'
p927
asbasbasbag56
(g72
g58
NtRp928
(dp929
g61
(dp930
sg70
g636
sg63
(lp931
g56
(g77
g58
NtRp932
(dp933
g61
(dp934
g81
g82
ssg70
g928
sg63
(lp935
S'http_cookie'
p936
asbag56
(g77
g58
NtRp937
(dp938
g61
(dp939
g88
g89
ssg70
g928
sg63
(lp940
S':'
asbag56
(g77
g58
NtRp941
(dp942
g61
(dp943
sg70
g928
sg63
(lp944
g56
(g57
g58
NtRp945
(dp946
g61
(dp947
g69
I4
ssg70
g941
sg63
(lp948
S'session_id_welcome=127.0.0.1-908e4709-c6bb-4819-992c-8b3beb31b207; session_id_infovis=127.0.0.1-8e83c2f8-1539-4892-a537-28670035bf15'
p949
asbasbasbag56
(g72
g58
NtRp950
(dp951
g61
(dp952
sg70
g636
sg63
(lp953
g56
(g77
g58
NtRp954
(dp955
g61
(dp956
g81
g82
ssg70
g950
sg63
(lp957
S'http_host'
p958
asbag56
(g77
g58
NtRp959
(dp960
g61
(dp961
g88
g89
ssg70
g950
sg63
(lp962
S':'
asbag56
(g77
g58
NtRp963
(dp964
g61
(dp965
sg70
g950
sg63
(lp966
g56
(g57
g58
NtRp967
(dp968
g61
(dp969
g69
I4
ssg70
g963
sg63
(lp970
S'localhost:8000'
p971
asbasbasbag56
(g72
g58
NtRp972
(dp973
g61
(dp974
sg70
g636
sg63
(lp975
g56
(g77
g58
NtRp976
(dp977
g61
(dp978
g81
g82
ssg70
g972
sg63
(lp979
S'http_user_agent'
p980
asbag56
(g77
g58
NtRp981
(dp982
g61
(dp983
g88
g89
ssg70
g972
sg63
(lp984
S':'
asbag56
(g77
g58
NtRp985
(dp986
g61
(dp987
sg70
g972
sg63
(lp988
g56
(g57
g58
NtRp989
(dp990
g61
(dp991
g69
I4
ssg70
g985
sg63
(lp992
S'Mozilla/5.0 (Macintosh; Intel Mac OS X 10.6; rv:5.0.1) Gecko/20100101 Firefox/5.0.1'
p993
asbasbasbag56
(g72
g58
NtRp994
(dp995
g61
(dp996
sg70
g636
sg63
(lp997
g56
(g77
g58
NtRp998
(dp999
g61
(dp1000
g81
g82
ssg70
g994
sg63
(lp1001
S'is_jython'
p1002
asbag56
(g77
g58
NtRp1003
(dp1004
g61
(dp1005
g88
g89
ssg70
g994
sg63
(lp1006
S':'
asbag56
(g77
g58
NtRp1007
(dp1008
g61
(dp1009
sg70
g994
sg63
(lp1010
g56
(g57
g58
NtRp1011
(dp1012
g61
(dp1013
g69
I4
ssg70
g1007
sg63
(lp1014
g99
asbasbasbag56
(g72
g58
NtRp1015
(dp1016
g61
(dp1017
sg70
g636
sg63
(lp1018
g56
(g77
g58
NtRp1019
(dp1020
g61
(dp1021
g81
g82
ssg70
g1015
sg63
(lp1022
S'path_info'
p1023
asbag56
(g77
g58
NtRp1024
(dp1025
g61
(dp1026
g88
g89
ssg70
g1015
sg63
(lp1027
S':'
asbag56
(g77
g58
NtRp1028
(dp1029
g61
(dp1030
sg70
g1015
sg63
(lp1031
g56
(g57
g58
NtRp1032
(dp1033
g61
(dp1034
g69
I4
ssg70
g1028
sg63
(lp1035
S'/infovis/visual/treemap'
p1036
asbasbasbag56
(g72
g58
NtRp1037
(dp1038
g61
(dp1039
sg70
g636
sg63
(lp1040
g56
(g77
g58
NtRp1041
(dp1042
g61
(dp1043
g81
g82
ssg70
g1037
sg63
(lp1044
S'query_string'
p1045
asbag56
(g77
g58
NtRp1046
(dp1047
g61
(dp1048
g88
g89
ssg70
g1037
sg63
(lp1049
S':'
asbag56
(g77
g58
NtRp1050
(dp1051
g61
(dp1052
sg70
g1037
sg63
(lp1053
g56
(g57
g58
NtRp1054
(dp1055
g61
(dp1056
g69
I4
ssg70
g1050
sg63
(lp1057
S''
asbasbasbag56
(g72
g58
NtRp1058
(dp1059
g61
(dp1060
sg70
g636
sg63
(lp1061
g56
(g77
g58
NtRp1062
(dp1063
g61
(dp1064
g81
g82
ssg70
g1058
sg63
(lp1065
S'remote_addr'
p1066
asbag56
(g77
g58
NtRp1067
(dp1068
g61
(dp1069
g88
g89
ssg70
g1058
sg63
(lp1070
S':'
asbag56
(g77
g58
NtRp1071
(dp1072
g61
(dp1073
sg70
g1058
sg63
(lp1074
g56
(g57
g58
NtRp1075
(dp1076
g61
(dp1077
g69
I4
ssg70
g1071
sg63
(lp1078
g189
asbasbasbag56
(g72
g58
NtRp1079
(dp1080
g61
(dp1081
sg70
g636
sg63
(lp1082
g56
(g77
g58
NtRp1083
(dp1084
g61
(dp1085
g81
g82
ssg70
g1079
sg63
(lp1086
S'remote_port'
p1087
asbag56
(g77
g58
NtRp1088
(dp1089
g61
(dp1090
g88
g89
ssg70
g1079
sg63
(lp1091
S':'
asbag56
(g77
g58
NtRp1092
(dp1093
g61
(dp1094
sg70
g1079
sg63
(lp1095
g56
(g57
g58
NtRp1096
(dp1097
g61
(dp1098
g69
I4
ssg70
g1092
sg63
(lp1099
S'50041'
p1100
asbasbasbag56
(g72
g58
NtRp1101
(dp1102
g61
(dp1103
sg70
g636
sg63
(lp1104
g56
(g77
g58
NtRp1105
(dp1106
g61
(dp1107
g81
g82
ssg70
g1101
sg63
(lp1108
S'request_method'
p1109
asbag56
(g77
g58
NtRp1110
(dp1111
g61
(dp1112
g88
g89
ssg70
g1101
sg63
(lp1113
S':'
asbag56
(g77
g58
NtRp1114
(dp1115
g61
(dp1116
sg70
g1101
sg63
(lp1117
g56
(g57
g58
NtRp1118
(dp1119
g61
(dp1120
g69
I4
ssg70
g1114
sg63
(lp1121
S'GET'
p1122
asbasbasbag56
(g72
g58
NtRp1123
(dp1124
g61
(dp1125
sg70
g636
sg63
(lp1126
g56
(g77
g58
NtRp1127
(dp1128
g61
(dp1129
g81
g82
ssg70
g1123
sg63
(lp1130
S'script_name'
p1131
asbag56
(g77
g58
NtRp1132
(dp1133
g61
(dp1134
g88
g89
ssg70
g1123
sg63
(lp1135
S':'
asbag56
(g77
g58
NtRp1136
(dp1137
g61
(dp1138
sg70
g1123
sg63
(lp1139
g56
(g57
g58
NtRp1140
(dp1141
g61
(dp1142
g69
I4
ssg70
g1136
sg63
(lp1143
S''
asbasbasbag56
(g72
g58
NtRp1144
(dp1145
g61
(dp1146
sg70
g636
sg63
(lp1147
g56
(g77
g58
NtRp1148
(dp1149
g61
(dp1150
g81
g82
ssg70
g1144
sg63
(lp1151
S'server_name'
p1152
asbag56
(g77
g58
NtRp1153
(dp1154
g61
(dp1155
g88
g89
ssg70
g1144
sg63
(lp1156
S':'
asbag56
(g77
g58
NtRp1157
(dp1158
g61
(dp1159
sg70
g1144
sg63
(lp1160
g56
(g57
g58
NtRp1161
(dp1162
g61
(dp1163
g69
I4
ssg70
g1157
sg63
(lp1164
S'ilustrepro.local'
p1165
asbasbasbag56
(g72
g58
NtRp1166
(dp1167
g61
(dp1168
sg70
g636
sg63
(lp1169
g56
(g77
g58
NtRp1170
(dp1171
g61
(dp1172
g81
g82
ssg70
g1166
sg63
(lp1173
S'server_port'
p1174
asbag56
(g77
g58
NtRp1175
(dp1176
g61
(dp1177
g88
g89
ssg70
g1166
sg63
(lp1178
S':'
asbag56
(g77
g58
NtRp1179
(dp1180
g61
(dp1181
sg70
g1166
sg63
(lp1182
g56
(g57
g58
NtRp1183
(dp1184
g61
(dp1185
g69
I4
ssg70
g1179
sg63
(lp1186
S'8000'
p1187
asbasbasbag56
(g72
g58
NtRp1188
(dp1189
g61
(dp1190
sg70
g636
sg63
(lp1191
g56
(g77
g58
NtRp1192
(dp1193
g61
(dp1194
g81
g82
ssg70
g1188
sg63
(lp1195
S'server_protocol'
p1196
asbag56
(g77
g58
NtRp1197
(dp1198
g61
(dp1199
g88
g89
ssg70
g1188
sg63
(lp1200
S':'
asbag56
(g77
g58
NtRp1201
(dp1202
g61
(dp1203
sg70
g1188
sg63
(lp1204
g56
(g57
g58
NtRp1205
(dp1206
g61
(dp1207
g69
I4
ssg70
g1201
sg63
(lp1208
S'HTTP/1.1'
p1209
asbasbasbag56
(g72
g58
NtRp1210
(dp1211
g61
(dp1212
sg70
g636
sg63
(lp1213
g56
(g77
g58
NtRp1214
(dp1215
g61
(dp1216
g81
g82
ssg70
g1210
sg63
(lp1217
S'server_software'
p1218
asbag56
(g77
g58
NtRp1219
(dp1220
g61
(dp1221
g88
g89
ssg70
g1210
sg63
(lp1222
S':'
asbag56
(g77
g58
NtRp1223
(dp1224
g61
(dp1225
sg70
g1210
sg63
(lp1226
g56
(g57
g58
NtRp1227
(dp1228
g61
(dp1229
g69
I4
ssg70
g1223
sg63
(lp1230
S'Rocket 1.2.2'
p1231
asbasbasbag56
(g72
g58
NtRp1232
(dp1233
g61
(dp1234
sg70
g636
sg63
(lp1235
g56
(g77
g58
NtRp1236
(dp1237
g61
(dp1238
g81
g82
ssg70
g1232
sg63
(lp1239
S'web2py_crontype'
p1240
asbag56
(g77
g58
NtRp1241
(dp1242
g61
(dp1243
g88
g89
ssg70
g1232
sg63
(lp1244
S':'
asbag56
(g77
g58
NtRp1245
(dp1246
g61
(dp1247
sg70
g1232
sg63
(lp1248
g56
(g57
g58
NtRp1249
(dp1250
g61
(dp1251
g69
I4
ssg70
g1245
sg63
(lp1252
S'hard'
p1253
asbasbasbag56
(g72
g58
NtRp1254
(dp1255
g61
(dp1256
sg70
g636
sg63
(lp1257
g56
(g77
g58
NtRp1258
(dp1259
g61
(dp1260
g81
g82
ssg70
g1254
sg63
(lp1261
S'web2py_path'
p1262
asbag56
(g77
g58
NtRp1263
(dp1264
g61
(dp1265
g88
g89
ssg70
g1254
sg63
(lp1266
S':'
asbag56
(g77
g58
NtRp1267
(dp1268
g61
(dp1269
sg70
g1254
sg63
(lp1270
g56
(g57
g58
NtRp1271
(dp1272
g61
(dp1273
g69
I4
ssg70
g1267
sg63
(lp1274
g683
asbasbasbag56
(g72
g58
NtRp1275
(dp1276
g61
(dp1277
sg70
g636
sg63
(lp1278
g56
(g77
g58
NtRp1279
(dp1280
g61
(dp1281
g81
g82
ssg70
g1275
sg63
(lp1282
S'web2py_version'
p1283
asbag56
(g77
g58
NtRp1284
(dp1285
g61
(dp1286
g88
g89
ssg70
g1275
sg63
(lp1287
S':'
asbag56
(g77
g58
NtRp1288
(dp1289
g61
(dp1290
sg70
g1275
sg63
(lp1291
g56
(g57
g58
NtRp1292
(dp1293
g61
(dp1294
g69
I4
ssg70
g1288
sg63
(lp1295
S'Version 1.98.2 (2011-08-04 00:47:09)\n'
p1296
asbasbasbag56
(g72
g58
NtRp1297
(dp1298
g61
(dp1299
sg70
g636
sg63
(lp1300
g56
(g77
g58
NtRp1301
(dp1302
g61
(dp1303
g81
g82
ssg70
g1297
sg63
(lp1304
S'wsgi_errors'
p1305
asbag56
(g77
g58
NtRp1306
(dp1307
g61
(dp1308
g88
g89
ssg70
g1297
sg63
(lp1309
S':'
asbag56
(g77
g58
NtRp1310
(dp1311
g61
(dp1312
sg70
g1297
sg63
(lp1313
g56
(g57
g58
NtRp1314
(dp1315
g61
(dp1316
g69
I4
ssg70
g1310
sg63
(lp1317
S"<open file '<stderr>', mode 'w' at 0x100283270>"
p1318
asbasbasbag56
(g72
g58
NtRp1319
(dp1320
g61
(dp1321
sg70
g636
sg63
(lp1322
g56
(g77
g58
NtRp1323
(dp1324
g61
(dp1325
g81
g82
ssg70
g1319
sg63
(lp1326
S'wsgi_file_wrapper'
p1327
asbag56
(g77
g58
NtRp1328
(dp1329
g61
(dp1330
g88
g89
ssg70
g1319
sg63
(lp1331
S':'
asbag56
(g77
g58
NtRp1332
(dp1333
g61
(dp1334
sg70
g1319
sg63
(lp1335
g56
(g57
g58
NtRp1336
(dp1337
g61
(dp1338
g69
I4
ssg70
g1332
sg63
(lp1339
S'<class gluon.rocket.FileWrapper at 0x101503738>'
p1340
asbasbasbag56
(g72
g58
NtRp1341
(dp1342
g61
(dp1343
sg70
g636
sg63
(lp1344
g56
(g77
g58
NtRp1345
(dp1346
g61
(dp1347
g81
g82
ssg70
g1341
sg63
(lp1348
S'wsgi_input'
p1349
asbag56
(g77
g58
NtRp1350
(dp1351
g61
(dp1352
g88
g89
ssg70
g1341
sg63
(lp1353
S':'
asbag56
(g77
g58
NtRp1354
(dp1355
g61
(dp1356
sg70
g1341
sg63
(lp1357
g56
(g57
g58
NtRp1358
(dp1359
g61
(dp1360
g69
I4
ssg70
g1354
sg63
(lp1361
S'<socket._fileobject object at 0x1019fd650>'
p1362
asbasbasbag56
(g72
g58
NtRp1363
(dp1364
g61
(dp1365
sg70
g636
sg63
(lp1366
g56
(g77
g58
NtRp1367
(dp1368
g61
(dp1369
g81
g82
ssg70
g1363
sg63
(lp1370
S'wsgi_multiprocess'
p1371
asbag56
(g77
g58
NtRp1372
(dp1373
g61
(dp1374
g88
g89
ssg70
g1363
sg63
(lp1375
S':'
asbag56
(g77
g58
NtRp1376
(dp1377
g61
(dp1378
sg70
g1363
sg63
(lp1379
g56
(g57
g58
NtRp1380
(dp1381
g61
(dp1382
g69
I4
ssg70
g1376
sg63
(lp1383
g99
asbasbasbag56
(g72
g58
NtRp1384
(dp1385
g61
(dp1386
sg70
g636
sg63
(lp1387
g56
(g77
g58
NtRp1388
(dp1389
g61
(dp1390
g81
g82
ssg70
g1384
sg63
(lp1391
S'wsgi_multithread'
p1392
asbag56
(g77
g58
NtRp1393
(dp1394
g61
(dp1395
g88
g89
ssg70
g1384
sg63
(lp1396
S':'
asbag56
(g77
g58
NtRp1397
(dp1398
g61
(dp1399
sg70
g1384
sg63
(lp1400
g56
(g57
g58
NtRp1401
(dp1402
g61
(dp1403
g69
I4
ssg70
g1397
sg63
(lp1404
S'True'
p1405
asbasbasbag56
(g72
g58
NtRp1406
(dp1407
g61
(dp1408
sg70
g636
sg63
(lp1409
g56
(g77
g58
NtRp1410
(dp1411
g61
(dp1412
g81
g82
ssg70
g1406
sg63
(lp1413
S'wsgi_run_once'
p1414
asbag56
(g77
g58
NtRp1415
(dp1416
g61
(dp1417
g88
g89
ssg70
g1406
sg63
(lp1418
S':'
asbag56
(g77
g58
NtRp1419
(dp1420
g61
(dp1421
sg70
g1406
sg63
(lp1422
g56
(g57
g58
NtRp1423
(dp1424
g61
(dp1425
g69
I4
ssg70
g1419
sg63
(lp1426
g99
asbasbasbag56
(g72
g58
NtRp1427
(dp1428
g61
(dp1429
sg70
g636
sg63
(lp1430
g56
(g77
g58
NtRp1431
(dp1432
g61
(dp1433
g81
g82
ssg70
g1427
sg63
(lp1434
S'wsgi_url_scheme'
p1435
asbag56
(g77
g58
NtRp1436
(dp1437
g61
(dp1438
g88
g89
ssg70
g1427
sg63
(lp1439
S':'
asbag56
(g77
g58
NtRp1440
(dp1441
g61
(dp1442
sg70
g1427
sg63
(lp1443
g56
(g57
g58
NtRp1444
(dp1445
g61
(dp1446
g69
I4
ssg70
g1440
sg63
(lp1447
S'http'
p1448
asbasbasbag56
(g72
g58
NtRp1449
(dp1450
g61
(dp1451
sg70
g636
sg63
(lp1452
g56
(g77
g58
NtRp1453
(dp1454
g61
(dp1455
g81
g82
ssg70
g1449
sg63
(lp1456
S'wsgi_version'
p1457
asbag56
(g77
g58
NtRp1458
(dp1459
g61
(dp1460
g88
g89
ssg70
g1449
sg63
(lp1461
S':'
asbag56
(g77
g58
NtRp1462
(dp1463
g61
(dp1464
sg70
g1449
sg63
(lp1465
g56
(g57
g58
NtRp1466
(dp1467
g61
(dp1468
g69
I4
ssg70
g1462
sg63
(lp1469
g56
(g65
g58
NtRp1470
(dp1471
g61
(dp1472
g69
I3
ssg70
Nsg63
(lp1473
g56
(g72
g58
NtRp1474
(dp1475
g61
(dp1476
sg70
g1470
sg63
(lp1477
g56
(g77
g58
NtRp1478
(dp1479
g61
(dp1480
sg70
g1474
sg63
(lp1481
g56
(g57
g58
NtRp1482
(dp1483
g61
(dp1484
g69
I3
ssg70
g1478
sg63
(lp1485
S'1'
asbasbasbag56
(g72
g58
NtRp1486
(dp1487
g61
(dp1488
sg70
g1470
sg63
(lp1489
g56
(g77
g58
NtRp1490
(dp1491
g61
(dp1492
sg70
g1486
sg63
(lp1493
g56
(g57
g58
NtRp1494
(dp1495
g61
(dp1496
g69
I3
ssg70
g1490
sg63
(lp1497
S'0'
asbasbasbasbasbasbasbasbasbasbasbag56
(g72
g58
NtRp1498
(dp1499
g61
(dp1500
sg70
g66
sg63
(lp1501
g56
(g77
g58
NtRp1502
(dp1503
g61
(dp1504
g81
g82
ssg70
g1498
sg63
(lp1505
S'extension'
p1506
asbag56
(g77
g58
NtRp1507
(dp1508
g61
(dp1509
g88
g89
ssg70
g1498
sg63
(lp1510
S':'
asbag56
(g77
g58
NtRp1511
(dp1512
g61
(dp1513
sg70
g1498
sg63
(lp1514
g56
(g57
g58
NtRp1515
(dp1516
g61
(dp1517
g69
I5
ssg70
g1511
sg63
(lp1518
S'html'
p1519
asbasbasbag56
(g72
g58
NtRp1520
(dp1521
g61
(dp1522
sg70
g66
sg63
(lp1523
g56
(g77
g58
NtRp1524
(dp1525
g61
(dp1526
g81
g82
ssg70
g1520
sg63
(lp1527
S'folder'
p1528
asbag56
(g77
g58
NtRp1529
(dp1530
g61
(dp1531
g88
g89
ssg70
g1520
sg63
(lp1532
S':'
asbag56
(g77
g58
NtRp1533
(dp1534
g61
(dp1535
sg70
g1520
sg63
(lp1536
g56
(g57
g58
NtRp1537
(dp1538
g61
(dp1539
g69
I5
ssg70
g1533
sg63
(lp1540
S'/Users/ilustre/development/repo/jittest/web2py/applications/infovis/'
p1541
asbasbasbag56
(g72
g58
NtRp1542
(dp1543
g61
(dp1544
sg70
g66
sg63
(lp1545
g56
(g77
g58
NtRp1546
(dp1547
g61
(dp1548
g81
g82
ssg70
g1542
sg63
(lp1549
S'function'
p1550
asbag56
(g77
g58
NtRp1551
(dp1552
g61
(dp1553
g88
g89
ssg70
g1542
sg63
(lp1554
S':'
asbag56
(g77
g58
NtRp1555
(dp1556
g61
(dp1557
sg70
g1542
sg63
(lp1558
g56
(g57
g58
NtRp1559
(dp1560
g61
(dp1561
g69
I5
ssg70
g1555
sg63
(lp1562
S'treemap'
p1563
asbasbasbag56
(g72
g58
NtRp1564
(dp1565
g61
(dp1566
sg70
g66
sg63
(lp1567
g56
(g77
g58
NtRp1568
(dp1569
g61
(dp1570
g81
g82
ssg70
g1564
sg63
(lp1571
S'get_vars'
p1572
asbag56
(g77
g58
NtRp1573
(dp1574
g61
(dp1575
g88
g89
ssg70
g1564
sg63
(lp1576
S':'
asbag56
(g77
g58
NtRp1577
(dp1578
g61
(dp1579
sg70
g1564
sg63
(lp1580
g56
(g57
g58
NtRp1581
(dp1582
g61
(dp1583
g69
I5
ssg70
g1577
sg63
(lp1584
g56
(g65
g58
NtRp1585
(dp1586
g61
(dp1587
g69
I4
ssg70
Nsg63
(lp1588
sbasbasbasbag56
(g72
g58
NtRp1589
(dp1590
g61
(dp1591
sg70
g66
sg63
(lp1592
g56
(g77
g58
NtRp1593
(dp1594
g61
(dp1595
g81
g82
ssg70
g1589
sg63
(lp1596
S'is_https'
p1597
asbag56
(g77
g58
NtRp1598
(dp1599
g61
(dp1600
g88
g89
ssg70
g1589
sg63
(lp1601
S':'
asbag56
(g77
g58
NtRp1602
(dp1603
g61
(dp1604
sg70
g1589
sg63
(lp1605
g56
(g57
g58
NtRp1606
(dp1607
g61
(dp1608
g69
I5
ssg70
g1602
sg63
(lp1609
g99
asbasbasbag56
(g72
g58
NtRp1610
(dp1611
g61
(dp1612
sg70
g66
sg63
(lp1613
g56
(g77
g58
NtRp1614
(dp1615
g61
(dp1616
g81
g82
ssg70
g1610
sg63
(lp1617
S'is_local'
p1618
asbag56
(g77
g58
NtRp1619
(dp1620
g61
(dp1621
g88
g89
ssg70
g1610
sg63
(lp1622
S':'
asbag56
(g77
g58
NtRp1623
(dp1624
g61
(dp1625
sg70
g1610
sg63
(lp1626
g56
(g57
g58
NtRp1627
(dp1628
g61
(dp1629
g69
I5
ssg70
g1623
sg63
(lp1630
g1405
asbasbasbag56
(g72
g58
NtRp1631
(dp1632
g61
(dp1633
sg70
g66
sg63
(lp1634
g56
(g77
g58
NtRp1635
(dp1636
g61
(dp1637
g81
g82
ssg70
g1631
sg63
(lp1638
S'is_restful'
p1639
asbag56
(g77
g58
NtRp1640
(dp1641
g61
(dp1642
g88
g89
ssg70
g1631
sg63
(lp1643
S':'
asbag56
(g77
g58
NtRp1644
(dp1645
g61
(dp1646
sg70
g1631
sg63
(lp1647
g56
(g57
g58
NtRp1648
(dp1649
g61
(dp1650
g69
I5
ssg70
g1644
sg63
(lp1651
g99
asbasbasbag56
(g72
g58
NtRp1652
(dp1653
g61
(dp1654
sg70
g66
sg63
(lp1655
g56
(g77
g58
NtRp1656
(dp1657
g61
(dp1658
g81
g82
ssg70
g1652
sg63
(lp1659
S'now'
p1660
asbag56
(g77
g58
NtRp1661
(dp1662
g61
(dp1663
g88
g89
ssg70
g1652
sg63
(lp1664
S':'
asbag56
(g77
g58
NtRp1665
(dp1666
g61
(dp1667
sg70
g1652
sg63
(lp1668
g56
(g57
g58
NtRp1669
(dp1670
g61
(dp1671
g69
I5
ssg70
g1665
sg63
(lp1672
S'datetime.datetime(2011, 8, 15, 0, 3, 30, 143991)'
p1673
asbasbasbag56
(g72
g58
NtRp1674
(dp1675
g61
(dp1676
sg70
g66
sg63
(lp1677
g56
(g77
g58
NtRp1678
(dp1679
g61
(dp1680
g81
g82
ssg70
g1674
sg63
(lp1681
S'post_vars'
p1682
asbag56
(g77
g58
NtRp1683
(dp1684
g61
(dp1685
g88
g89
ssg70
g1674
sg63
(lp1686
S':'
asbag56
(g77
g58
NtRp1687
(dp1688
g61
(dp1689
sg70
g1674
sg63
(lp1690
g56
(g57
g58
NtRp1691
(dp1692
g61
(dp1693
g69
I5
ssg70
g1687
sg63
(lp1694
g56
(g65
g58
NtRp1695
(dp1696
g61
(dp1697
g69
I4
ssg70
Nsg63
(lp1698
sbasbasbasbag56
(g72
g58
NtRp1699
(dp1700
g61
(dp1701
sg70
g66
sg63
(lp1702
g56
(g77
g58
NtRp1703
(dp1704
g61
(dp1705
g81
g82
ssg70
g1699
sg63
(lp1706
S'url'
p1707
asbag56
(g77
g58
NtRp1708
(dp1709
g61
(dp1710
g88
g89
ssg70
g1699
sg63
(lp1711
S':'
asbag56
(g77
g58
NtRp1712
(dp1713
g61
(dp1714
sg70
g1699
sg63
(lp1715
g56
(g57
g58
NtRp1716
(dp1717
g61
(dp1718
g69
I5
ssg70
g1712
sg63
(lp1719
S'/infovis/visual/treemap'
p1720
asbasbasbag56
(g72
g58
NtRp1721
(dp1722
g61
(dp1723
sg70
g66
sg63
(lp1724
g56
(g77
g58
NtRp1725
(dp1726
g61
(dp1727
g81
g82
ssg70
g1721
sg63
(lp1728
S'uuid'
p1729
asbag56
(g77
g58
NtRp1730
(dp1731
g61
(dp1732
g88
g89
ssg70
g1721
sg63
(lp1733
S':'
asbag56
(g77
g58
NtRp1734
(dp1735
g61
(dp1736
sg70
g1721
sg63
(lp1737
g56
(g57
g58
NtRp1738
(dp1739
g61
(dp1740
g69
I5
ssg70
g1734
sg63
(lp1741
S'infovis/127.0.0.1.2011-08-15.00-03-30.b30cba2d-c0c0-4eb4-8155-e3f044426fd6'
p1742
asbasbasbag56
(g72
g58
NtRp1743
(dp1744
g61
(dp1745
sg70
g66
sg63
(lp1746
g56
(g77
g58
NtRp1747
(dp1748
g61
(dp1749
g81
g82
ssg70
g1743
sg63
(lp1750
S'vars'
p1751
asbag56
(g77
g58
NtRp1752
(dp1753
g61
(dp1754
g88
g89
ssg70
g1743
sg63
(lp1755
S':'
asbag56
(g77
g58
NtRp1756
(dp1757
g61
(dp1758
sg70
g1743
sg63
(lp1759
g56
(g57
g58
NtRp1760
(dp1761
g61
(dp1762
g69
I5
ssg70
g1756
sg63
(lp1763
g56
(g65
g58
NtRp1764
(dp1765
g61
(dp1766
g69
I4
ssg70
Nsg63
(lp1767
sbasbasbasbag56
(g72
g58
NtRp1768
(dp1769
g61
(dp1770
sg70
g66
sg63
(lp1771
g56
(g77
g58
NtRp1772
(dp1773
g61
(dp1774
g81
g82
ssg70
g1768
sg63
(lp1775
S'wsgi'
p1776
asbag56
(g77
g58
NtRp1777
(dp1778
g61
(dp1779
g88
g89
ssg70
g1768
sg63
(lp1780
S':'
asbag56
(g77
g58
NtRp1781
(dp1782
g61
(dp1783
sg70
g1768
sg63
(lp1784
g56
(g57
g58
NtRp1785
(dp1786
g61
(dp1787
g69
I5
ssg70
g1781
sg63
(lp1788
g56
(g65
g58
NtRp1789
(dp1790
g61
(dp1791
g69
I4
ssg70
Nsg63
(lp1792
g56
(g72
g58
NtRp1793
(dp1794
g61
(dp1795
sg70
g1789
sg63
(lp1796
g56
(g77
g58
NtRp1797
(dp1798
g61
(dp1799
g81
g82
ssg70
g1793
sg63
(lp1800
S'environ'
p1801
asbag56
(g77
g58
NtRp1802
(dp1803
g61
(dp1804
g88
g89
ssg70
g1793
sg63
(lp1805
S':'
asbag56
(g77
g58
NtRp1806
(dp1807
g61
(dp1808
sg70
g1793
sg63
(lp1809
g56
(g57
g58
NtRp1810
(dp1811
g61
(dp1812
g69
I4
ssg70
g1806
sg63
(lp1813
g56
(g65
g58
NtRp1814
(dp1815
g61
(dp1816
g69
I3
ssg70
Nsg63
(lp1817
g56
(g72
g58
NtRp1818
(dp1819
g61
(dp1820
sg70
g1814
sg63
(lp1821
g56
(g77
g58
NtRp1822
(dp1823
g61
(dp1824
g81
g82
ssg70
g1818
sg63
(lp1825
S'HTTP_ACCEPT'
p1826
asbag56
(g77
g58
NtRp1827
(dp1828
g61
(dp1829
g88
g89
ssg70
g1818
sg63
(lp1830
S':'
asbag56
(g77
g58
NtRp1831
(dp1832
g61
(dp1833
sg70
g1818
sg63
(lp1834
g56
(g57
g58
NtRp1835
(dp1836
g61
(dp1837
g69
I3
ssg70
g1831
sg63
(lp1838
g817
asbasbasbag56
(g72
g58
NtRp1839
(dp1840
g61
(dp1841
sg70
g1814
sg63
(lp1842
g56
(g77
g58
NtRp1843
(dp1844
g61
(dp1845
g81
g82
ssg70
g1839
sg63
(lp1846
S'HTTP_ACCEPT_CHARSET'
p1847
asbag56
(g77
g58
NtRp1848
(dp1849
g61
(dp1850
g88
g89
ssg70
g1839
sg63
(lp1851
S':'
asbag56
(g77
g58
NtRp1852
(dp1853
g61
(dp1854
sg70
g1839
sg63
(lp1855
g56
(g57
g58
NtRp1856
(dp1857
g61
(dp1858
g69
I3
ssg70
g1852
sg63
(lp1859
g839
asbasbasbag56
(g72
g58
NtRp1860
(dp1861
g61
(dp1862
sg70
g1814
sg63
(lp1863
g56
(g77
g58
NtRp1864
(dp1865
g61
(dp1866
g81
g82
ssg70
g1860
sg63
(lp1867
S'HTTP_ACCEPT_ENCODING'
p1868
asbag56
(g77
g58
NtRp1869
(dp1870
g61
(dp1871
g88
g89
ssg70
g1860
sg63
(lp1872
S':'
asbag56
(g77
g58
NtRp1873
(dp1874
g61
(dp1875
sg70
g1860
sg63
(lp1876
g56
(g57
g58
NtRp1877
(dp1878
g61
(dp1879
g69
I3
ssg70
g1873
sg63
(lp1880
g861
asbasbasbag56
(g72
g58
NtRp1881
(dp1882
g61
(dp1883
sg70
g1814
sg63
(lp1884
g56
(g77
g58
NtRp1885
(dp1886
g61
(dp1887
g81
g82
ssg70
g1881
sg63
(lp1888
S'HTTP_ACCEPT_LANGUAGE'
p1889
asbag56
(g77
g58
NtRp1890
(dp1891
g61
(dp1892
g88
g89
ssg70
g1881
sg63
(lp1893
S':'
asbag56
(g77
g58
NtRp1894
(dp1895
g61
(dp1896
sg70
g1881
sg63
(lp1897
g56
(g57
g58
NtRp1898
(dp1899
g61
(dp1900
g69
I3
ssg70
g1894
sg63
(lp1901
g883
asbasbasbag56
(g72
g58
NtRp1902
(dp1903
g61
(dp1904
sg70
g1814
sg63
(lp1905
g56
(g77
g58
NtRp1906
(dp1907
g61
(dp1908
g81
g82
ssg70
g1902
sg63
(lp1909
S'HTTP_CACHE_CONTROL'
p1910
asbag56
(g77
g58
NtRp1911
(dp1912
g61
(dp1913
g88
g89
ssg70
g1902
sg63
(lp1914
S':'
asbag56
(g77
g58
NtRp1915
(dp1916
g61
(dp1917
sg70
g1902
sg63
(lp1918
g56
(g57
g58
NtRp1919
(dp1920
g61
(dp1921
g69
I3
ssg70
g1915
sg63
(lp1922
g905
asbasbasbag56
(g72
g58
NtRp1923
(dp1924
g61
(dp1925
sg70
g1814
sg63
(lp1926
g56
(g77
g58
NtRp1927
(dp1928
g61
(dp1929
g81
g82
ssg70
g1923
sg63
(lp1930
S'HTTP_CONNECTION'
p1931
asbag56
(g77
g58
NtRp1932
(dp1933
g61
(dp1934
g88
g89
ssg70
g1923
sg63
(lp1935
S':'
asbag56
(g77
g58
NtRp1936
(dp1937
g61
(dp1938
sg70
g1923
sg63
(lp1939
g56
(g57
g58
NtRp1940
(dp1941
g61
(dp1942
g69
I3
ssg70
g1936
sg63
(lp1943
g927
asbasbasbag56
(g72
g58
NtRp1944
(dp1945
g61
(dp1946
sg70
g1814
sg63
(lp1947
g56
(g77
g58
NtRp1948
(dp1949
g61
(dp1950
g81
g82
ssg70
g1944
sg63
(lp1951
S'HTTP_COOKIE'
p1952
asbag56
(g77
g58
NtRp1953
(dp1954
g61
(dp1955
g88
g89
ssg70
g1944
sg63
(lp1956
S':'
asbag56
(g77
g58
NtRp1957
(dp1958
g61
(dp1959
sg70
g1944
sg63
(lp1960
g56
(g57
g58
NtRp1961
(dp1962
g61
(dp1963
g69
I3
ssg70
g1957
sg63
(lp1964
g949
asbasbasbag56
(g72
g58
NtRp1965
(dp1966
g61
(dp1967
sg70
g1814
sg63
(lp1968
g56
(g77
g58
NtRp1969
(dp1970
g61
(dp1971
g81
g82
ssg70
g1965
sg63
(lp1972
S'HTTP_HOST'
p1973
asbag56
(g77
g58
NtRp1974
(dp1975
g61
(dp1976
g88
g89
ssg70
g1965
sg63
(lp1977
S':'
asbag56
(g77
g58
NtRp1978
(dp1979
g61
(dp1980
sg70
g1965
sg63
(lp1981
g56
(g57
g58
NtRp1982
(dp1983
g61
(dp1984
g69
I3
ssg70
g1978
sg63
(lp1985
g971
asbasbasbag56
(g72
g58
NtRp1986
(dp1987
g61
(dp1988
sg70
g1814
sg63
(lp1989
g56
(g77
g58
NtRp1990
(dp1991
g61
(dp1992
g81
g82
ssg70
g1986
sg63
(lp1993
S'HTTP_USER_AGENT'
p1994
asbag56
(g77
g58
NtRp1995
(dp1996
g61
(dp1997
g88
g89
ssg70
g1986
sg63
(lp1998
S':'
asbag56
(g77
g58
NtRp1999
(dp2000
g61
(dp2001
sg70
g1986
sg63
(lp2002
g56
(g57
g58
NtRp2003
(dp2004
g61
(dp2005
g69
I3
ssg70
g1999
sg63
(lp2006
g993
asbasbasbag56
(g72
g58
NtRp2007
(dp2008
g61
(dp2009
sg70
g1814
sg63
(lp2010
g56
(g77
g58
NtRp2011
(dp2012
g61
(dp2013
g81
g82
ssg70
g2007
sg63
(lp2014
S'PATH_INFO'
p2015
asbag56
(g77
g58
NtRp2016
(dp2017
g61
(dp2018
g88
g89
ssg70
g2007
sg63
(lp2019
S':'
asbag56
(g77
g58
NtRp2020
(dp2021
g61
(dp2022
sg70
g2007
sg63
(lp2023
g56
(g57
g58
NtRp2024
(dp2025
g61
(dp2026
g69
I3
ssg70
g2020
sg63
(lp2027
g1036
asbasbasbag56
(g72
g58
NtRp2028
(dp2029
g61
(dp2030
sg70
g1814
sg63
(lp2031
g56
(g77
g58
NtRp2032
(dp2033
g61
(dp2034
g81
g82
ssg70
g2028
sg63
(lp2035
S'QUERY_STRING'
p2036
asbag56
(g77
g58
NtRp2037
(dp2038
g61
(dp2039
g88
g89
ssg70
g2028
sg63
(lp2040
S':'
asbag56
(g77
g58
NtRp2041
(dp2042
g61
(dp2043
sg70
g2028
sg63
(lp2044
g56
(g57
g58
NtRp2045
(dp2046
g61
(dp2047
g69
I3
ssg70
g2041
sg63
(lp2048
S''
asbasbasbag56
(g72
g58
NtRp2049
(dp2050
g61
(dp2051
sg70
g1814
sg63
(lp2052
g56
(g77
g58
NtRp2053
(dp2054
g61
(dp2055
g81
g82
ssg70
g2049
sg63
(lp2056
S'REMOTE_ADDR'
p2057
asbag56
(g77
g58
NtRp2058
(dp2059
g61
(dp2060
g88
g89
ssg70
g2049
sg63
(lp2061
S':'
asbag56
(g77
g58
NtRp2062
(dp2063
g61
(dp2064
sg70
g2049
sg63
(lp2065
g56
(g57
g58
NtRp2066
(dp2067
g61
(dp2068
g69
I3
ssg70
g2062
sg63
(lp2069
g189
asbasbasbag56
(g72
g58
NtRp2070
(dp2071
g61
(dp2072
sg70
g1814
sg63
(lp2073
g56
(g77
g58
NtRp2074
(dp2075
g61
(dp2076
g81
g82
ssg70
g2070
sg63
(lp2077
S'REMOTE_PORT'
p2078
asbag56
(g77
g58
NtRp2079
(dp2080
g61
(dp2081
g88
g89
ssg70
g2070
sg63
(lp2082
S':'
asbag56
(g77
g58
NtRp2083
(dp2084
g61
(dp2085
sg70
g2070
sg63
(lp2086
g56
(g57
g58
NtRp2087
(dp2088
g61
(dp2089
g69
I3
ssg70
g2083
sg63
(lp2090
g1100
asbasbasbag56
(g72
g58
NtRp2091
(dp2092
g61
(dp2093
sg70
g1814
sg63
(lp2094
g56
(g77
g58
NtRp2095
(dp2096
g61
(dp2097
g81
g82
ssg70
g2091
sg63
(lp2098
S'REQUEST_METHOD'
p2099
asbag56
(g77
g58
NtRp2100
(dp2101
g61
(dp2102
g88
g89
ssg70
g2091
sg63
(lp2103
S':'
asbag56
(g77
g58
NtRp2104
(dp2105
g61
(dp2106
sg70
g2091
sg63
(lp2107
g56
(g57
g58
NtRp2108
(dp2109
g61
(dp2110
g69
I3
ssg70
g2104
sg63
(lp2111
g1122
asbasbasbag56
(g72
g58
NtRp2112
(dp2113
g61
(dp2114
sg70
g1814
sg63
(lp2115
g56
(g77
g58
NtRp2116
(dp2117
g61
(dp2118
g81
g82
ssg70
g2112
sg63
(lp2119
S'SCRIPT_NAME'
p2120
asbag56
(g77
g58
NtRp2121
(dp2122
g61
(dp2123
g88
g89
ssg70
g2112
sg63
(lp2124
S':'
asbag56
(g77
g58
NtRp2125
(dp2126
g61
(dp2127
sg70
g2112
sg63
(lp2128
g56
(g57
g58
NtRp2129
(dp2130
g61
(dp2131
g69
I3
ssg70
g2125
sg63
(lp2132
S''
asbasbasbag56
(g72
g58
NtRp2133
(dp2134
g61
(dp2135
sg70
g1814
sg63
(lp2136
g56
(g77
g58
NtRp2137
(dp2138
g61
(dp2139
g81
g82
ssg70
g2133
sg63
(lp2140
S'SERVER_NAME'
p2141
asbag56
(g77
g58
NtRp2142
(dp2143
g61
(dp2144
g88
g89
ssg70
g2133
sg63
(lp2145
S':'
asbag56
(g77
g58
NtRp2146
(dp2147
g61
(dp2148
sg70
g2133
sg63
(lp2149
g56
(g57
g58
NtRp2150
(dp2151
g61
(dp2152
g69
I3
ssg70
g2146
sg63
(lp2153
g1165
asbasbasbag56
(g72
g58
NtRp2154
(dp2155
g61
(dp2156
sg70
g1814
sg63
(lp2157
g56
(g77
g58
NtRp2158
(dp2159
g61
(dp2160
g81
g82
ssg70
g2154
sg63
(lp2161
S'SERVER_PORT'
p2162
asbag56
(g77
g58
NtRp2163
(dp2164
g61
(dp2165
g88
g89
ssg70
g2154
sg63
(lp2166
S':'
asbag56
(g77
g58
NtRp2167
(dp2168
g61
(dp2169
sg70
g2154
sg63
(lp2170
g56
(g57
g58
NtRp2171
(dp2172
g61
(dp2173
g69
I3
ssg70
g2167
sg63
(lp2174
g1187
asbasbasbag56
(g72
g58
NtRp2175
(dp2176
g61
(dp2177
sg70
g1814
sg63
(lp2178
g56
(g77
g58
NtRp2179
(dp2180
g61
(dp2181
g81
g82
ssg70
g2175
sg63
(lp2182
S'SERVER_PROTOCOL'
p2183
asbag56
(g77
g58
NtRp2184
(dp2185
g61
(dp2186
g88
g89
ssg70
g2175
sg63
(lp2187
S':'
asbag56
(g77
g58
NtRp2188
(dp2189
g61
(dp2190
sg70
g2175
sg63
(lp2191
g56
(g57
g58
NtRp2192
(dp2193
g61
(dp2194
g69
I3
ssg70
g2188
sg63
(lp2195
g1209
asbasbasbag56
(g72
g58
NtRp2196
(dp2197
g61
(dp2198
sg70
g1814
sg63
(lp2199
g56
(g77
g58
NtRp2200
(dp2201
g61
(dp2202
g81
g82
ssg70
g2196
sg63
(lp2203
S'SERVER_SOFTWARE'
p2204
asbag56
(g77
g58
NtRp2205
(dp2206
g61
(dp2207
g88
g89
ssg70
g2196
sg63
(lp2208
S':'
asbag56
(g77
g58
NtRp2209
(dp2210
g61
(dp2211
sg70
g2196
sg63
(lp2212
g56
(g57
g58
NtRp2213
(dp2214
g61
(dp2215
g69
I3
ssg70
g2209
sg63
(lp2216
g1231
asbasbasbag56
(g72
g58
NtRp2217
(dp2218
g61
(dp2219
sg70
g1814
sg63
(lp2220
g56
(g77
g58
NtRp2221
(dp2222
g61
(dp2223
g81
g82
ssg70
g2217
sg63
(lp2224
S'wsgi.errors'
p2225
asbag56
(g77
g58
NtRp2226
(dp2227
g61
(dp2228
g88
g89
ssg70
g2217
sg63
(lp2229
S':'
asbag56
(g77
g58
NtRp2230
(dp2231
g61
(dp2232
sg70
g2217
sg63
(lp2233
g56
(g57
g58
NtRp2234
(dp2235
g61
(dp2236
g69
I3
ssg70
g2230
sg63
(lp2237
S"<open file '<stderr>', mode 'w' at 0x100283270>"
p2238
asbasbasbag56
(g72
g58
NtRp2239
(dp2240
g61
(dp2241
sg70
g1814
sg63
(lp2242
g56
(g77
g58
NtRp2243
(dp2244
g61
(dp2245
g81
g82
ssg70
g2239
sg63
(lp2246
S'wsgi.file_wrapper'
p2247
asbag56
(g77
g58
NtRp2248
(dp2249
g61
(dp2250
g88
g89
ssg70
g2239
sg63
(lp2251
S':'
asbag56
(g77
g58
NtRp2252
(dp2253
g61
(dp2254
sg70
g2239
sg63
(lp2255
g56
(g57
g58
NtRp2256
(dp2257
g61
(dp2258
g69
I3
ssg70
g2252
sg63
(lp2259
S'<class gluon.rocket.FileWrapper at 0x101503738>'
p2260
asbasbasbag56
(g72
g58
NtRp2261
(dp2262
g61
(dp2263
sg70
g1814
sg63
(lp2264
g56
(g77
g58
NtRp2265
(dp2266
g61
(dp2267
g81
g82
ssg70
g2261
sg63
(lp2268
S'wsgi.input'
p2269
asbag56
(g77
g58
NtRp2270
(dp2271
g61
(dp2272
g88
g89
ssg70
g2261
sg63
(lp2273
S':'
asbag56
(g77
g58
NtRp2274
(dp2275
g61
(dp2276
sg70
g2261
sg63
(lp2277
g56
(g57
g58
NtRp2278
(dp2279
g61
(dp2280
g69
I3
ssg70
g2274
sg63
(lp2281
S'<cStringIO.StringO object at 0x1027ebf10>'
p2282
asbasbasbag56
(g72
g58
NtRp2283
(dp2284
g61
(dp2285
sg70
g1814
sg63
(lp2286
g56
(g77
g58
NtRp2287
(dp2288
g61
(dp2289
g81
g82
ssg70
g2283
sg63
(lp2290
S'wsgi.multiprocess'
p2291
asbag56
(g77
g58
NtRp2292
(dp2293
g61
(dp2294
g88
g89
ssg70
g2283
sg63
(lp2295
S':'
asbag56
(g77
g58
NtRp2296
(dp2297
g61
(dp2298
sg70
g2283
sg63
(lp2299
g56
(g57
g58
NtRp2300
(dp2301
g61
(dp2302
g69
I3
ssg70
g2296
sg63
(lp2303
g99
asbasbasbag56
(g72
g58
NtRp2304
(dp2305
g61
(dp2306
sg70
g1814
sg63
(lp2307
g56
(g77
g58
NtRp2308
(dp2309
g61
(dp2310
g81
g82
ssg70
g2304
sg63
(lp2311
S'wsgi.multithread'
p2312
asbag56
(g77
g58
NtRp2313
(dp2314
g61
(dp2315
g88
g89
ssg70
g2304
sg63
(lp2316
S':'
asbag56
(g77
g58
NtRp2317
(dp2318
g61
(dp2319
sg70
g2304
sg63
(lp2320
g56
(g57
g58
NtRp2321
(dp2322
g61
(dp2323
g69
I3
ssg70
g2317
sg63
(lp2324
g1405
asbasbasbag56
(g72
g58
NtRp2325
(dp2326
g61
(dp2327
sg70
g1814
sg63
(lp2328
g56
(g77
g58
NtRp2329
(dp2330
g61
(dp2331
g81
g82
ssg70
g2325
sg63
(lp2332
S'wsgi.run_once'
p2333
asbag56
(g77
g58
NtRp2334
(dp2335
g61
(dp2336
g88
g89
ssg70
g2325
sg63
(lp2337
S':'
asbag56
(g77
g58
NtRp2338
(dp2339
g61
(dp2340
sg70
g2325
sg63
(lp2341
g56
(g57
g58
NtRp2342
(dp2343
g61
(dp2344
g69
I3
ssg70
g2338
sg63
(lp2345
g99
asbasbasbag56
(g72
g58
NtRp2346
(dp2347
g61
(dp2348
sg70
g1814
sg63
(lp2349
g56
(g77
g58
NtRp2350
(dp2351
g61
(dp2352
g81
g82
ssg70
g2346
sg63
(lp2353
S'wsgi.url_scheme'
p2354
asbag56
(g77
g58
NtRp2355
(dp2356
g61
(dp2357
g88
g89
ssg70
g2346
sg63
(lp2358
S':'
asbag56
(g77
g58
NtRp2359
(dp2360
g61
(dp2361
sg70
g2346
sg63
(lp2362
g56
(g57
g58
NtRp2363
(dp2364
g61
(dp2365
g69
I3
ssg70
g2359
sg63
(lp2366
g1448
asbasbasbag56
(g72
g58
NtRp2367
(dp2368
g61
(dp2369
sg70
g1814
sg63
(lp2370
g56
(g77
g58
NtRp2371
(dp2372
g61
(dp2373
g81
g82
ssg70
g2367
sg63
(lp2374
S'wsgi.version'
p2375
asbag56
(g77
g58
NtRp2376
(dp2377
g61
(dp2378
g88
g89
ssg70
g2367
sg63
(lp2379
S':'
asbag56
(g77
g58
NtRp2380
(dp2381
g61
(dp2382
sg70
g2367
sg63
(lp2383
g56
(g57
g58
NtRp2384
(dp2385
g61
(dp2386
g69
I3
ssg70
g2380
sg63
(lp2387
S'1'
asbasbasbasbasbasbasbasbasbasbasbasbasbsS'frames'
p2388
(lp2389
(dp2390
S'file'
p2391
S'/Users/ilustre/development/repo/jittest/web2py/gluon/restricted.py'
p2392
sS'dump'
p2393
(dp2394
S'environment'
p2395
S"{'A': <class 'gluon.html.A'>, 'Auth': <class 'gluon.tools.Auth'>, 'B': <class 'gluon.html.B'>, 'BEAUTIFY': <class 'gluon.html.BEAUTIFY'>, 'BODY': <class 'gluon.html.BODY'>, 'BR': <class 'gluon.html.BR'>, 'BUTTON': <class 'gluon.html.BUTTON'>, 'CAT': <class 'gluon.html.CAT'>, 'CENTER': <class 'gluon.html.CENTER'>, 'CLEANUP': <class 'gluon.validators.CLEANUP'>, ...}"
p2396
sS'ccode'
p2397
S'<code object <module> at 0x101c8ed30, file "/Use...ications/infovis/controllers/visual.py", line 11>'
p2398
ssS'lnum'
p2399
I192
sS'lines'
p2400
(dp2401
I192
S'        exec ccode in environment'
p2402
sI193
S'    except HTTP:'
p2403
sI194
S'        raise'
p2404
sI195
S'    except Exception, error:'
p2405
sI196
S'        # XXX Show exception in Wing IDE if running in debugger'
p2406
sI187
S'    try:'
p2407
sI188
S'        if type(code) == types.CodeType:'
p2408
sI189
S'            ccode = code'
p2409
sI190
S'        else:'
p2410
sI191
S'            ccode = compile2(code,layer)'
p2411
ssS'call'
p2412
S'(code=\'# -*- coding: utf-8 -*-\\n# this file is released ...  \\n"""\\n\\nresponse._vars=response._caller(treemap)\\n\', environment={\'A\': <class \'gluon.html.A\'>, \'Auth\': <class \'gluon.tools.Auth\'>, \'B\': <class \'gluon.html.B\'>, \'BEAUTIFY\': <class \'gluon.html.BEAUTIFY\'>, \'BODY\': <class \'gluon.html.BODY\'>, \'BR\': <class \'gluon.html.BR\'>, \'BUTTON\': <class \'gluon.html.BUTTON\'>, \'CAT\': <class \'gluon.html.CAT\'>, \'CENTER\': <class \'gluon.html.CENTER\'>, \'CLEANUP\': <class \'gluon.validators.CLEANUP\'>, ...}, layer=\'/Users/ilustre/development/repo/jittest/web2py/applications/infovis/controllers/visual.py\')'
p2413
sS'func'
p2414
S'restricted'
p2415
sa(dp2416
g2391
S'/Users/ilustre/development/repo/jittest/web2py/applications/infovis/controllers/visual.py'
p2417
sg2393
(dp2418
sg2399
I976
sg2400
(dp2419
I965
S'     },'
p2420
sI966
S'     "id": "artist_Mother Love Bone",'
p2421
sI967
S'     "name": "Mother Love Bone"'
p2422
sI968
S'   }'
p2423
sI969
S' ],'
p2424
sI970
S' "data": {},'
p2425
sI971
S' "id": "root",'
p2426
sI972
S' "name": "Top Albums"'
p2427
sI973
S' };'
p2428
sI974
S'"""'
p2429
ssg2412
S'()'
p2430
sg2414
S'<module>'
p2431
sa(dp2432
g2391
S'/Users/ilustre/development/repo/jittest/web2py/gluon/globals.py'
p2433
sg2393
(dp2434
S'self'
p2435
S'undefined'
p2436
sS'f'
S'<function treemap>'
p2437
ssg2399
I145
sg2400
(dp2438
I140
S'        self.meta = Storage()      # used by web2py_ajax.html'
p2439
sI141
S'        self.menu = []             # used by the default view layout'
p2440
sI142
S'        self.files = []            # used by web2py_ajax.html'
p2441
sI143
S'        self.generic_patterns = [] # patterns to allow generic views'
p2442
sI144
S'        self._vars = None'
p2443
sI145
S'        self._caller = lambda f: f()'
p2444
sI146
S'        self._view_environment = None'
p2445
sI147
S'        self._custom_commit = None'
p2446
sI148
S'        self._custom_rollback = None'
p2447
sI149
S''
ssg2412
S'(f=<function treemap>)'
p2448
sg2414
S'<lambda>'
p2449
sa(dp2450
g2391
S'/Users/ilustre/development/repo/jittest/web2py/applications/infovis/controllers/visual.py'
p2451
sg2393
(dp2452
S'x'
g2436
sS'message'
p2453
g2436
sS'builtindict'
p2454
S"<type 'dict'>"
p2455
ssg2399
I50
sg2400
(dp2456
I45
S'def treemap():'
p2457
sI46
S'    import json'
p2458
sI47
S'    t = example(EXAMPLE)'
p2459
sI48
S'    r = json.dumps(t, sort_keys=True, indent=4)'
p2460
sI49
S'    print type(r)'
p2461
sI50
S'    return dict(message=x)'
p2462
sI51
S''
sI52
S''
sI53
S'def index():'
p2463
sI54
S'    """'
p2464
ssg2412
S'()'
p2465
sg2414
S'treemap'
p2466
sasS'pyver'
p2467
S'Python 2.7.2: /Users/ilustre/virtual_pythons/python27_gold/bin/python'
p2468
sS'session'
p2469
g56
(g57
g58
NtRp2470
(dp2471
g61
(dp2472
sg63
(lp2473
g56
(g65
g58
NtRp2474
(dp2475
g61
(dp2476
g69
I5
ssg70
Nsg63
(lp2477
sbasbsS'etype'
p2478
S"<type 'exceptions.NameError'>"
p2479
sS'date'
p2480
S'Mon Aug 15 00:03:30 2011'
p2481
sS'response'
p2482
g56
(g57
g58
NtRp2483
(dp2484
g61
(dp2485
sg63
(lp2486
g56
(g65
g58
NtRp2487
(dp2488
g61
(dp2489
g69
I5
ssg70
Nsg63
(lp2490
g56
(g72
g58
NtRp2491
(dp2492
g61
(dp2493
sg70
g2487
sg63
(lp2494
g56
(g77
g58
NtRp2495
(dp2496
g61
(dp2497
g81
g82
ssg70
g2491
sg63
(lp2498
g154
asbag56
(g77
g58
NtRp2499
(dp2500
g61
(dp2501
g88
g89
ssg70
g2491
sg63
(lp2502
S':'
asbag56
(g77
g58
NtRp2503
(dp2504
g61
(dp2505
sg70
g2491
sg63
(lp2506
g56
(g57
g58
NtRp2507
(dp2508
g61
(dp2509
g69
I5
ssg70
g2503
sg63
(lp2510
S'<cStringIO.StringO object at 0x1017e36c0>'
p2511
asbasbasbag56
(g72
g58
NtRp2512
(dp2513
g61
(dp2514
sg70
g2487
sg63
(lp2515
g56
(g77
g58
NtRp2516
(dp2517
g61
(dp2518
g81
g82
ssg70
g2512
sg63
(lp2519
g220
asbag56
(g77
g58
NtRp2520
(dp2521
g61
(dp2522
g88
g89
ssg70
g2512
sg63
(lp2523
S':'
asbag56
(g77
g58
NtRp2524
(dp2525
g61
(dp2526
sg70
g2512
sg63
(lp2527
g56
(g57
g58
NtRp2528
(dp2529
g61
(dp2530
g69
I5
ssg70
g2524
sg63
(lp2531
g56
(g65
g58
NtRp2532
(dp2533
g61
(dp2534
g69
I4
ssg70
Nsg63
(lp2535
g56
(g72
g58
NtRp2536
(dp2537
g61
(dp2538
sg70
g2532
sg63
(lp2539
g56
(g77
g58
NtRp2540
(dp2541
g61
(dp2542
g81
g82
ssg70
g2536
sg63
(lp2543
S'session_id_infovis'
p2544
asbag56
(g77
g58
NtRp2545
(dp2546
g61
(dp2547
g88
g89
ssg70
g2536
sg63
(lp2548
S':'
asbag56
(g77
g58
NtRp2549
(dp2550
g61
(dp2551
sg70
g2536
sg63
(lp2552
g56
(g57
g58
NtRp2553
(dp2554
g61
(dp2555
g69
I4
ssg70
g2549
sg63
(lp2556
g56
(g65
g58
NtRp2557
(dp2558
g61
(dp2559
g69
I3
ssg70
Nsg63
(lp2560
g56
(g72
g58
NtRp2561
(dp2562
g61
(dp2563
sg70
g2557
sg63
(lp2564
g56
(g77
g58
NtRp2565
(dp2566
g61
(dp2567
g81
g82
ssg70
g2561
sg63
(lp2568
g270
asbag56
(g77
g58
NtRp2569
(dp2570
g61
(dp2571
g88
g89
ssg70
g2561
sg63
(lp2572
S':'
asbag56
(g77
g58
NtRp2573
(dp2574
g61
(dp2575
sg70
g2561
sg63
(lp2576
g56
(g57
g58
NtRp2577
(dp2578
g61
(dp2579
g69
I3
ssg70
g2573
sg63
(lp2580
S''
asbasbasbag56
(g72
g58
NtRp2581
(dp2582
g61
(dp2583
sg70
g2557
sg63
(lp2584
g56
(g77
g58
NtRp2585
(dp2586
g61
(dp2587
g81
g82
ssg70
g2581
sg63
(lp2588
g291
asbag56
(g77
g58
NtRp2589
(dp2590
g61
(dp2591
g88
g89
ssg70
g2581
sg63
(lp2592
S':'
asbag56
(g77
g58
NtRp2593
(dp2594
g61
(dp2595
sg70
g2581
sg63
(lp2596
g56
(g57
g58
NtRp2597
(dp2598
g61
(dp2599
g69
I3
ssg70
g2593
sg63
(lp2600
S''
asbasbasbag56
(g72
g58
NtRp2601
(dp2602
g61
(dp2603
sg70
g2557
sg63
(lp2604
g56
(g77
g58
NtRp2605
(dp2606
g61
(dp2607
g81
g82
ssg70
g2601
sg63
(lp2608
g312
asbag56
(g77
g58
NtRp2609
(dp2610
g61
(dp2611
g88
g89
ssg70
g2601
sg63
(lp2612
S':'
asbag56
(g77
g58
NtRp2613
(dp2614
g61
(dp2615
sg70
g2601
sg63
(lp2616
g56
(g57
g58
NtRp2617
(dp2618
g61
(dp2619
g69
I3
ssg70
g2613
sg63
(lp2620
S''
asbasbasbag56
(g72
g58
NtRp2621
(dp2622
g61
(dp2623
sg70
g2557
sg63
(lp2624
g56
(g77
g58
NtRp2625
(dp2626
g61
(dp2627
g81
g82
ssg70
g2621
sg63
(lp2628
g333
asbag56
(g77
g58
NtRp2629
(dp2630
g61
(dp2631
g88
g89
ssg70
g2621
sg63
(lp2632
S':'
asbag56
(g77
g58
NtRp2633
(dp2634
g61
(dp2635
sg70
g2621
sg63
(lp2636
g56
(g57
g58
NtRp2637
(dp2638
g61
(dp2639
g69
I3
ssg70
g2633
sg63
(lp2640
S''
asbasbasbag56
(g72
g58
NtRp2641
(dp2642
g61
(dp2643
sg70
g2557
sg63
(lp2644
g56
(g77
g58
NtRp2645
(dp2646
g61
(dp2647
g81
g82
ssg70
g2641
sg63
(lp2648
g354
asbag56
(g77
g58
NtRp2649
(dp2650
g61
(dp2651
g88
g89
ssg70
g2641
sg63
(lp2652
S':'
asbag56
(g77
g58
NtRp2653
(dp2654
g61
(dp2655
sg70
g2641
sg63
(lp2656
g56
(g57
g58
NtRp2657
(dp2658
g61
(dp2659
g69
I3
ssg70
g2653
sg63
(lp2660
S''
asbasbasbag56
(g72
g58
NtRp2661
(dp2662
g61
(dp2663
sg70
g2557
sg63
(lp2664
g56
(g77
g58
NtRp2665
(dp2666
g61
(dp2667
g81
g82
ssg70
g2661
sg63
(lp2668
g375
asbag56
(g77
g58
NtRp2669
(dp2670
g61
(dp2671
g88
g89
ssg70
g2661
sg63
(lp2672
S':'
asbag56
(g77
g58
NtRp2673
(dp2674
g61
(dp2675
sg70
g2661
sg63
(lp2676
g56
(g57
g58
NtRp2677
(dp2678
g61
(dp2679
g69
I3
ssg70
g2673
sg63
(lp2680
S'/'
asbasbasbag56
(g72
g58
NtRp2681
(dp2682
g61
(dp2683
sg70
g2557
sg63
(lp2684
g56
(g77
g58
NtRp2685
(dp2686
g61
(dp2687
g81
g82
ssg70
g2681
sg63
(lp2688
g396
asbag56
(g77
g58
NtRp2689
(dp2690
g61
(dp2691
g88
g89
ssg70
g2681
sg63
(lp2692
S':'
asbag56
(g77
g58
NtRp2693
(dp2694
g61
(dp2695
sg70
g2681
sg63
(lp2696
g56
(g57
g58
NtRp2697
(dp2698
g61
(dp2699
g69
I3
ssg70
g2693
sg63
(lp2700
S''
asbasbasbag56
(g72
g58
NtRp2701
(dp2702
g61
(dp2703
sg70
g2557
sg63
(lp2704
g56
(g77
g58
NtRp2705
(dp2706
g61
(dp2707
g81
g82
ssg70
g2701
sg63
(lp2708
g417
asbag56
(g77
g58
NtRp2709
(dp2710
g61
(dp2711
g88
g89
ssg70
g2701
sg63
(lp2712
S':'
asbag56
(g77
g58
NtRp2713
(dp2714
g61
(dp2715
sg70
g2701
sg63
(lp2716
g56
(g57
g58
NtRp2717
(dp2718
g61
(dp2719
g69
I3
ssg70
g2713
sg63
(lp2720
S''
asbasbasbasbasbasbasbasbasbasbasbag56
(g72
g58
NtRp2721
(dp2722
g61
(dp2723
sg70
g2487
sg63
(lp2724
g56
(g77
g58
NtRp2725
(dp2726
g61
(dp2727
g81
g82
ssg70
g2721
sg63
(lp2728
S'files'
p2729
asbag56
(g77
g58
NtRp2730
(dp2731
g61
(dp2732
g88
g89
ssg70
g2721
sg63
(lp2733
S':'
asbag56
(g77
g58
NtRp2734
(dp2735
g61
(dp2736
sg70
g2721
sg63
(lp2737
g56
(g57
g58
NtRp2738
(dp2739
g61
(dp2740
g69
I5
ssg70
g2734
sg63
(lp2741
g56
(g65
g58
NtRp2742
(dp2743
g61
(dp2744
g69
I4
ssg70
Nsg63
(lp2745
sbasbasbasbag56
(g72
g58
NtRp2746
(dp2747
g61
(dp2748
sg70
g2487
sg63
(lp2749
g56
(g77
g58
NtRp2750
(dp2751
g61
(dp2752
g81
g82
ssg70
g2746
sg63
(lp2753
S'flash'
p2754
asbag56
(g77
g58
NtRp2755
(dp2756
g61
(dp2757
g88
g89
ssg70
g2746
sg63
(lp2758
S':'
asbag56
(g77
g58
NtRp2759
(dp2760
g61
(dp2761
sg70
g2746
sg63
(lp2762
g56
(g57
g58
NtRp2763
(dp2764
g61
(dp2765
g69
I5
ssg70
g2759
sg63
(lp2766
S''
asbasbasbag56
(g72
g58
NtRp2767
(dp2768
g61
(dp2769
sg70
g2487
sg63
(lp2770
g56
(g77
g58
NtRp2771
(dp2772
g61
(dp2773
g81
g82
ssg70
g2767
sg63
(lp2774
S'generic_patterns'
p2775
asbag56
(g77
g58
NtRp2776
(dp2777
g61
(dp2778
g88
g89
ssg70
g2767
sg63
(lp2779
S':'
asbag56
(g77
g58
NtRp2780
(dp2781
g61
(dp2782
sg70
g2767
sg63
(lp2783
g56
(g57
g58
NtRp2784
(dp2785
g61
(dp2786
g69
I5
ssg70
g2780
sg63
(lp2787
g56
(g65
g58
NtRp2788
(dp2789
g61
(dp2790
g69
I4
ssg70
Nsg63
(lp2791
g56
(g72
g58
NtRp2792
(dp2793
g61
(dp2794
sg70
g2788
sg63
(lp2795
g56
(g77
g58
NtRp2796
(dp2797
g61
(dp2798
sg70
g2792
sg63
(lp2799
g56
(g57
g58
NtRp2800
(dp2801
g61
(dp2802
g69
I4
ssg70
g2796
sg63
(lp2803
S'*'
asbasbasbasbasbasbasbag56
(g72
g58
NtRp2804
(dp2805
g61
(dp2806
sg70
g2487
sg63
(lp2807
g56
(g77
g58
NtRp2808
(dp2809
g61
(dp2810
g81
g82
ssg70
g2804
sg63
(lp2811
S'headers'
p2812
asbag56
(g77
g58
NtRp2813
(dp2814
g61
(dp2815
g88
g89
ssg70
g2804
sg63
(lp2816
S':'
asbag56
(g77
g58
NtRp2817
(dp2818
g61
(dp2819
sg70
g2804
sg63
(lp2820
g56
(g57
g58
NtRp2821
(dp2822
g61
(dp2823
g69
I5
ssg70
g2817
sg63
(lp2824
g56
(g65
g58
NtRp2825
(dp2826
g61
(dp2827
g69
I4
ssg70
Nsg63
(lp2828
g56
(g72
g58
NtRp2829
(dp2830
g61
(dp2831
sg70
g2825
sg63
(lp2832
g56
(g77
g58
NtRp2833
(dp2834
g61
(dp2835
g81
g82
ssg70
g2829
sg63
(lp2836
S'Cache-Control'
p2837
asbag56
(g77
g58
NtRp2838
(dp2839
g61
(dp2840
g88
g89
ssg70
g2829
sg63
(lp2841
S':'
asbag56
(g77
g58
NtRp2842
(dp2843
g61
(dp2844
sg70
g2829
sg63
(lp2845
g56
(g57
g58
NtRp2846
(dp2847
g61
(dp2848
g69
I4
ssg70
g2842
sg63
(lp2849
S'no-store, no-cache, must-revalidate, post-check=0, pre-check=0'
p2850
asbasbasbag56
(g72
g58
NtRp2851
(dp2852
g61
(dp2853
sg70
g2825
sg63
(lp2854
g56
(g77
g58
NtRp2855
(dp2856
g61
(dp2857
g81
g82
ssg70
g2851
sg63
(lp2858
S'Content-Type'
p2859
asbag56
(g77
g58
NtRp2860
(dp2861
g61
(dp2862
g88
g89
ssg70
g2851
sg63
(lp2863
S':'
asbag56
(g77
g58
NtRp2864
(dp2865
g61
(dp2866
sg70
g2851
sg63
(lp2867
g56
(g57
g58
NtRp2868
(dp2869
g61
(dp2870
g69
I4
ssg70
g2864
sg63
(lp2871
S'text/html; charset=utf-8'
p2872
asbasbasbag56
(g72
g58
NtRp2873
(dp2874
g61
(dp2875
sg70
g2825
sg63
(lp2876
g56
(g77
g58
NtRp2877
(dp2878
g61
(dp2879
g81
g82
ssg70
g2873
sg63
(lp2880
S'Expires'
p2881
asbag56
(g77
g58
NtRp2882
(dp2883
g61
(dp2884
g88
g89
ssg70
g2873
sg63
(lp2885
S':'
asbag56
(g77
g58
NtRp2886
(dp2887
g61
(dp2888
sg70
g2873
sg63
(lp2889
g56
(g57
g58
NtRp2890
(dp2891
g61
(dp2892
g69
I4
ssg70
g2886
sg63
(lp2893
S'Mon, 15 Aug 2011 04:03:30 GMT'
p2894
asbasbasbag56
(g72
g58
NtRp2895
(dp2896
g61
(dp2897
sg70
g2825
sg63
(lp2898
g56
(g77
g58
NtRp2899
(dp2900
g61
(dp2901
g81
g82
ssg70
g2895
sg63
(lp2902
S'Pragma'
p2903
asbag56
(g77
g58
NtRp2904
(dp2905
g61
(dp2906
g88
g89
ssg70
g2895
sg63
(lp2907
S':'
asbag56
(g77
g58
NtRp2908
(dp2909
g61
(dp2910
sg70
g2895
sg63
(lp2911
g56
(g57
g58
NtRp2912
(dp2913
g61
(dp2914
g69
I4
ssg70
g2908
sg63
(lp2915
S'no-cache'
p2916
asbasbasbag56
(g72
g58
NtRp2917
(dp2918
g61
(dp2919
sg70
g2825
sg63
(lp2920
g56
(g77
g58
NtRp2921
(dp2922
g61
(dp2923
g81
g82
ssg70
g2917
sg63
(lp2924
S'X-Powered-By'
p2925
asbag56
(g77
g58
NtRp2926
(dp2927
g61
(dp2928
g88
g89
ssg70
g2917
sg63
(lp2929
S':'
asbag56
(g77
g58
NtRp2930
(dp2931
g61
(dp2932
sg70
g2917
sg63
(lp2933
g56
(g57
g58
NtRp2934
(dp2935
g61
(dp2936
g69
I4
ssg70
g2930
sg63
(lp2937
S'web2py'
p2938
asbasbasbasbasbasbasbag56
(g72
g58
NtRp2939
(dp2940
g61
(dp2941
sg70
g2487
sg63
(lp2942
g56
(g77
g58
NtRp2943
(dp2944
g61
(dp2945
g81
g82
ssg70
g2939
sg63
(lp2946
S'menu'
p2947
asbag56
(g77
g58
NtRp2948
(dp2949
g61
(dp2950
g88
g89
ssg70
g2939
sg63
(lp2951
S':'
asbag56
(g77
g58
NtRp2952
(dp2953
g61
(dp2954
sg70
g2939
sg63
(lp2955
g56
(g57
g58
NtRp2956
(dp2957
g61
(dp2958
g69
I5
ssg70
g2952
sg63
(lp2959
g56
(g65
g58
NtRp2960
(dp2961
g61
(dp2962
g69
I4
ssg70
Nsg63
(lp2963
g56
(g72
g58
NtRp2964
(dp2965
g61
(dp2966
sg70
g2960
sg63
(lp2967
g56
(g77
g58
NtRp2968
(dp2969
g61
(dp2970
sg70
g2964
sg63
(lp2971
g56
(g57
g58
NtRp2972
(dp2973
g61
(dp2974
g69
I4
ssg70
g2968
sg63
(lp2975
g56
(g65
g58
NtRp2976
(dp2977
g61
(dp2978
g69
I3
ssg70
Nsg63
(lp2979
g56
(g72
g58
NtRp2980
(dp2981
g61
(dp2982
sg70
g2976
sg63
(lp2983
g56
(g77
g58
NtRp2984
(dp2985
g61
(dp2986
sg70
g2980
sg63
(lp2987
g56
(g57
g58
NtRp2988
(dp2989
g61
(dp2990
g69
I3
ssg70
g2984
sg63
(lp2991
cgluon.languages
lazyT_unpickle
p2992
(S't\x04\x00\x00\x00Home'
tRp2993
asbasbasbag56
(g72
g58
NtRp2994
(dp2995
g61
(dp2996
sg70
g2976
sg63
(lp2997
g56
(g77
g58
NtRp2998
(dp2999
g61
(dp3000
sg70
g2994
sg63
(lp3001
g56
(g57
g58
NtRp3002
(dp3003
g61
(dp3004
g69
I3
ssg70
g2998
sg63
(lp3005
g99
asbasbasbag56
(g72
g58
NtRp3006
(dp3007
g61
(dp3008
sg70
g2976
sg63
(lp3009
g56
(g77
g58
NtRp3010
(dp3011
g61
(dp3012
sg70
g3006
sg63
(lp3013
g56
(g57
g58
NtRp3014
(dp3015
g61
(dp3016
g69
I3
ssg70
g3010
sg63
(lp3017
S'/infovis/default/index'
p3018
asbasbasbag56
(g72
g58
NtRp3019
(dp3020
g61
(dp3021
sg70
g2976
sg63
(lp3022
g56
(g77
g58
NtRp3023
(dp3024
g61
(dp3025
sg70
g3019
sg63
(lp3026
g56
(g57
g58
NtRp3027
(dp3028
g61
(dp3029
g69
I3
ssg70
g3023
sg63
(lp3030
g56
(g65
g58
NtRp3031
(dp3032
g61
(dp3033
g69
I2
ssg70
Nsg63
(lp3034
sbasbasbasbasbasbasbasbag56
(g72
g58
NtRp3035
(dp3036
g61
(dp3037
sg70
g2960
sg63
(lp3038
g56
(g77
g58
NtRp3039
(dp3040
g61
(dp3041
sg70
g3035
sg63
(lp3042
g56
(g57
g58
NtRp3043
(dp3044
g61
(dp3045
g69
I4
ssg70
g3039
sg63
(lp3046
g56
(g65
g58
NtRp3047
(dp3048
g61
(dp3049
g69
I3
ssg70
Nsg63
(lp3050
g56
(g72
g58
NtRp3051
(dp3052
g61
(dp3053
sg70
g3047
sg63
(lp3054
g56
(g77
g58
NtRp3055
(dp3056
g61
(dp3057
sg70
g3051
sg63
(lp3058
g56
(g57
g58
NtRp3059
(dp3060
g61
(dp3061
g69
I3
ssg70
g3055
sg63
(lp3062
g2992
(S's\x08\x00\x00\x00This App'
tRp3063
asbasbasbag56
(g72
g58
NtRp3064
(dp3065
g61
(dp3066
sg70
g3047
sg63
(lp3067
g56
(g77
g58
NtRp3068
(dp3069
g61
(dp3070
sg70
g3064
sg63
(lp3071
g56
(g57
g58
NtRp3072
(dp3073
g61
(dp3074
g69
I3
ssg70
g3068
sg63
(lp3075
g99
asbasbasbag56
(g72
g58
NtRp3076
(dp3077
g61
(dp3078
sg70
g3047
sg63
(lp3079
g56
(g77
g58
NtRp3080
(dp3081
g61
(dp3082
sg70
g3076
sg63
(lp3083
g56
(g57
g58
NtRp3084
(dp3085
g61
(dp3086
g69
I3
ssg70
g3080
sg63
(lp3087
S'/admin/default/design/infovis'
p3088
asbasbasbag56
(g72
g58
NtRp3089
(dp3090
g61
(dp3091
sg70
g3047
sg63
(lp3092
g56
(g77
g58
NtRp3093
(dp3094
g61
(dp3095
sg70
g3089
sg63
(lp3096
g56
(g57
g58
NtRp3097
(dp3098
g61
(dp3099
g69
I3
ssg70
g3093
sg63
(lp3100
g56
(g65
g58
NtRp3101
(dp3102
g61
(dp3103
g69
I2
ssg70
Nsg63
(lp3104
g56
(g72
g58
NtRp3105
(dp3106
g61
(dp3107
sg70
g3101
sg63
(lp3108
g56
(g77
g58
NtRp3109
(dp3110
g61
(dp3111
sg70
g3105
sg63
(lp3112
g56
(g57
g58
NtRp3113
(dp3114
g61
(dp3115
g69
I2
ssg70
g3109
sg63
(lp3116
g56
(g65
g58
NtRp3117
(dp3118
g61
(dp3119
g69
I1
ssg70
Nsg63
(lp3120
g56
(g72
g58
NtRp3121
(dp3122
g61
(dp3123
sg70
g3117
sg63
(lp3124
g56
(g77
g58
NtRp3125
(dp3126
g61
(dp3127
sg70
g3121
sg63
(lp3128
g56
(g57
g58
NtRp3129
(dp3130
g61
(dp3131
g69
I1
ssg70
g3125
sg63
(lp3132
g2992
(S't\n\x00\x00\x00Controller'
tRp3133
asbasbasbag56
(g72
g58
NtRp3134
(dp3135
g61
(dp3136
sg70
g3117
sg63
(lp3137
g56
(g77
g58
NtRp3138
(dp3139
g61
(dp3140
sg70
g3134
sg63
(lp3141
g56
(g57
g58
NtRp3142
(dp3143
g61
(dp3144
g69
I1
ssg70
g3138
sg63
(lp3145
I00
asbasbasbag56
(g72
g58
NtRp3146
(dp3147
g61
(dp3148
sg70
g3117
sg63
(lp3149
g56
(g77
g58
NtRp3150
(dp3151
g61
(dp3152
sg70
g3146
sg63
(lp3153
g56
(g57
g58
NtRp3154
(dp3155
g61
(dp3156
g69
I1
ssg70
g3150
sg63
(lp3157
S'/admin/default/edit/infovis/controllers/visual.py'
p3158
asbasbasbasbasbasbasbag56
(g72
g58
NtRp3159
(dp3160
g61
(dp3161
sg70
g3101
sg63
(lp3162
g56
(g77
g58
NtRp3163
(dp3164
g61
(dp3165
sg70
g3159
sg63
(lp3166
g56
(g57
g58
NtRp3167
(dp3168
g61
(dp3169
g69
I2
ssg70
g3163
sg63
(lp3170
g56
(g65
g58
NtRp3171
(dp3172
g61
(dp3173
g69
I1
ssg70
Nsg63
(lp3174
g56
(g72
g58
NtRp3175
(dp3176
g61
(dp3177
sg70
g3171
sg63
(lp3178
g56
(g77
g58
NtRp3179
(dp3180
g61
(dp3181
sg70
g3175
sg63
(lp3182
g56
(g57
g58
NtRp3183
(dp3184
g61
(dp3185
g69
I1
ssg70
g3179
sg63
(lp3186
g2992
(S't\x04\x00\x00\x00View'
tRp3187
asbasbasbag56
(g72
g58
NtRp3188
(dp3189
g61
(dp3190
sg70
g3171
sg63
(lp3191
g56
(g77
g58
NtRp3192
(dp3193
g61
(dp3194
sg70
g3188
sg63
(lp3195
g56
(g57
g58
NtRp3196
(dp3197
g61
(dp3198
g69
I1
ssg70
g3192
sg63
(lp3199
I00
asbasbasbag56
(g72
g58
NtRp3200
(dp3201
g61
(dp3202
sg70
g3171
sg63
(lp3203
g56
(g77
g58
NtRp3204
(dp3205
g61
(dp3206
sg70
g3200
sg63
(lp3207
g56
(g57
g58
NtRp3208
(dp3209
g61
(dp3210
g69
I1
ssg70
g3204
sg63
(lp3211
S'/admin/default/edit/infovis/views/visual/treemap.html'
p3212
asbasbasbasbasbasbasbag56
(g72
g58
NtRp3213
(dp3214
g61
(dp3215
sg70
g3101
sg63
(lp3216
g56
(g77
g58
NtRp3217
(dp3218
g61
(dp3219
sg70
g3213
sg63
(lp3220
g56
(g57
g58
NtRp3221
(dp3222
g61
(dp3223
g69
I2
ssg70
g3217
sg63
(lp3224
g56
(g65
g58
NtRp3225
(dp3226
g61
(dp3227
g69
I1
ssg70
Nsg63
(lp3228
g56
(g72
g58
NtRp3229
(dp3230
g61
(dp3231
sg70
g3225
sg63
(lp3232
g56
(g77
g58
NtRp3233
(dp3234
g61
(dp3235
sg70
g3229
sg63
(lp3236
g56
(g57
g58
NtRp3237
(dp3238
g61
(dp3239
g69
I1
ssg70
g3233
sg63
(lp3240
g2992
(S't\x06\x00\x00\x00Layout'
tRp3241
asbasbasbag56
(g72
g58
NtRp3242
(dp3243
g61
(dp3244
sg70
g3225
sg63
(lp3245
g56
(g77
g58
NtRp3246
(dp3247
g61
(dp3248
sg70
g3242
sg63
(lp3249
g56
(g57
g58
NtRp3250
(dp3251
g61
(dp3252
g69
I1
ssg70
g3246
sg63
(lp3253
I00
asbasbasbag56
(g72
g58
NtRp3254
(dp3255
g61
(dp3256
sg70
g3225
sg63
(lp3257
g56
(g77
g58
NtRp3258
(dp3259
g61
(dp3260
sg70
g3254
sg63
(lp3261
g56
(g57
g58
NtRp3262
(dp3263
g61
(dp3264
g69
I1
ssg70
g3258
sg63
(lp3265
S'/admin/default/edit/infovis/views/layout.html'
p3266
asbasbasbasbasbasbasbag56
(g72
g58
NtRp3267
(dp3268
g61
(dp3269
sg70
g3101
sg63
(lp3270
g56
(g77
g58
NtRp3271
(dp3272
g61
(dp3273
sg70
g3267
sg63
(lp3274
g56
(g57
g58
NtRp3275
(dp3276
g61
(dp3277
g69
I2
ssg70
g3271
sg63
(lp3278
g56
(g65
g58
NtRp3279
(dp3280
g61
(dp3281
g69
I1
ssg70
Nsg63
(lp3282
g56
(g72
g58
NtRp3283
(dp3284
g61
(dp3285
sg70
g3279
sg63
(lp3286
g56
(g77
g58
NtRp3287
(dp3288
g61
(dp3289
sg70
g3283
sg63
(lp3290
g56
(g57
g58
NtRp3291
(dp3292
g61
(dp3293
g69
I1
ssg70
g3287
sg63
(lp3294
g2992
(S't\n\x00\x00\x00Stylesheet'
tRp3295
asbasbasbag56
(g72
g58
NtRp3296
(dp3297
g61
(dp3298
sg70
g3279
sg63
(lp3299
g56
(g77
g58
NtRp3300
(dp3301
g61
(dp3302
sg70
g3296
sg63
(lp3303
g56
(g57
g58
NtRp3304
(dp3305
g61
(dp3306
g69
I1
ssg70
g3300
sg63
(lp3307
I00
asbasbasbag56
(g72
g58
NtRp3308
(dp3309
g61
(dp3310
sg70
g3279
sg63
(lp3311
g56
(g77
g58
NtRp3312
(dp3313
g61
(dp3314
sg70
g3308
sg63
(lp3315
g56
(g57
g58
NtRp3316
(dp3317
g61
(dp3318
g69
I1
ssg70
g3312
sg63
(lp3319
S'/admin/default/edit/infovis/static/base.css'
p3320
asbasbasbasbasbasbasbag56
(g72
g58
NtRp3321
(dp3322
g61
(dp3323
sg70
g3101
sg63
(lp3324
g56
(g77
g58
NtRp3325
(dp3326
g61
(dp3327
sg70
g3321
sg63
(lp3328
g56
(g57
g58
NtRp3329
(dp3330
g61
(dp3331
g69
I2
ssg70
g3325
sg63
(lp3332
g56
(g65
g58
NtRp3333
(dp3334
g61
(dp3335
g69
I1
ssg70
Nsg63
(lp3336
g56
(g72
g58
NtRp3337
(dp3338
g61
(dp3339
sg70
g3333
sg63
(lp3340
g56
(g77
g58
NtRp3341
(dp3342
g61
(dp3343
sg70
g3337
sg63
(lp3344
g56
(g57
g58
NtRp3345
(dp3346
g61
(dp3347
g69
I1
ssg70
g3341
sg63
(lp3348
g2992
(S's\x08\x00\x00\x00DB Model'
tRp3349
asbasbasbag56
(g72
g58
NtRp3350
(dp3351
g61
(dp3352
sg70
g3333
sg63
(lp3353
g56
(g77
g58
NtRp3354
(dp3355
g61
(dp3356
sg70
g3350
sg63
(lp3357
g56
(g57
g58
NtRp3358
(dp3359
g61
(dp3360
g69
I1
ssg70
g3354
sg63
(lp3361
I00
asbasbasbag56
(g72
g58
NtRp3362
(dp3363
g61
(dp3364
sg70
g3333
sg63
(lp3365
g56
(g77
g58
NtRp3366
(dp3367
g61
(dp3368
sg70
g3362
sg63
(lp3369
g56
(g57
g58
NtRp3370
(dp3371
g61
(dp3372
g69
I1
ssg70
g3366
sg63
(lp3373
S'/admin/default/edit/infovis/models/db.py'
p3374
asbasbasbasbasbasbasbag56
(g72
g58
NtRp3375
(dp3376
g61
(dp3377
sg70
g3101
sg63
(lp3378
g56
(g77
g58
NtRp3379
(dp3380
g61
(dp3381
sg70
g3375
sg63
(lp3382
g56
(g57
g58
NtRp3383
(dp3384
g61
(dp3385
g69
I2
ssg70
g3379
sg63
(lp3386
g56
(g65
g58
NtRp3387
(dp3388
g61
(dp3389
g69
I1
ssg70
Nsg63
(lp3390
g56
(g72
g58
NtRp3391
(dp3392
g61
(dp3393
sg70
g3387
sg63
(lp3394
g56
(g77
g58
NtRp3395
(dp3396
g61
(dp3397
sg70
g3391
sg63
(lp3398
g56
(g57
g58
NtRp3399
(dp3400
g61
(dp3401
g69
I1
ssg70
g3395
sg63
(lp3402
g2992
(S's\n\x00\x00\x00Menu Model'
tRp3403
asbasbasbag56
(g72
g58
NtRp3404
(dp3405
g61
(dp3406
sg70
g3387
sg63
(lp3407
g56
(g77
g58
NtRp3408
(dp3409
g61
(dp3410
sg70
g3404
sg63
(lp3411
g56
(g57
g58
NtRp3412
(dp3413
g61
(dp3414
g69
I1
ssg70
g3408
sg63
(lp3415
I00
asbasbasbag56
(g72
g58
NtRp3416
(dp3417
g61
(dp3418
sg70
g3387
sg63
(lp3419
g56
(g77
g58
NtRp3420
(dp3421
g61
(dp3422
sg70
g3416
sg63
(lp3423
g56
(g57
g58
NtRp3424
(dp3425
g61
(dp3426
g69
I1
ssg70
g3420
sg63
(lp3427
S'/admin/default/edit/infovis/models/menu.py'
p3428
asbasbasbasbasbasbasbag56
(g72
g58
NtRp3429
(dp3430
g61
(dp3431
sg70
g3101
sg63
(lp3432
g56
(g77
g58
NtRp3433
(dp3434
g61
(dp3435
sg70
g3429
sg63
(lp3436
g56
(g57
g58
NtRp3437
(dp3438
g61
(dp3439
g69
I2
ssg70
g3433
sg63
(lp3440
g56
(g65
g58
NtRp3441
(dp3442
g61
(dp3443
g69
I1
ssg70
Nsg63
(lp3444
g56
(g72
g58
NtRp3445
(dp3446
g61
(dp3447
sg70
g3441
sg63
(lp3448
g56
(g77
g58
NtRp3449
(dp3450
g61
(dp3451
sg70
g3445
sg63
(lp3452
g56
(g57
g58
NtRp3453
(dp3454
g61
(dp3455
g69
I1
ssg70
g3449
sg63
(lp3456
g2992
(S't\x08\x00\x00\x00Database'
tRp3457
asbasbasbag56
(g72
g58
NtRp3458
(dp3459
g61
(dp3460
sg70
g3441
sg63
(lp3461
g56
(g77
g58
NtRp3462
(dp3463
g61
(dp3464
sg70
g3458
sg63
(lp3465
g56
(g57
g58
NtRp3466
(dp3467
g61
(dp3468
g69
I1
ssg70
g3462
sg63
(lp3469
I00
asbasbasbag56
(g72
g58
NtRp3470
(dp3471
g61
(dp3472
sg70
g3441
sg63
(lp3473
g56
(g77
g58
NtRp3474
(dp3475
g61
(dp3476
sg70
g3470
sg63
(lp3477
g56
(g57
g58
NtRp3478
(dp3479
g61
(dp3480
g69
I1
ssg70
g3474
sg63
(lp3481
S'/infovis/appadmin/index'
p3482
asbasbasbasbasbasbasbag56
(g72
g58
NtRp3483
(dp3484
g61
(dp3485
sg70
g3101
sg63
(lp3486
g56
(g77
g58
NtRp3487
(dp3488
g61
(dp3489
sg70
g3483
sg63
(lp3490
g56
(g57
g58
NtRp3491
(dp3492
g61
(dp3493
g69
I2
ssg70
g3487
sg63
(lp3494
g56
(g65
g58
NtRp3495
(dp3496
g61
(dp3497
g69
I1
ssg70
Nsg63
(lp3498
g56
(g72
g58
NtRp3499
(dp3500
g61
(dp3501
sg70
g3495
sg63
(lp3502
g56
(g77
g58
NtRp3503
(dp3504
g61
(dp3505
sg70
g3499
sg63
(lp3506
g56
(g57
g58
NtRp3507
(dp3508
g61
(dp3509
g69
I1
ssg70
g3503
sg63
(lp3510
g2992
(S't\x06\x00\x00\x00Errors'
tRp3511
asbasbasbag56
(g72
g58
NtRp3512
(dp3513
g61
(dp3514
sg70
g3495
sg63
(lp3515
g56
(g77
g58
NtRp3516
(dp3517
g61
(dp3518
sg70
g3512
sg63
(lp3519
g56
(g57
g58
NtRp3520
(dp3521
g61
(dp3522
g69
I1
ssg70
g3516
sg63
(lp3523
I00
asbasbasbag56
(g72
g58
NtRp3524
(dp3525
g61
(dp3526
sg70
g3495
sg63
(lp3527
g56
(g77
g58
NtRp3528
(dp3529
g61
(dp3530
sg70
g3524
sg63
(lp3531
g56
(g57
g58
NtRp3532
(dp3533
g61
(dp3534
g69
I1
ssg70
g3528
sg63
(lp3535
S'/admin/default/errors/infovis'
p3536
asbasbasbasbasbasbasbag56
(g72
g58
NtRp3537
(dp3538
g61
(dp3539
sg70
g3101
sg63
(lp3540
g56
(g77
g58
NtRp3541
(dp3542
g61
(dp3543
sg70
g3537
sg63
(lp3544
g56
(g57
g58
NtRp3545
(dp3546
g61
(dp3547
g69
I2
ssg70
g3541
sg63
(lp3548
g56
(g65
g58
NtRp3549
(dp3550
g61
(dp3551
g69
I1
ssg70
Nsg63
(lp3552
g56
(g72
g58
NtRp3553
(dp3554
g61
(dp3555
sg70
g3549
sg63
(lp3556
g56
(g77
g58
NtRp3557
(dp3558
g61
(dp3559
sg70
g3553
sg63
(lp3560
g56
(g57
g58
NtRp3561
(dp3562
g61
(dp3563
g69
I1
ssg70
g3557
sg63
(lp3564
g2992
(S't\x05\x00\x00\x00About'
tRp3565
asbasbasbag56
(g72
g58
NtRp3566
(dp3567
g61
(dp3568
sg70
g3549
sg63
(lp3569
g56
(g77
g58
NtRp3570
(dp3571
g61
(dp3572
sg70
g3566
sg63
(lp3573
g56
(g57
g58
NtRp3574
(dp3575
g61
(dp3576
g69
I1
ssg70
g3570
sg63
(lp3577
I00
asbasbasbag56
(g72
g58
NtRp3578
(dp3579
g61
(dp3580
sg70
g3549
sg63
(lp3581
g56
(g77
g58
NtRp3582
(dp3583
g61
(dp3584
sg70
g3578
sg63
(lp3585
g56
(g57
g58
NtRp3586
(dp3587
g61
(dp3588
g69
I1
ssg70
g3582
sg63
(lp3589
S'/admin/default/about/infovis'
p3590
asbasbasbasbasbasbasbasbasbasbasbasbasbasbasbag56
(g72
g58
NtRp3591
(dp3592
g61
(dp3593
sg70
g2960
sg63
(lp3594
g56
(g77
g58
NtRp3595
(dp3596
g61
(dp3597
sg70
g3591
sg63
(lp3598
g56
(g57
g58
NtRp3599
(dp3600
g61
(dp3601
g69
I4
ssg70
g3595
sg63
(lp3602
g56
(g65
g58
NtRp3603
(dp3604
g61
(dp3605
g69
I3
ssg70
Nsg63
(lp3606
g56
(g72
g58
NtRp3607
(dp3608
g61
(dp3609
sg70
g3603
sg63
(lp3610
g56
(g77
g58
NtRp3611
(dp3612
g61
(dp3613
sg70
g3607
sg63
(lp3614
g56
(g57
g58
NtRp3615
(dp3616
g61
(dp3617
g69
I3
ssg70
g3611
sg63
(lp3618
g2992
(S't\t\x00\x00\x00Resources'
tRp3619
asbasbasbag56
(g72
g58
NtRp3620
(dp3621
g61
(dp3622
sg70
g3603
sg63
(lp3623
g56
(g77
g58
NtRp3624
(dp3625
g61
(dp3626
sg70
g3620
sg63
(lp3627
g56
(g57
g58
NtRp3628
(dp3629
g61
(dp3630
g69
I3
ssg70
g3624
sg63
(lp3631
g99
asbasbasbag56
(g72
g58
NtRp3632
(dp3633
g61
(dp3634
sg70
g3603
sg63
(lp3635
g56
(g77
g58
NtRp3636
(dp3637
g61
(dp3638
sg70
g3632
sg63
(lp3639
g56
(g57
g58
NtRp3640
(dp3641
g61
(dp3642
g69
I3
ssg70
g3636
sg63
(lp3643
S'None'
p3644
asbasbasbag56
(g72
g58
NtRp3645
(dp3646
g61
(dp3647
sg70
g3603
sg63
(lp3648
g56
(g77
g58
NtRp3649
(dp3650
g61
(dp3651
sg70
g3645
sg63
(lp3652
g56
(g57
g58
NtRp3653
(dp3654
g61
(dp3655
g69
I3
ssg70
g3649
sg63
(lp3656
g56
(g65
g58
NtRp3657
(dp3658
g61
(dp3659
g69
I2
ssg70
Nsg63
(lp3660
g56
(g72
g58
NtRp3661
(dp3662
g61
(dp3663
sg70
g3657
sg63
(lp3664
g56
(g77
g58
NtRp3665
(dp3666
g61
(dp3667
sg70
g3661
sg63
(lp3668
g56
(g57
g58
NtRp3669
(dp3670
g61
(dp3671
g69
I2
ssg70
g3665
sg63
(lp3672
g56
(g65
g58
NtRp3673
(dp3674
g61
(dp3675
g69
I1
ssg70
Nsg63
(lp3676
g56
(g72
g58
NtRp3677
(dp3678
g61
(dp3679
sg70
g3673
sg63
(lp3680
g56
(g77
g58
NtRp3681
(dp3682
g61
(dp3683
sg70
g3677
sg63
(lp3684
g56
(g57
g58
NtRp3685
(dp3686
g61
(dp3687
g69
I1
ssg70
g3681
sg63
(lp3688
g2992
(S't\r\x00\x00\x00Documentation'
tRp3689
asbasbasbag56
(g72
g58
NtRp3690
(dp3691
g61
(dp3692
sg70
g3673
sg63
(lp3693
g56
(g77
g58
NtRp3694
(dp3695
g61
(dp3696
sg70
g3690
sg63
(lp3697
g56
(g57
g58
NtRp3698
(dp3699
g61
(dp3700
g69
I1
ssg70
g3694
sg63
(lp3701
I00
asbasbasbag56
(g72
g58
NtRp3702
(dp3703
g61
(dp3704
sg70
g3673
sg63
(lp3705
g56
(g77
g58
NtRp3706
(dp3707
g61
(dp3708
sg70
g3702
sg63
(lp3709
g56
(g57
g58
NtRp3710
(dp3711
g61
(dp3712
g69
I1
ssg70
g3706
sg63
(lp3713
S'http://www.web2py.com/book'
p3714
asbasbasbag56
(g72
g58
NtRp3715
(dp3716
g61
(dp3717
sg70
g3673
sg63
(lp3718
g56
(g77
g58
NtRp3719
(dp3720
g61
(dp3721
sg70
g3715
sg63
(lp3722
g56
(g57
g58
NtRp3723
(dp3724
g61
(dp3725
g69
I1
ssg70
g3719
sg63
(lp3726
(lp3727
(g2992
(S't\x07\x00\x00\x00Preface'
tRp3728
I00
S'http://www.web2py.com/book/default/chapter/00'
tp3729
a(g2992
(S't\x0c\x00\x00\x00Introduction'
tRp3730
I00
S'http://www.web2py.com/book/default/chapter/01'
tp3731
a(g2992
(S't\x06\x00\x00\x00Python'
tRp3732
I00
S'http://www.web2py.com/book/default/chapter/02'
tp3733
a(g2992
(S't\x08\x00\x00\x00Overview'
tRp3734
I00
S'http://www.web2py.com/book/default/chapter/03'
tp3735
a(g2992
(S's\x08\x00\x00\x00The Core'
tRp3736
I00
S'http://www.web2py.com/book/default/chapter/04'
tp3737
a(g2992
(S's\t\x00\x00\x00The Views'
tRp3738
I00
S'http://www.web2py.com/book/default/chapter/05'
tp3739
a(g2992
(S't\x08\x00\x00\x00Database'
tRp3740
I00
S'http://www.web2py.com/book/default/chapter/06'
tp3741
a(g2992
(S's\x14\x00\x00\x00Forms and Validators'
tRp3742
I00
S'http://www.web2py.com/book/default/chapter/07'
tp3743
a(g2992
(S's\x0e\x00\x00\x00Access Control'
tRp3744
I00
S'http://www.web2py.com/book/default/chapter/08'
tp3745
a(g2992
(S't\x08\x00\x00\x00Services'
tRp3746
I00
S'http://www.web2py.com/book/default/chapter/09'
tp3747
a(g2992
(S's\x0c\x00\x00\x00Ajax Recipes'
tRp3748
I00
S'http://www.web2py.com/book/default/chapter/10'
tp3749
a(g2992
(S's\x12\x00\x00\x00Deployment Recipes'
tRp3750
I00
S'http://www.web2py.com/book/default/chapter/11'
tp3751
a(g2992
(S's\r\x00\x00\x00Other Recipes'
tRp3752
I00
S'http://www.web2py.com/book/default/chapter/12'
tp3753
a(g2992
(S's\r\x00\x00\x00Buy this book'
tRp3754
I00
S'http://stores.lulu.com/web2py'
tp3755
aasbasbasbasbasbasbasbag56
(g72
g58
NtRp3756
(dp3757
g61
(dp3758
sg70
g3657
sg63
(lp3759
g56
(g77
g58
NtRp3760
(dp3761
g61
(dp3762
sg70
g3756
sg63
(lp3763
g56
(g57
g58
NtRp3764
(dp3765
g61
(dp3766
g69
I2
ssg70
g3760
sg63
(lp3767
g56
(g65
g58
NtRp3768
(dp3769
g61
(dp3770
g69
I1
ssg70
Nsg63
(lp3771
g56
(g72
g58
NtRp3772
(dp3773
g61
(dp3774
sg70
g3768
sg63
(lp3775
g56
(g77
g58
NtRp3776
(dp3777
g61
(dp3778
sg70
g3772
sg63
(lp3779
g56
(g57
g58
NtRp3780
(dp3781
g61
(dp3782
g69
I1
ssg70
g3776
sg63
(lp3783
g2992
(S't\t\x00\x00\x00Community'
tRp3784
asbasbasbag56
(g72
g58
NtRp3785
(dp3786
g61
(dp3787
sg70
g3768
sg63
(lp3788
g56
(g77
g58
NtRp3789
(dp3790
g61
(dp3791
sg70
g3785
sg63
(lp3792
g56
(g57
g58
NtRp3793
(dp3794
g61
(dp3795
g69
I1
ssg70
g3789
sg63
(lp3796
I00
asbasbasbag56
(g72
g58
NtRp3797
(dp3798
g61
(dp3799
sg70
g3768
sg63
(lp3800
g56
(g77
g58
NtRp3801
(dp3802
g61
(dp3803
sg70
g3797
sg63
(lp3804
g56
(g57
g58
NtRp3805
(dp3806
g61
(dp3807
g69
I1
ssg70
g3801
sg63
(lp3808
Nasbasbasbag56
(g72
g58
NtRp3809
(dp3810
g61
(dp3811
sg70
g3768
sg63
(lp3812
g56
(g77
g58
NtRp3813
(dp3814
g61
(dp3815
sg70
g3809
sg63
(lp3816
g56
(g57
g58
NtRp3817
(dp3818
g61
(dp3819
g69
I1
ssg70
g3813
sg63
(lp3820
(lp3821
(g2992
(S't\x06\x00\x00\x00Groups'
tRp3822
I00
S'http://www.web2py.com/examples/default/usergroups'
tp3823
a(g2992
(S't\x07\x00\x00\x00Twitter'
tRp3824
I00
S'http://twitter.com/web2py'
tp3825
a(g2992
(S's\t\x00\x00\x00Live chat'
tRp3826
I00
S'http://mibbit.com/?channel=%23web2py&server=irc.mibbit.net'
tp3827
a(g2992
(S's\n\x00\x00\x00User Voice'
tRp3828
I00
S'http://web2py.uservoice.com/'
tp3829
aasbasbasbasbasbasbasbag56
(g72
g58
NtRp3830
(dp3831
g61
(dp3832
sg70
g3657
sg63
(lp3833
g56
(g77
g58
NtRp3834
(dp3835
g61
(dp3836
sg70
g3830
sg63
(lp3837
g56
(g57
g58
NtRp3838
(dp3839
g61
(dp3840
g69
I2
ssg70
g3834
sg63
(lp3841
g56
(g65
g58
NtRp3842
(dp3843
g61
(dp3844
g69
I1
ssg70
Nsg63
(lp3845
g56
(g72
g58
NtRp3846
(dp3847
g61
(dp3848
sg70
g3842
sg63
(lp3849
g56
(g77
g58
NtRp3850
(dp3851
g61
(dp3852
sg70
g3846
sg63
(lp3853
g56
(g57
g58
NtRp3854
(dp3855
g61
(dp3856
g69
I1
ssg70
g3850
sg63
(lp3857
g2992
(S't\x06\x00\x00\x00Web2py'
tRp3858
asbasbasbag56
(g72
g58
NtRp3859
(dp3860
g61
(dp3861
sg70
g3842
sg63
(lp3862
g56
(g77
g58
NtRp3863
(dp3864
g61
(dp3865
sg70
g3859
sg63
(lp3866
g56
(g57
g58
NtRp3867
(dp3868
g61
(dp3869
g69
I1
ssg70
g3863
sg63
(lp3870
I00
asbasbasbag56
(g72
g58
NtRp3871
(dp3872
g61
(dp3873
sg70
g3842
sg63
(lp3874
g56
(g77
g58
NtRp3875
(dp3876
g61
(dp3877
sg70
g3871
sg63
(lp3878
g56
(g57
g58
NtRp3879
(dp3880
g61
(dp3881
g69
I1
ssg70
g3875
sg63
(lp3882
S'http://www.web2py.com'
p3883
asbasbasbag56
(g72
g58
NtRp3884
(dp3885
g61
(dp3886
sg70
g3842
sg63
(lp3887
g56
(g77
g58
NtRp3888
(dp3889
g61
(dp3890
sg70
g3884
sg63
(lp3891
g56
(g57
g58
NtRp3892
(dp3893
g61
(dp3894
g69
I1
ssg70
g3888
sg63
(lp3895
(lp3896
(g2992
(S't\x08\x00\x00\x00Download'
tRp3897
I00
S'http://www.web2py.com/examples/default/download'
tp3898
a(g2992
(S't\x07\x00\x00\x00Support'
tRp3899
I00
S'http://www.web2py.com/examples/default/support'
tp3900
a(g2992
(S's\x0e\x00\x00\x00Quick Examples'
tRp3901
I00
S'http://web2py.com/examples/default/examples'
tp3902
a(g2992
(S't\x03\x00\x00\x00FAQ'
tRp3903
I00
S'http://web2py.com/AlterEgo'
tp3904
a(g2992
(S's\x11\x00\x00\x00Free Applications'
tRp3905
I00
S'http://web2py.com/appliances'
tp3906
a(g2992
(S't\x07\x00\x00\x00Plugins'
tRp3907
I00
S'http://web2py.com/plugins'
tp3908
a(g2992
(S't\x07\x00\x00\x00Recipes'
tRp3909
I00
S'http://web2pyslices.com/'
tp3910
a(g2992
(S't\x04\x00\x00\x00Demo'
tRp3911
I00
S'http://web2py.com/demo_admin'
tp3912
a(g2992
(S't\x08\x00\x00\x00Semantic'
tRp3913
I00
S'http://web2py.com/semantic'
tp3914
a(g2992
(S't\x07\x00\x00\x00Layouts'
tRp3915
I00
S'http://web2py.com/layouts'
tp3916
a(g2992
(S't\x06\x00\x00\x00Videos'
tRp3917
I00
S'http://www.web2py.com/examples/default/videos/'
tp3918
aasbasbasbasbasbasbasbasbasbasbasbasbasbasbasbasbasbasbasbag56
(g72
g58
NtRp3919
(dp3920
g61
(dp3921
sg70
g2487
sg63
(lp3922
g56
(g77
g58
NtRp3923
(dp3924
g61
(dp3925
g81
g82
ssg70
g3919
sg63
(lp3926
S'meta'
p3927
asbag56
(g77
g58
NtRp3928
(dp3929
g61
(dp3930
g88
g89
ssg70
g3919
sg63
(lp3931
S':'
asbag56
(g77
g58
NtRp3932
(dp3933
g61
(dp3934
sg70
g3919
sg63
(lp3935
g56
(g57
g58
NtRp3936
(dp3937
g61
(dp3938
g69
I5
ssg70
g3932
sg63
(lp3939
g56
(g65
g58
NtRp3940
(dp3941
g61
(dp3942
g69
I4
ssg70
Nsg63
(lp3943
g56
(g72
g58
NtRp3944
(dp3945
g61
(dp3946
sg70
g3940
sg63
(lp3947
g56
(g77
g58
NtRp3948
(dp3949
g61
(dp3950
g81
g82
ssg70
g3944
sg63
(lp3951
S'author'
p3952
asbag56
(g77
g58
NtRp3953
(dp3954
g61
(dp3955
g88
g89
ssg70
g3944
sg63
(lp3956
S':'
asbag56
(g77
g58
NtRp3957
(dp3958
g61
(dp3959
sg70
g3944
sg63
(lp3960
g56
(g57
g58
NtRp3961
(dp3962
g61
(dp3963
g69
I4
ssg70
g3957
sg63
(lp3964
S'you'
p3965
asbasbasbag56
(g72
g58
NtRp3966
(dp3967
g61
(dp3968
sg70
g3940
sg63
(lp3969
g56
(g77
g58
NtRp3970
(dp3971
g61
(dp3972
g81
g82
ssg70
g3966
sg63
(lp3973
S'copyright'
p3974
asbag56
(g77
g58
NtRp3975
(dp3976
g61
(dp3977
g88
g89
ssg70
g3966
sg63
(lp3978
S':'
asbag56
(g77
g58
NtRp3979
(dp3980
g61
(dp3981
sg70
g3966
sg63
(lp3982
g56
(g57
g58
NtRp3983
(dp3984
g61
(dp3985
g69
I4
ssg70
g3979
sg63
(lp3986
S'Copyright 2007-2010'
p3987
asbasbasbag56
(g72
g58
NtRp3988
(dp3989
g61
(dp3990
sg70
g3940
sg63
(lp3991
g56
(g77
g58
NtRp3992
(dp3993
g61
(dp3994
g81
g82
ssg70
g3988
sg63
(lp3995
S'description'
p3996
asbag56
(g77
g58
NtRp3997
(dp3998
g61
(dp3999
g88
g89
ssg70
g3988
sg63
(lp4000
S':'
asbag56
(g77
g58
NtRp4001
(dp4002
g61
(dp4003
sg70
g3988
sg63
(lp4004
g56
(g57
g58
NtRp4005
(dp4006
g61
(dp4007
g69
I4
ssg70
g4001
sg63
(lp4008
S'Free and open source full-stack enterprise framework for agile development of fast, scalable, secure and portable database-driven web-based applications. Written and programmable in Python'
p4009
asbasbasbag56
(g72
g58
NtRp4010
(dp4011
g61
(dp4012
sg70
g3940
sg63
(lp4013
g56
(g77
g58
NtRp4014
(dp4015
g61
(dp4016
g81
g82
ssg70
g4010
sg63
(lp4017
S'generator'
p4018
asbag56
(g77
g58
NtRp4019
(dp4020
g61
(dp4021
g88
g89
ssg70
g4010
sg63
(lp4022
S':'
asbag56
(g77
g58
NtRp4023
(dp4024
g61
(dp4025
sg70
g4010
sg63
(lp4026
g56
(g57
g58
NtRp4027
(dp4028
g61
(dp4029
g69
I4
ssg70
g4023
sg63
(lp4030
S'Web2py Enterprise Framework'
p4031
asbasbasbag56
(g72
g58
NtRp4032
(dp4033
g61
(dp4034
sg70
g3940
sg63
(lp4035
g56
(g77
g58
NtRp4036
(dp4037
g61
(dp4038
g81
g82
ssg70
g4032
sg63
(lp4039
S'keywords'
p4040
asbag56
(g77
g58
NtRp4041
(dp4042
g61
(dp4043
g88
g89
ssg70
g4032
sg63
(lp4044
S':'
asbag56
(g77
g58
NtRp4045
(dp4046
g61
(dp4047
sg70
g4032
sg63
(lp4048
g56
(g57
g58
NtRp4049
(dp4050
g61
(dp4051
g69
I4
ssg70
g4045
sg63
(lp4052
S'web2py, python, framework'
p4053
asbasbasbasbasbasbasbag56
(g72
g58
NtRp4054
(dp4055
g61
(dp4056
sg70
g2487
sg63
(lp4057
g56
(g77
g58
NtRp4058
(dp4059
g61
(dp4060
g81
g82
ssg70
g4054
sg63
(lp4061
S'postprocessing'
p4062
asbag56
(g77
g58
NtRp4063
(dp4064
g61
(dp4065
g88
g89
ssg70
g4054
sg63
(lp4066
S':'
asbag56
(g77
g58
NtRp4067
(dp4068
g61
(dp4069
sg70
g4054
sg63
(lp4070
g56
(g57
g58
NtRp4071
(dp4072
g61
(dp4073
g69
I5
ssg70
g4067
sg63
(lp4074
g56
(g65
g58
NtRp4075
(dp4076
g61
(dp4077
g69
I4
ssg70
Nsg63
(lp4078
sbasbasbasbag56
(g72
g58
NtRp4079
(dp4080
g61
(dp4081
sg70
g2487
sg63
(lp4082
g56
(g77
g58
NtRp4083
(dp4084
g61
(dp4085
g81
g82
ssg70
g4079
sg63
(lp4086
S'session_filename'
p4087
asbag56
(g77
g58
NtRp4088
(dp4089
g61
(dp4090
g88
g89
ssg70
g4079
sg63
(lp4091
S':'
asbag56
(g77
g58
NtRp4092
(dp4093
g61
(dp4094
sg70
g4079
sg63
(lp4095
g56
(g57
g58
NtRp4096
(dp4097
g61
(dp4098
g69
I5
ssg70
g4092
sg63
(lp4099
S'/Users/ilustre/development/repo/jittest/web2py/applications/infovis/sessions/127.0.0.1-bb3f2f53-7120-4e4d-98e4-5a213d8d3522'
p4100
asbasbasbag56
(g72
g58
NtRp4101
(dp4102
g61
(dp4103
sg70
g2487
sg63
(lp4104
g56
(g77
g58
NtRp4105
(dp4106
g61
(dp4107
g81
g82
ssg70
g4101
sg63
(lp4108
S'session_id'
p4109
asbag56
(g77
g58
NtRp4110
(dp4111
g61
(dp4112
g88
g89
ssg70
g4101
sg63
(lp4113
S':'
asbag56
(g77
g58
NtRp4114
(dp4115
g61
(dp4116
sg70
g4101
sg63
(lp4117
g56
(g57
g58
NtRp4118
(dp4119
g61
(dp4120
g69
I5
ssg70
g4114
sg63
(lp4121
S'127.0.0.1-bb3f2f53-7120-4e4d-98e4-5a213d8d3522'
p4122
asbasbasbag56
(g72
g58
NtRp4123
(dp4124
g61
(dp4125
sg70
g2487
sg63
(lp4126
g56
(g77
g58
NtRp4127
(dp4128
g61
(dp4129
g81
g82
ssg70
g4123
sg63
(lp4130
S'session_id_name'
p4131
asbag56
(g77
g58
NtRp4132
(dp4133
g61
(dp4134
g88
g89
ssg70
g4123
sg63
(lp4135
S':'
asbag56
(g77
g58
NtRp4136
(dp4137
g61
(dp4138
sg70
g4123
sg63
(lp4139
g56
(g57
g58
NtRp4140
(dp4141
g61
(dp4142
g69
I5
ssg70
g4136
sg63
(lp4143
g2544
asbasbasbag56
(g72
g58
NtRp4144
(dp4145
g61
(dp4146
sg70
g2487
sg63
(lp4147
g56
(g77
g58
NtRp4148
(dp4149
g61
(dp4150
g81
g82
ssg70
g4144
sg63
(lp4151
S'session_new'
p4152
asbag56
(g77
g58
NtRp4153
(dp4154
g61
(dp4155
g88
g89
ssg70
g4144
sg63
(lp4156
S':'
asbag56
(g77
g58
NtRp4157
(dp4158
g61
(dp4159
sg70
g4144
sg63
(lp4160
g56
(g57
g58
NtRp4161
(dp4162
g61
(dp4163
g69
I5
ssg70
g4157
sg63
(lp4164
g1405
asbasbasbag56
(g72
g58
NtRp4165
(dp4166
g61
(dp4167
sg70
g2487
sg63
(lp4168
g56
(g77
g58
NtRp4169
(dp4170
g61
(dp4171
g81
g82
ssg70
g4165
sg63
(lp4172
S'status'
p4173
asbag56
(g77
g58
NtRp4174
(dp4175
g61
(dp4176
g88
g89
ssg70
g4165
sg63
(lp4177
S':'
asbag56
(g77
g58
NtRp4178
(dp4179
g61
(dp4180
sg70
g4165
sg63
(lp4181
g56
(g57
g58
NtRp4182
(dp4183
g61
(dp4184
g69
I5
ssg70
g4178
sg63
(lp4185
S'200'
p4186
asbasbasbag56
(g72
g58
NtRp4187
(dp4188
g61
(dp4189
sg70
g2487
sg63
(lp4190
g56
(g77
g58
NtRp4191
(dp4192
g61
(dp4193
g81
g82
ssg70
g4187
sg63
(lp4194
S'subtitle'
p4195
asbag56
(g77
g58
NtRp4196
(dp4197
g61
(dp4198
g88
g89
ssg70
g4187
sg63
(lp4199
S':'
asbag56
(g77
g58
NtRp4200
(dp4201
g61
(dp4202
sg70
g4187
sg63
(lp4203
g56
(g57
g58
NtRp4204
(dp4205
g61
(dp4206
g69
I5
ssg70
g4200
sg63
(lp4207
g2992
(S's\r\x00\x00\x00customize me!'
tRp4208
asbasbasbag56
(g72
g58
NtRp4209
(dp4210
g61
(dp4211
sg70
g2487
sg63
(lp4212
g56
(g77
g58
NtRp4213
(dp4214
g61
(dp4215
g81
g82
ssg70
g4209
sg63
(lp4216
S'title'
p4217
asbag56
(g77
g58
NtRp4218
(dp4219
g61
(dp4220
g88
g89
ssg70
g4209
sg63
(lp4221
S':'
asbag56
(g77
g58
NtRp4222
(dp4223
g61
(dp4224
sg70
g4209
sg63
(lp4225
g56
(g57
g58
NtRp4226
(dp4227
g61
(dp4228
g69
I5
ssg70
g4222
sg63
(lp4229
g121
asbasbasbag56
(g72
g58
NtRp4230
(dp4231
g61
(dp4232
sg70
g2487
sg63
(lp4233
g56
(g77
g58
NtRp4234
(dp4235
g61
(dp4236
g81
g82
ssg70
g4230
sg63
(lp4237
g1729
asbag56
(g77
g58
NtRp4238
(dp4239
g61
(dp4240
g88
g89
ssg70
g4230
sg63
(lp4241
S':'
asbag56
(g77
g58
NtRp4242
(dp4243
g61
(dp4244
sg70
g4230
sg63
(lp4245
g56
(g57
g58
NtRp4246
(dp4247
g61
(dp4248
g69
I5
ssg70
g4242
sg63
(lp4249
g1742
asbasbasbag56
(g72
g58
NtRp4250
(dp4251
g61
(dp4252
sg70
g2487
sg63
(lp4253
g56
(g77
g58
NtRp4254
(dp4255
g61
(dp4256
g81
g82
ssg70
g4250
sg63
(lp4257
S'view'
p4258
asbag56
(g77
g58
NtRp4259
(dp4260
g61
(dp4261
g88
g89
ssg70
g4250
sg63
(lp4262
S':'
asbag56
(g77
g58
NtRp4263
(dp4264
g61
(dp4265
sg70
g4250
sg63
(lp4266
g56
(g57
g58
NtRp4267
(dp4268
g61
(dp4269
g69
I5
ssg70
g4263
sg63
(lp4270
S'visual/treemap.html'
p4271
asbasbasbasbasbsS'locals'
p4272
(dp4273
S'json'
p4274
S"<module 'json' from '/Library/Frameworks/Python....rk/Versions/2.7/lib/python2.7/json/__init__.pyc'>"
p4275
sS'r'
S'\'{\\n    "children": [\\n        {\\n            "child..."ilustreWebTest", \\n    "name": "ilustreWebTest"\\n}\''
p4276
sS't'
S"{'children': [{'children': [{'children': [{...}], 'data': {'$area': 50, '$color': '#906E32'}, 'id': 'ilustreWebTest.20110805.soqrates', 'name': 'soqrates'}], 'data': {'$area': 50, '$color': '#906E32'}, 'id': 'ilustreWebTest.20110805', 'name': '20110805'}], 'data': {'$area': 50, '$color': '#906E32'}, 'id': 'ilustreWebTest', 'name': 'ilustreWebTest'}"
p4277
sssS'traceback'
p4278
S'Traceback (most recent call last):\n  File "/Users/ilustre/development/repo/jittest/web2py/gluon/restricted.py", line 192, in restricted\n    exec ccode in environment\n  File "/Users/ilustre/development/repo/jittest/web2py/applications/infovis/controllers/visual.py", line 976, in <module>\n  File "/Users/ilustre/development/repo/jittest/web2py/gluon/globals.py", line 145, in <lambda>\n    self._caller = lambda f: f()\n  File "/Users/ilustre/development/repo/jittest/web2py/applications/infovis/controllers/visual.py", line 50, in treemap\n    return dict(message=x)\nNameError: global name \'x\' is not defined\n'
p4279
s.