(dp1
S'output'
p2
S''
sS'layer'
p3
S'/Users/ilustre/development/repo/jittest/web2py/applications/infovis/controllers/visual.py'
p4
sS'code'
p5
S'# -*- coding: utf-8 -*-\n# this file is released under public domain and you can use without limitations\n\n#########################################################################\n## This is a samples controller\n## - index is the default action of any application\n## - user is required for authentication and authorization\n## - download is for downloading files uploaded in the db (does streaming)\n## - call exposes all registered services (none by default)\n#########################################################################\nEXAMPLE = \'ilustreWebTest.20110805.soqrates.SS.trdmsq_wait\'\nxxx = """\n{  \n  "children": [  \n   {  \n     "children": [  \n       {  \n         "children": [],   \n         "data": {  \n           "playcount": "276",   \n           "$color": "#8E7032",   \n           "image": "http://userserve-ak.last.fm/serve/300x300/11403219.jpg",   \n           "$area": 276  \n         },   \n         "id": "album-Thirteenth Step",   \n         "name": "Thirteenth Step"  \n       },   \n       {  \n         "children": [],   \n         "data": {  \n           "playcount": "271",   \n           "$color": "#906E32",   \n           "image": "http://userserve-ak.last.fm/serve/300x300/11393921.jpg",   \n           "$area": 271  \n         },   \n         "id": "album-Mer De Noms",   \n         "name": "Mer De Noms"  \n       }  \n     ],   \n     "data": {  \n       "playcount": 547,   \n       "$area": 547  \n     },   \n     "id": "artist_A Perfect Circle",   \n     "name": "A Perfect Circle"  \n   },   \n   {  \n     "children": [  \n       {  \n         "children": [],   \n         "data": {  \n           "playcount": "209",   \n           "$color": "#AA5532",   \n           "image": "http://userserve-ak.last.fm/serve/300x300/32349839.jpg",   \n           "$area": 209  \n         },   \n         "id": "album-Above",   \n         "name": "Above"  \n       }  \n     ],   \n     "data": {  \n       "playcount": 209,   \n       "$area": 209  \n     },   \n     "id": "artist_Mad Season",   \n     "name": "Mad Season"  \n   },   \n   {  \n     "children": [  \n       {  \n         "children": [],   \n         "data": {  \n           "playcount": "260",   \n           "$color": "#956932",   \n           "image": "http://userserve-ak.last.fm/serve/300x300/38753425.jpg",   \n           "$area": 260  \n         },   \n         "id": "album-Tiny Music... Songs From the Vatican Gift Shop",   \n         "name": "Tiny Music... Songs From the Vatican Gift Shop"  \n       },   \n       {  \n         "children": [],   \n         "data": {  \n           "playcount": "254",   \n           "$color": "#976732",   \n           "image": "http://images.amazon.com/images/P/B000002IU3.01.LZZZZZZZ.jpg",   \n           "$area": 254  \n         },   \n         "id": "album-Core",   \n         "name": "Core"  \n       }  \n     ],   \n     "data": {  \n       "playcount": 514,   \n       "$area": 514  \n     },   \n     "id": "artist_Stone Temple Pilots",   \n     "name": "Stone Temple Pilots"  \n   },   \n   {  \n     "children": [  \n       {  \n         "children": [],   \n         "data": {  \n           "playcount": "181",   \n           "$color": "#B54932",   \n           "image": "http://userserve-ak.last.fm/serve/300x300/8673371.jpg",   \n           "$area": 181  \n         },   \n         "id": "album-The Science of Things",   \n         "name": "The Science of Things"  \n       }  \n     ],   \n     "data": {  \n       "playcount": 181,   \n       "$area": 181  \n     },   \n     "id": "artist_Bush",   \n     "name": "Bush"  \n   },   \n   {  \n     "children": [  \n       {  \n         "children": [],   \n         "data": {  \n           "playcount": "229",   \n           "$color": "#A15D32",   \n           "image": "http://userserve-ak.last.fm/serve/300x300/32579429.jpg",   \n           "$area": 229  \n         },   \n         "id": "album-Echoes, Silence, Patience &amp; Grace",   \n         "name": "Echoes, Silence, Patience &amp; Grace"  \n       },   \n       {  \n         "children": [],   \n         "data": {  \n           "playcount": "185",   \n           "$color": "#B34B32",   \n           "image": "http://images.amazon.com/images/P/B0009HLDFU.01.MZZZZZZZ.jpg",   \n           "$area": 185  \n         },   \n         "id": "album-In Your Honor (disc 2)",   \n         "name": "In Your Honor (disc 2)"  \n       }  \n     ],   \n     "data": {  \n       "playcount": 414,   \n       "$area": 414  \n     },   \n     "id": "artist_Foo Fighters",   \n     "name": "Foo Fighters"  \n   },   \n   {  \n     "children": [  \n       {  \n         "children": [],   \n         "data": {  \n           "playcount": "398",   \n           "$color": "#5DA132",   \n           "image": "http://images.amazon.com/images/P/B00005LNP5.01._SCMZZZZZZZ_.jpg",   \n           "$area": 398  \n         },   \n         "id": "album-Elija Y Gane",   \n         "name": "Elija Y Gane"  \n       },   \n       {  \n         "children": [],   \n         "data": {  \n           "playcount": "203",   \n           "$color": "#AC5232",   \n           "image": "http://images.amazon.com/images/P/B0000B193V.01._SCMZZZZZZZ_.jpg",   \n           "$area": 203  \n         },   \n         "id": "album-Para los Arboles",   \n         "name": "Para los Arboles"  \n       }  \n     ],   \n     "data": {  \n       "playcount": 601,   \n       "$area": 601  \n     },   \n     "id": "artist_Luis Alberto Spinetta",   \n     "name": "Luis Alberto Spinetta"  \n   },   \n   {  \n     "children": [  \n       {  \n         "children": [],   \n         "data": {  \n           "playcount": "224",   \n           "$color": "#A35B32",   \n           "image": "http://userserve-ak.last.fm/serve/300x300/26497553.jpg",   \n           "$area": 224  \n         },   \n         "id": "album-Music Bank",   \n         "name": "Music Bank"  \n       },   \n       {  \n         "children": [],   \n         "data": {  \n           "playcount": "217",   \n           "$color": "#A65832",   \n           "image": "http://images.amazon.com/images/P/B0000296JW.01.MZZZZZZZ.jpg",   \n           "$area": 217  \n         },   \n         "id": "album-Music Bank (disc 1)",   \n         "name": "Music Bank (disc 1)"  \n       },   \n       {  \n         "children": [],   \n         "data": {  \n           "playcount": "215",   \n           "$color": "#A75732",   \n           "image": "http://images.amazon.com/images/P/B0000296JW.01.MZZZZZZZ.jpg",   \n           "$area": 215  \n         },   \n         "id": "album-Music Bank (disc 2)",   \n         "name": "Music Bank (disc 2)"  \n       },   \n       {  \n         "children": [],   \n         "data": {  \n           "playcount": "181",   \n           "$color": "#B54932",   \n           "image": "http://images.amazon.com/images/P/B0000296JW.01.MZZZZZZZ.jpg",   \n           "$area": 181  \n         },   \n         "id": "album-Music Bank (disc 3)",   \n         "name": "Music Bank (disc 3)"  \n       }  \n     ],   \n     "data": {  \n       "playcount": 837,   \n       "$area": 837  \n     },   \n     "id": "artist_Alice in Chains",   \n     "name": "Alice in Chains"  \n   },   \n   {  \n     "children": [  \n       {  \n         "children": [],   \n         "data": {  \n           "playcount": "627",   \n           "$color": "#00FF32",   \n           "image": "http://userserve-ak.last.fm/serve/300x300/8480501.jpg",   \n           "$area": 627  \n         },   \n         "id": "album-10,000 Days",   \n         "name": "10,000 Days"  \n       }  \n     ],   \n     "data": {  \n       "playcount": 627,   \n       "$area": 627  \n     },   \n     "id": "artist_Tool",   \n     "name": "Tool"  \n   },   \n   {  \n     "children": [  \n       {  \n         "children": [],   \n         "data": {  \n           "playcount": "261",   \n           "$color": "#946A32",   \n           "image": "http://cdn.last.fm/flatness/catalogue/noimage/2/default_album_medium.png",   \n           "$area": 261  \n         },   \n         "id": "album-2006-09-07: O-Bar, Stockholm, Sweden",   \n         "name": "2006-09-07: O-Bar, Stockholm, Sweden"  \n       },   \n       {  \n         "children": [],   \n         "data": {  \n           "playcount": "211",   \n           "$color": "#A95532",   \n           "image": "http://userserve-ak.last.fm/serve/300x300/25402479.jpg",   \n           "$area": 211  \n         },   \n         "id": "album-Lost and Found",   \n         "name": "Lost and Found"  \n       }  \n     ],   \n     "data": {  \n       "playcount": 472,   \n       "$area": 472  \n     },   \n     "id": "artist_Chris Cornell",   \n     "name": "Chris Cornell"  \n   },   \n   {  \n     "children": [  \n       {  \n         "children": [],   \n         "data": {  \n           "playcount": "197",   \n           "$color": "#AE5032",   \n           "image": "http://userserve-ak.last.fm/serve/300x300/8634627.jpg",   \n           "$area": 197  \n         },   \n         "id": "album-The Sickness",   \n         "name": "The Sickness"  \n       }  \n     ],   \n     "data": {  \n       "playcount": 197,   \n       "$area": 197  \n     },   \n     "id": "artist_Disturbed",   \n     "name": "Disturbed"  \n   },   \n   {  \n     "children": [  \n       {  \n         "children": [],   \n         "data": {  \n           "playcount": "493",   \n           "$color": "#36C832",   \n           "image": "http://userserve-ak.last.fm/serve/300x300/8591345.jpg",   \n           "$area": 493  \n         },   \n         "id": "album-Mama\'s Gun",   \n         "name": "Mama\'s Gun"  \n       }  \n     ],   \n     "data": {  \n       "playcount": 493,   \n       "$area": 493  \n     },   \n     "id": "artist_Erykah Badu",   \n     "name": "Erykah Badu"  \n   },   \n   {  \n     "children": [  \n       {  \n         "children": [],   \n         "data": {  \n           "playcount": "249",   \n           "$color": "#996532",   \n           "image": "http://userserve-ak.last.fm/serve/300x300/32070871.jpg",   \n           "$area": 249  \n         },   \n         "id": "album-Audioslave",   \n         "name": "Audioslave"  \n       }  \n     ],   \n     "data": {  \n       "playcount": 249,   \n       "$area": 249  \n     },   \n     "id": "artist_Audioslave",   \n     "name": "Audioslave"  \n   },   \n   {  \n     "children": [  \n       {  \n         "children": [],   \n         "data": {  \n           "playcount": "359",   \n           "$color": "#6C9232",   \n           "image": "http://userserve-ak.last.fm/serve/300x300/15858421.jpg",   \n           "$area": 359  \n         },   \n         "id": "album-Comfort y M\\u00fasica Para Volar",   \n         "name": "Comfort y M\\u00fasica Para Volar"  \n       }  \n     ],   \n     "data": {  \n       "playcount": 359,   \n       "$area": 359  \n     },   \n     "id": "artist_Soda Stereo",   \n     "name": "Soda Stereo"  \n   },   \n   {  \n     "children": [  \n       {  \n         "children": [],   \n         "data": {  \n           "playcount": "302",   \n           "$color": "#847A32",   \n           "image": "http://userserve-ak.last.fm/serve/300x300/8776205.jpg",   \n           "$area": 302  \n         },   \n         "id": "album-Clearing the Channel",   \n         "name": "Clearing the Channel"  \n       }  \n     ],   \n     "data": {  \n       "playcount": 302,   \n       "$area": 302  \n     },   \n     "id": "artist_Sinch",   \n     "name": "Sinch"  \n   },   \n   {  \n     "children": [  \n       {  \n         "children": [],   \n         "data": {  \n           "playcount": "177",   \n           "$color": "#B74732",   \n           "image": "http://userserve-ak.last.fm/serve/300x300/32457599.jpg",   \n           "$area": 177  \n         },   \n         "id": "album-Crash",   \n         "name": "Crash"  \n       }  \n     ],   \n     "data": {  \n       "playcount": 177,   \n       "$area": 177  \n     },   \n     "id": "artist_Dave Matthews Band",   \n     "name": "Dave Matthews Band"  \n   },   \n   {  \n     "children": [  \n       {  \n         "children": [],   \n         "data": {  \n           "playcount": "207",   \n           "$color": "#AA5432",   \n           "image": "http://userserve-ak.last.fm/serve/300x300/30352203.jpg",   \n           "$area": 207  \n         },   \n         "id": "album-Vs.",   \n         "name": "Vs."  \n       }  \n     ],   \n     "data": {  \n       "playcount": 207,   \n       "$area": 207  \n     },   \n     "id": "artist_Pearl Jam",   \n     "name": "Pearl Jam"  \n   },   \n   {  \n     "children": [  \n       {  \n         "children": [],   \n         "data": {  \n           "playcount": "486",   \n           "$color": "#39C532",   \n           "image": "http://userserve-ak.last.fm/serve/300x300/26053425.jpg",   \n           "$area": 486  \n         },   \n         "id": "album-It All Makes Sense Now",   \n         "name": "It All Makes Sense Now"  \n       },   \n       {  \n         "children": [],   \n         "data": {  \n           "playcount": "251",   \n           "$color": "#986632",   \n           "image": "http://userserve-ak.last.fm/serve/300x300/9658733.jpg",   \n           "$area": 251  \n         },   \n         "id": "album-Air",   \n         "name": "Air"  \n       }  \n     ],   \n     "data": {  \n       "playcount": 737,   \n       "$area": 737  \n     },   \n     "id": "artist_Kr\\u00f8m",   \n     "name": "Kr\\u00f8m"  \n   },   \n   {  \n     "children": [  \n       {  \n         "children": [],   \n         "data": {  \n           "playcount": "345",   \n           "$color": "#728C32",   \n           "image": "http://userserve-ak.last.fm/serve/300x300/8605651.jpg",   \n           "$area": 345  \n         },   \n         "id": "album-Temple Of The Dog",   \n         "name": "Temple Of The Dog"  \n       }  \n     ],   \n     "data": {  \n       "playcount": 345,   \n       "$area": 345  \n     },   \n     "id": "artist_Temple of the Dog",   \n     "name": "Temple of the Dog"  \n   },   \n   {  \n     "children": [  \n       {  \n         "children": [],   \n         "data": {  \n           "playcount": "318",   \n           "$color": "#7D8132",   \n           "image": "http://userserve-ak.last.fm/serve/300x300/29274729.jpg",   \n           "$area": 318  \n         },   \n         "id": "album-And All That Could Have Been (Still)",   \n         "name": "And All That Could Have Been (Still)"  \n       }  \n     ],   \n     "data": {  \n       "playcount": 318,   \n       "$area": 318  \n     },   \n     "id": "artist_Nine Inch Nails",   \n     "name": "Nine Inch Nails"  \n   },   \n   {  \n     "children": [  \n       {  \n         "children": [],   \n         "data": {  \n           "playcount": "256",   \n           "$color": "#966832",   \n           "image": "http://userserve-ak.last.fm/serve/300x300/32595059.jpg",   \n           "$area": 256  \n         },   \n         "id": "album-Mamagubida",   \n         "name": "Mamagubida"  \n       },   \n       {  \n         "children": [],   \n         "data": {  \n           "playcount": "220",   \n           "$color": "#A55932",   \n           "image": "http://cdn.last.fm/flatness/catalogue/noimage/2/default_album_medium.png",   \n           "$area": 220  \n         },   \n         "id": "album-Reggae \\u00e0 Coup de Cirque",   \n         "name": "Reggae \\u00e0 Coup de Cirque"  \n       },   \n       {  \n         "children": [],   \n         "data": {  \n           "playcount": "181",   \n           "$color": "#B54932",   \n           "image": "http://userserve-ak.last.fm/serve/300x300/16799743.jpg",   \n           "$area": 181  \n         },   \n         "id": "album-Grain de sable",   \n         "name": "Grain de sable"  \n       }  \n     ],   \n     "data": {  \n       "playcount": 657,   \n       "$area": 657  \n     },   \n     "id": "artist_Tryo",   \n     "name": "Tryo"  \n   },   \n   {  \n     "children": [  \n       {  \n         "children": [],   \n         "data": {  \n           "playcount": "258",   \n           "$color": "#966832",   \n           "image": "http://cdn.last.fm/flatness/catalogue/noimage/2/default_album_medium.png",   \n           "$area": 258  \n         },   \n         "id": "album-Best Of",   \n         "name": "Best Of"  \n       },   \n       {  \n         "children": [],   \n         "data": {  \n           "playcount": "176",   \n           "$color": "#B74732",   \n           "image": "http://userserve-ak.last.fm/serve/300x300/5264426.jpg",   \n           "$area": 176  \n         },   \n         "id": "album-Robbin\' The Hood",   \n         "name": "Robbin\' The Hood"  \n       }  \n     ],   \n     "data": {  \n       "playcount": 434,   \n       "$area": 434  \n     },   \n     "id": "artist_Sublime",   \n     "name": "Sublime"  \n   },   \n   {  \n     "children": [  \n       {  \n         "children": [],   \n         "data": {  \n           "playcount": "418",   \n           "$color": "#55AA32",   \n           "image": "http://userserve-ak.last.fm/serve/300x300/8590493.jpg",   \n           "$area": 418  \n         },   \n         "id": "album-One Hot Minute",   \n         "name": "One Hot Minute"  \n       }  \n     ],   \n     "data": {  \n       "playcount": 418,   \n       "$area": 418  \n     },   \n     "id": "artist_Red Hot Chili Peppers",   \n     "name": "Red Hot Chili Peppers"  \n   },   \n   {  \n     "children": [  \n       {  \n         "children": [],   \n         "data": {  \n           "playcount": "275",   \n           "$color": "#8F6F32",   \n           "image": "http://userserve-ak.last.fm/serve/300x300/17597653.jpg",   \n           "$area": 275  \n         },   \n         "id": "album-Chinese Democracy",   \n         "name": "Chinese Democracy"  \n       },   \n       {  \n         "children": [],   \n         "data": {  \n           "playcount": "203",   \n           "$color": "#AC5232",   \n           "image": "http://userserve-ak.last.fm/serve/300x300/15231979.jpg",   \n           "$area": 203  \n         },   \n         "id": "album-Use Your Illusion II",   \n         "name": "Use Your Illusion II"  \n       }  \n     ],   \n     "data": {  \n       "playcount": 478,   \n       "$area": 478  \n     },   \n     "id": "artist_Guns N\' Roses",   \n     "name": "Guns N\' Roses"  \n   },   \n   {  \n     "children": [  \n       {  \n         "children": [],   \n         "data": {  \n           "playcount": "208",   \n           "$color": "#AA5432",   \n           "image": "http://images.amazon.com/images/P/B0007LCNNE.01.MZZZZZZZ.jpg",   \n           "$area": 208  \n         },   \n         "id": "album-Tales of the Forgotten Melodies",   \n         "name": "Tales of the Forgotten Melodies"  \n       }  \n     ],   \n     "data": {  \n       "playcount": 208,   \n       "$area": 208  \n     },   \n     "id": "artist_Wax Tailor",   \n     "name": "Wax Tailor"  \n   },   \n   {  \n     "children": [  \n       {  \n         "children": [],   \n         "data": {  \n           "playcount": "208",   \n           "$color": "#AA5432",   \n           "image": "http://userserve-ak.last.fm/serve/300x300/7862623.png",   \n           "$area": 208  \n         },   \n         "id": "album-In Rainbows",   \n         "name": "In Rainbows"  \n       }  \n     ],   \n     "data": {  \n       "playcount": 208,   \n       "$area": 208  \n     },   \n     "id": "artist_Radiohead",   \n     "name": "Radiohead"  \n   },   \n   {  \n     "children": [  \n       {  \n         "children": [],   \n         "data": {  \n           "playcount": "317",   \n           "$color": "#7E8032",   \n           "image": "http://userserve-ak.last.fm/serve/300x300/8600371.jpg",   \n           "$area": 317  \n         },   \n         "id": "album-Down On The Upside",   \n         "name": "Down On The Upside"  \n       },   \n       {  \n         "children": [],   \n         "data": {  \n           "playcount": "290",   \n           "$color": "#897532",   \n           "image": "http://userserve-ak.last.fm/serve/300x300/8590515.jpg",   \n           "$area": 290  \n         },   \n         "id": "album-Superunknown",   \n         "name": "Superunknown"  \n       }  \n     ],   \n     "data": {  \n       "playcount": 607,   \n       "$area": 607  \n     },   \n     "id": "artist_Soundgarden",   \n     "name": "Soundgarden"  \n   },   \n   {  \n     "children": [  \n       {  \n         "children": [],   \n         "data": {  \n           "playcount": "247",   \n           "$color": "#9A6432",   \n           "image": "http://userserve-ak.last.fm/serve/300x300/15113951.jpg",   \n           "$area": 247  \n         },   \n         "id": "album-Nico",   \n         "name": "Nico"  \n       },   \n       {  \n         "children": [],   \n         "data": {  \n           "playcount": "218",   \n           "$color": "#A65832",   \n           "image": "http://userserve-ak.last.fm/serve/300x300/45729417.jpg",   \n           "$area": 218  \n         },   \n         "id": "album-Soup",   \n         "name": "Soup"  \n       },   \n       {  \n         "children": [],   \n         "data": {  \n           "playcount": "197",   \n           "$color": "#AE5032",   \n           "image": "http://images.amazon.com/images/P/B00005V5PW.01.MZZZZZZZ.jpg",   \n           "$area": 197  \n         },   \n         "id": "album-Classic Masters",   \n         "name": "Classic Masters"  \n       },   \n       {  \n         "children": [],   \n         "data": {  \n           "playcount": "194",   \n           "$color": "#B04E32",   \n           "image": "http://userserve-ak.last.fm/serve/300x300/15157989.jpg",   \n           "$area": 194  \n         },   \n         "id": "album-Blind Melon",   \n         "name": "Blind Melon"  \n       }  \n     ],   \n     "data": {  \n       "playcount": 856,   \n       "$area": 856  \n     },   \n     "id": "artist_Blind Melon",   \n     "name": "Blind Melon"  \n   },   \n   {  \n     "children": [  \n       {  \n         "children": [],   \n         "data": {  \n           "playcount": "537",   \n           "$color": "#24DA32",   \n           "image": "http://userserve-ak.last.fm/serve/300x300/17594883.jpg",   \n           "$area": 537  \n         },   \n         "id": "album-Make Yourself",   \n         "name": "Make Yourself"  \n       },   \n       {  \n         "children": [],   \n         "data": {  \n           "playcount": "258",   \n           "$color": "#966832",   \n           "image": "http://userserve-ak.last.fm/serve/300x300/31550385.jpg",   \n           "$area": 258  \n         },   \n         "id": "album-Light Grenades",   \n         "name": "Light Grenades"  \n       },   \n       {  \n         "children": [],   \n         "data": {  \n           "playcount": "181",   \n           "$color": "#B54932",   \n           "image": "http://userserve-ak.last.fm/serve/300x300/32309285.jpg",   \n           "$area": 181  \n         },   \n         "id": "album-Morning View",   \n         "name": "Morning View"  \n       }  \n     ],   \n     "data": {  \n       "playcount": 976,   \n       "$area": 976  \n     },   \n     "id": "artist_Incubus",   \n     "name": "Incubus"  \n   },   \n   {  \n     "children": [  \n       {  \n         "children": [],   \n         "data": {  \n           "playcount": "198",   \n           "$color": "#AE5032",   \n           "image": "http://userserve-ak.last.fm/serve/300x300/8599099.jpg",   \n           "$area": 198  \n         },   \n         "id": "album-On And On",   \n         "name": "On And On"  \n       },   \n       {  \n         "children": [],   \n         "data": {  \n           "playcount": "186",   \n           "$color": "#B34B32",   \n           "image": "http://userserve-ak.last.fm/serve/300x300/30082075.jpg",   \n           "$area": 186  \n         },   \n         "id": "album-Brushfire Fairytales",   \n         "name": "Brushfire Fairytales"  \n       }  \n     ],   \n     "data": {  \n       "playcount": 384,   \n       "$area": 384  \n     },   \n     "id": "artist_Jack Johnson",   \n     "name": "Jack Johnson"  \n   },   \n   {  \n     "children": [  \n       {  \n         "children": [],   \n         "data": {  \n           "playcount": "349",   \n           "$color": "#718D32",   \n           "image": "http://userserve-ak.last.fm/serve/300x300/21881921.jpg",   \n           "$area": 349  \n         },   \n         "id": "album-Mother Love Bone",   \n         "name": "Mother Love Bone"  \n       }  \n     ],   \n     "data": {  \n       "playcount": 349,   \n       "$area": 349  \n     },   \n     "id": "artist_Mother Love Bone",   \n     "name": "Mother Love Bone"  \n   }  \n ],   \n "data": {},   \n "id": "root",   \n "name": "Top Albums"  \n };  \n"""\n\ndef example(x):\n\n    nametoks = x.split(\'.\')\n    \n    d = None\n    \n    lastn = None\n    id_ = \'\'\n    for name in nametoks:\n        if id_ == \'\':\n            id_ = name\n        else:\n            id_ = id_ + \'.\' + name\n\n        n = {}\n        n[\'id\'] = id_\n        n[\'name\'] = name\n        n[\'children\'] = []\n        n[\'data\'] = {}\n        n[\'data\'][\'$area\'] = 50\n        n[\'data\'][\'$color\'] = "#906E32"\n\n        if d == None:\n            d = n\n        else:\n            lastn[\'children\'].append(n)\n        \n        lastn = n\n        \n        \n    return d\n\ndef treemap():\n    import json\n    t = example(EXAMPLE)\n    r = json.dumps(t, sort_keys=True, indent=4)\n    print r\n    return dict(message=r.replace("\\"","""))\n\ndef index():\n    """\n    example action using the internationalization operator T and flash\n    rendered by views/default/index.html or views/generic.html\n    """\n    return dict(message=T(\'Hello World\'))\n\ndef user():\n    """\n    exposes:\n    http://..../[app]/default/user/login\n    http://..../[app]/default/user/logout\n    http://..../[app]/default/user/register\n    http://..../[app]/default/user/profile\n    http://..../[app]/default/user/retrieve_password\n    http://..../[app]/default/user/change_password\n    use @auth.requires_login()\n        @auth.requires_membership(\'group name\')\n        @auth.requires_permission(\'read\',\'table name\',record_id)\n    to decorate functions that need access control\n    """\n    return dict(form=auth())\n\n\ndef download():\n    """\n    allows downloading of uploaded files\n    http://..../[app]/default/download/[filename]\n    """\n    return response.download(request,db)\n\n\ndef call():\n    """\n    exposes services. for example:\n    http://..../[app]/default/call/jsonrpc\n    decorate with @services.jsonrpc the functions to expose\n    supports xml, json, xmlrpc, jsonrpc, amfrpc, rss, csv\n    """\n    return service()\n\n\n@auth.requires_signature()\ndef data():\n    """\n    http://..../[app]/default/data/tables\n    http://..../[app]/default/data/create/[table]\n    http://..../[app]/default/data/read/[table]/[id]\n    http://..../[app]/default/data/update/[table]/[id]\n    http://..../[app]/default/data/delete/[table]/[id[\n    http://..../[app]/default/data/select/[table]\n    http://..../[app]/default/data/search/[table]\n    but URLs bust be signed, i.e. linked with\n      A(\'table\',_href=URL(\'data/tables\',user_signature=True))\n    or with the signed load operator\n      LOAD(\'default\',\'data.load\',args=\'tables\',ajax=True,user_signature=True)\n    """\n    return dict(form=crud())\n\n\n\n\n\n\n\nresponse._vars=response._caller(treemap)\n'
p6
sS'snapshot'
p7
(dp8
S'exception'
p9
(dp10
S'__getslice__'
p11
S"<method-wrapper '__getslice__' of exceptions.SyntaxError object>"
p12
sS'text'
p13
S"'    example action using the internationalization operator T and flash\\n'"
p14
sS'__str__'
p15
S"<method-wrapper '__str__' of exceptions.SyntaxError object>"
p16
sS'__reduce__'
p17
S'<built-in method __reduce__ of exceptions.SyntaxError object>'
p18
sS'__dict__'
p19
S'{}'
p20
sS'__sizeof__'
p21
S'<built-in method __sizeof__ of exceptions.SyntaxError object>'
p22
sS'__init__'
p23
S"<method-wrapper '__init__' of exceptions.SyntaxError object>"
p24
sS'__setattr__'
p25
S"<method-wrapper '__setattr__' of exceptions.SyntaxError object>"
p26
sS'__reduce_ex__'
p27
S'<built-in method __reduce_ex__ of exceptions.SyntaxError object>'
p28
sS'__new__'
p29
S'<built-in method __new__ of type object>'
p30
sS'__format__'
p31
S'<built-in method __format__ of exceptions.SyntaxError object>'
p32
sS'__class__'
p33
S"<type 'exceptions.SyntaxError'>"
p34
sS'filename'
p35
S"'/Users/ilustre/development/repo/jittest/web2py/applications/infovis/controllers/visual.py'"
p36
sS'lineno'
p37
S'913'
p38
sS'msg'
p39
S"'invalid syntax'"
p40
sS'__doc__'
p41
S"'Invalid syntax.'"
p42
sS'__getitem__'
p43
S"<method-wrapper '__getitem__' of exceptions.SyntaxError object>"
p44
sS'__setstate__'
p45
S'<built-in method __setstate__ of exceptions.SyntaxError object>'
p46
sS'__getattribute__'
p47
S"<method-wrapper '__getattribute__' of exceptions.SyntaxError object>"
p48
sS'print_file_and_line'
p49
S'None'
p50
sS'args'
p51
S"('invalid syntax', ('/Users/ilustre/development/repo/jittest/web2py/applications/infovis/controllers/visual.py', 913, 11, '    example action using the internationalization operator T and flash\\n'))"
p52
sS'__subclasshook__'
p53
S'<built-in method __subclasshook__ of type object>'
p54
sS'offset'
p55
S'11'
p56
sS'__unicode__'
p57
S'<built-in method __unicode__ of exceptions.SyntaxError object>'
p58
sS'__delattr__'
p59
S"<method-wrapper '__delattr__' of exceptions.SyntaxError object>"
p60
sS'__repr__'
p61
S"<method-wrapper '__repr__' of exceptions.SyntaxError object>"
p62
sS'__hash__'
p63
S"<method-wrapper '__hash__' of exceptions.SyntaxError object>"
p64
ssS'evalue'
p65
S'invalid syntax (visual.py, line 913)'
p66
sS'request'
p67
ccopy_reg
_reconstructor
p68
(cgluon.html
BEAUTIFY
p69
c__builtin__
object
p70
NtRp71
(dp72
S'attributes'
p73
(dp74
sS'components'
p75
(lp76
g68
(cgluon.html
TABLE
p77
g70
NtRp78
(dp79
g73
(dp80
S'level'
p81
I5
ssS'parent'
p82
Nsg75
(lp83
g68
(cgluon.html
TR
p84
g70
NtRp85
(dp86
g73
(dp87
sg82
g78
sg75
(lp88
g68
(cgluon.html
TD
p89
g70
NtRp90
(dp91
g73
(dp92
S'_style'
p93
S'font-weight:bold;'
p94
ssg82
g85
sg75
(lp95
S'ajax'
p96
asbag68
(g89
g70
NtRp97
(dp98
g73
(dp99
S'_valign'
p100
S'top'
p101
ssg82
g85
sg75
(lp102
S':'
asbag68
(g89
g70
NtRp103
(dp104
g73
(dp105
sg82
g85
sg75
(lp106
g68
(g69
g70
NtRp107
(dp108
g73
(dp109
g81
I5
ssg82
g103
sg75
(lp110
S'False'
p111
asbasbasbag68
(g84
g70
NtRp112
(dp113
g73
(dp114
sg82
g78
sg75
(lp115
g68
(g89
g70
NtRp116
(dp117
g73
(dp118
g93
g94
ssg82
g112
sg75
(lp119
S'application'
p120
asbag68
(g89
g70
NtRp121
(dp122
g73
(dp123
g100
g101
ssg82
g112
sg75
(lp124
S':'
asbag68
(g89
g70
NtRp125
(dp126
g73
(dp127
sg82
g112
sg75
(lp128
g68
(g69
g70
NtRp129
(dp130
g73
(dp131
g81
I5
ssg82
g125
sg75
(lp132
S'infovis'
p133
asbasbasbag68
(g84
g70
NtRp134
(dp135
g73
(dp136
sg82
g78
sg75
(lp137
g68
(g89
g70
NtRp138
(dp139
g73
(dp140
g93
g94
ssg82
g134
sg75
(lp141
g51
asbag68
(g89
g70
NtRp142
(dp143
g73
(dp144
g100
g101
ssg82
g134
sg75
(lp145
S':'
asbag68
(g89
g70
NtRp146
(dp147
g73
(dp148
sg82
g134
sg75
(lp149
g68
(g69
g70
NtRp150
(dp151
g73
(dp152
g81
I5
ssg82
g146
sg75
(lp153
g68
(g77
g70
NtRp154
(dp155
g73
(dp156
g81
I4
ssg82
Nsg75
(lp157
sbasbasbasbag68
(g84
g70
NtRp158
(dp159
g73
(dp160
sg82
g78
sg75
(lp161
g68
(g89
g70
NtRp162
(dp163
g73
(dp164
g93
g94
ssg82
g158
sg75
(lp165
S'body'
p166
asbag68
(g89
g70
NtRp167
(dp168
g73
(dp169
g100
g101
ssg82
g158
sg75
(lp170
S':'
asbag68
(g89
g70
NtRp171
(dp172
g73
(dp173
sg82
g158
sg75
(lp174
g68
(g69
g70
NtRp175
(dp176
g73
(dp177
g81
I5
ssg82
g171
sg75
(lp178
S'<cStringIO.StringO object at 0x101e21420>'
p179
asbasbasbag68
(g84
g70
NtRp180
(dp181
g73
(dp182
sg82
g78
sg75
(lp183
g68
(g89
g70
NtRp184
(dp185
g73
(dp186
g93
g94
ssg82
g180
sg75
(lp187
S'client'
p188
asbag68
(g89
g70
NtRp189
(dp190
g73
(dp191
g100
g101
ssg82
g180
sg75
(lp192
S':'
asbag68
(g89
g70
NtRp193
(dp194
g73
(dp195
sg82
g180
sg75
(lp196
g68
(g69
g70
NtRp197
(dp198
g73
(dp199
g81
I5
ssg82
g193
sg75
(lp200
S'127.0.0.1'
p201
asbasbasbag68
(g84
g70
NtRp202
(dp203
g73
(dp204
sg82
g78
sg75
(lp205
g68
(g89
g70
NtRp206
(dp207
g73
(dp208
g93
g94
ssg82
g202
sg75
(lp209
S'controller'
p210
asbag68
(g89
g70
NtRp211
(dp212
g73
(dp213
g100
g101
ssg82
g202
sg75
(lp214
S':'
asbag68
(g89
g70
NtRp215
(dp216
g73
(dp217
sg82
g202
sg75
(lp218
g68
(g69
g70
NtRp219
(dp220
g73
(dp221
g81
I5
ssg82
g215
sg75
(lp222
S'visual'
p223
asbasbasbag68
(g84
g70
NtRp224
(dp225
g73
(dp226
sg82
g78
sg75
(lp227
g68
(g89
g70
NtRp228
(dp229
g73
(dp230
g93
g94
ssg82
g224
sg75
(lp231
S'cookies'
p232
asbag68
(g89
g70
NtRp233
(dp234
g73
(dp235
g100
g101
ssg82
g224
sg75
(lp236
S':'
asbag68
(g89
g70
NtRp237
(dp238
g73
(dp239
sg82
g224
sg75
(lp240
g68
(g69
g70
NtRp241
(dp242
g73
(dp243
g81
I5
ssg82
g237
sg75
(lp244
g68
(g77
g70
NtRp245
(dp246
g73
(dp247
g81
I4
ssg82
Nsg75
(lp248
g68
(g84
g70
NtRp249
(dp250
g73
(dp251
sg82
g245
sg75
(lp252
g68
(g89
g70
NtRp253
(dp254
g73
(dp255
g93
g94
ssg82
g249
sg75
(lp256
S'session_id_admin'
p257
asbag68
(g89
g70
NtRp258
(dp259
g73
(dp260
g100
g101
ssg82
g249
sg75
(lp261
S':'
asbag68
(g89
g70
NtRp262
(dp263
g73
(dp264
sg82
g249
sg75
(lp265
g68
(g69
g70
NtRp266
(dp267
g73
(dp268
g81
I4
ssg82
g262
sg75
(lp269
g68
(g77
g70
NtRp270
(dp271
g73
(dp272
g81
I3
ssg82
Nsg75
(lp273
g68
(g84
g70
NtRp274
(dp275
g73
(dp276
sg82
g270
sg75
(lp277
g68
(g89
g70
NtRp278
(dp279
g73
(dp280
g93
g94
ssg82
g274
sg75
(lp281
S'comment'
p282
asbag68
(g89
g70
NtRp283
(dp284
g73
(dp285
g100
g101
ssg82
g274
sg75
(lp286
S':'
asbag68
(g89
g70
NtRp287
(dp288
g73
(dp289
sg82
g274
sg75
(lp290
g68
(g69
g70
NtRp291
(dp292
g73
(dp293
g81
I3
ssg82
g287
sg75
(lp294
S''
asbasbasbag68
(g84
g70
NtRp295
(dp296
g73
(dp297
sg82
g270
sg75
(lp298
g68
(g89
g70
NtRp299
(dp300
g73
(dp301
g93
g94
ssg82
g295
sg75
(lp302
S'domain'
p303
asbag68
(g89
g70
NtRp304
(dp305
g73
(dp306
g100
g101
ssg82
g295
sg75
(lp307
S':'
asbag68
(g89
g70
NtRp308
(dp309
g73
(dp310
sg82
g295
sg75
(lp311
g68
(g69
g70
NtRp312
(dp313
g73
(dp314
g81
I3
ssg82
g308
sg75
(lp315
S''
asbasbasbag68
(g84
g70
NtRp316
(dp317
g73
(dp318
sg82
g270
sg75
(lp319
g68
(g89
g70
NtRp320
(dp321
g73
(dp322
g93
g94
ssg82
g316
sg75
(lp323
S'expires'
p324
asbag68
(g89
g70
NtRp325
(dp326
g73
(dp327
g100
g101
ssg82
g316
sg75
(lp328
S':'
asbag68
(g89
g70
NtRp329
(dp330
g73
(dp331
sg82
g316
sg75
(lp332
g68
(g69
g70
NtRp333
(dp334
g73
(dp335
g81
I3
ssg82
g329
sg75
(lp336
S''
asbasbasbag68
(g84
g70
NtRp337
(dp338
g73
(dp339
sg82
g270
sg75
(lp340
g68
(g89
g70
NtRp341
(dp342
g73
(dp343
g93
g94
ssg82
g337
sg75
(lp344
S'httponly'
p345
asbag68
(g89
g70
NtRp346
(dp347
g73
(dp348
g100
g101
ssg82
g337
sg75
(lp349
S':'
asbag68
(g89
g70
NtRp350
(dp351
g73
(dp352
sg82
g337
sg75
(lp353
g68
(g69
g70
NtRp354
(dp355
g73
(dp356
g81
I3
ssg82
g350
sg75
(lp357
S''
asbasbasbag68
(g84
g70
NtRp358
(dp359
g73
(dp360
sg82
g270
sg75
(lp361
g68
(g89
g70
NtRp362
(dp363
g73
(dp364
g93
g94
ssg82
g358
sg75
(lp365
S'max-age'
p366
asbag68
(g89
g70
NtRp367
(dp368
g73
(dp369
g100
g101
ssg82
g358
sg75
(lp370
S':'
asbag68
(g89
g70
NtRp371
(dp372
g73
(dp373
sg82
g358
sg75
(lp374
g68
(g69
g70
NtRp375
(dp376
g73
(dp377
g81
I3
ssg82
g371
sg75
(lp378
S''
asbasbasbag68
(g84
g70
NtRp379
(dp380
g73
(dp381
sg82
g270
sg75
(lp382
g68
(g89
g70
NtRp383
(dp384
g73
(dp385
g93
g94
ssg82
g379
sg75
(lp386
S'path'
p387
asbag68
(g89
g70
NtRp388
(dp389
g73
(dp390
g100
g101
ssg82
g379
sg75
(lp391
S':'
asbag68
(g89
g70
NtRp392
(dp393
g73
(dp394
sg82
g379
sg75
(lp395
g68
(g69
g70
NtRp396
(dp397
g73
(dp398
g81
I3
ssg82
g392
sg75
(lp399
S''
asbasbasbag68
(g84
g70
NtRp400
(dp401
g73
(dp402
sg82
g270
sg75
(lp403
g68
(g89
g70
NtRp404
(dp405
g73
(dp406
g93
g94
ssg82
g400
sg75
(lp407
S'secure'
p408
asbag68
(g89
g70
NtRp409
(dp410
g73
(dp411
g100
g101
ssg82
g400
sg75
(lp412
S':'
asbag68
(g89
g70
NtRp413
(dp414
g73
(dp415
sg82
g400
sg75
(lp416
g68
(g69
g70
NtRp417
(dp418
g73
(dp419
g81
I3
ssg82
g413
sg75
(lp420
S''
asbasbasbag68
(g84
g70
NtRp421
(dp422
g73
(dp423
sg82
g270
sg75
(lp424
g68
(g89
g70
NtRp425
(dp426
g73
(dp427
g93
g94
ssg82
g421
sg75
(lp428
S'version'
p429
asbag68
(g89
g70
NtRp430
(dp431
g73
(dp432
g100
g101
ssg82
g421
sg75
(lp433
S':'
asbag68
(g89
g70
NtRp434
(dp435
g73
(dp436
sg82
g421
sg75
(lp437
g68
(g69
g70
NtRp438
(dp439
g73
(dp440
g81
I3
ssg82
g434
sg75
(lp441
S''
asbasbasbasbasbasbasbag68
(g84
g70
NtRp442
(dp443
g73
(dp444
sg82
g245
sg75
(lp445
g68
(g89
g70
NtRp446
(dp447
g73
(dp448
g93
g94
ssg82
g442
sg75
(lp449
S'session_id_infovis'
p450
asbag68
(g89
g70
NtRp451
(dp452
g73
(dp453
g100
g101
ssg82
g442
sg75
(lp454
S':'
asbag68
(g89
g70
NtRp455
(dp456
g73
(dp457
sg82
g442
sg75
(lp458
g68
(g69
g70
NtRp459
(dp460
g73
(dp461
g81
I4
ssg82
g455
sg75
(lp462
g68
(g77
g70
NtRp463
(dp464
g73
(dp465
g81
I3
ssg82
Nsg75
(lp466
g68
(g84
g70
NtRp467
(dp468
g73
(dp469
sg82
g463
sg75
(lp470
g68
(g89
g70
NtRp471
(dp472
g73
(dp473
g93
g94
ssg82
g467
sg75
(lp474
g282
asbag68
(g89
g70
NtRp475
(dp476
g73
(dp477
g100
g101
ssg82
g467
sg75
(lp478
S':'
asbag68
(g89
g70
NtRp479
(dp480
g73
(dp481
sg82
g467
sg75
(lp482
g68
(g69
g70
NtRp483
(dp484
g73
(dp485
g81
I3
ssg82
g479
sg75
(lp486
S''
asbasbasbag68
(g84
g70
NtRp487
(dp488
g73
(dp489
sg82
g463
sg75
(lp490
g68
(g89
g70
NtRp491
(dp492
g73
(dp493
g93
g94
ssg82
g487
sg75
(lp494
g303
asbag68
(g89
g70
NtRp495
(dp496
g73
(dp497
g100
g101
ssg82
g487
sg75
(lp498
S':'
asbag68
(g89
g70
NtRp499
(dp500
g73
(dp501
sg82
g487
sg75
(lp502
g68
(g69
g70
NtRp503
(dp504
g73
(dp505
g81
I3
ssg82
g499
sg75
(lp506
S''
asbasbasbag68
(g84
g70
NtRp507
(dp508
g73
(dp509
sg82
g463
sg75
(lp510
g68
(g89
g70
NtRp511
(dp512
g73
(dp513
g93
g94
ssg82
g507
sg75
(lp514
g324
asbag68
(g89
g70
NtRp515
(dp516
g73
(dp517
g100
g101
ssg82
g507
sg75
(lp518
S':'
asbag68
(g89
g70
NtRp519
(dp520
g73
(dp521
sg82
g507
sg75
(lp522
g68
(g69
g70
NtRp523
(dp524
g73
(dp525
g81
I3
ssg82
g519
sg75
(lp526
S''
asbasbasbag68
(g84
g70
NtRp527
(dp528
g73
(dp529
sg82
g463
sg75
(lp530
g68
(g89
g70
NtRp531
(dp532
g73
(dp533
g93
g94
ssg82
g527
sg75
(lp534
g345
asbag68
(g89
g70
NtRp535
(dp536
g73
(dp537
g100
g101
ssg82
g527
sg75
(lp538
S':'
asbag68
(g89
g70
NtRp539
(dp540
g73
(dp541
sg82
g527
sg75
(lp542
g68
(g69
g70
NtRp543
(dp544
g73
(dp545
g81
I3
ssg82
g539
sg75
(lp546
S''
asbasbasbag68
(g84
g70
NtRp547
(dp548
g73
(dp549
sg82
g463
sg75
(lp550
g68
(g89
g70
NtRp551
(dp552
g73
(dp553
g93
g94
ssg82
g547
sg75
(lp554
g366
asbag68
(g89
g70
NtRp555
(dp556
g73
(dp557
g100
g101
ssg82
g547
sg75
(lp558
S':'
asbag68
(g89
g70
NtRp559
(dp560
g73
(dp561
sg82
g547
sg75
(lp562
g68
(g69
g70
NtRp563
(dp564
g73
(dp565
g81
I3
ssg82
g559
sg75
(lp566
S''
asbasbasbag68
(g84
g70
NtRp567
(dp568
g73
(dp569
sg82
g463
sg75
(lp570
g68
(g89
g70
NtRp571
(dp572
g73
(dp573
g93
g94
ssg82
g567
sg75
(lp574
g387
asbag68
(g89
g70
NtRp575
(dp576
g73
(dp577
g100
g101
ssg82
g567
sg75
(lp578
S':'
asbag68
(g89
g70
NtRp579
(dp580
g73
(dp581
sg82
g567
sg75
(lp582
g68
(g69
g70
NtRp583
(dp584
g73
(dp585
g81
I3
ssg82
g579
sg75
(lp586
S''
asbasbasbag68
(g84
g70
NtRp587
(dp588
g73
(dp589
sg82
g463
sg75
(lp590
g68
(g89
g70
NtRp591
(dp592
g73
(dp593
g93
g94
ssg82
g587
sg75
(lp594
g408
asbag68
(g89
g70
NtRp595
(dp596
g73
(dp597
g100
g101
ssg82
g587
sg75
(lp598
S':'
asbag68
(g89
g70
NtRp599
(dp600
g73
(dp601
sg82
g587
sg75
(lp602
g68
(g69
g70
NtRp603
(dp604
g73
(dp605
g81
I3
ssg82
g599
sg75
(lp606
S''
asbasbasbag68
(g84
g70
NtRp607
(dp608
g73
(dp609
sg82
g463
sg75
(lp610
g68
(g89
g70
NtRp611
(dp612
g73
(dp613
g93
g94
ssg82
g607
sg75
(lp614
g429
asbag68
(g89
g70
NtRp615
(dp616
g73
(dp617
g100
g101
ssg82
g607
sg75
(lp618
S':'
asbag68
(g89
g70
NtRp619
(dp620
g73
(dp621
sg82
g607
sg75
(lp622
g68
(g69
g70
NtRp623
(dp624
g73
(dp625
g81
I3
ssg82
g619
sg75
(lp626
S''
asbasbasbasbasbasbasbag68
(g84
g70
NtRp627
(dp628
g73
(dp629
sg82
g245
sg75
(lp630
g68
(g89
g70
NtRp631
(dp632
g73
(dp633
g93
g94
ssg82
g627
sg75
(lp634
S'session_id_welcome'
p635
asbag68
(g89
g70
NtRp636
(dp637
g73
(dp638
g100
g101
ssg82
g627
sg75
(lp639
S':'
asbag68
(g89
g70
NtRp640
(dp641
g73
(dp642
sg82
g627
sg75
(lp643
g68
(g69
g70
NtRp644
(dp645
g73
(dp646
g81
I4
ssg82
g640
sg75
(lp647
g68
(g77
g70
NtRp648
(dp649
g73
(dp650
g81
I3
ssg82
Nsg75
(lp651
g68
(g84
g70
NtRp652
(dp653
g73
(dp654
sg82
g648
sg75
(lp655
g68
(g89
g70
NtRp656
(dp657
g73
(dp658
g93
g94
ssg82
g652
sg75
(lp659
g282
asbag68
(g89
g70
NtRp660
(dp661
g73
(dp662
g100
g101
ssg82
g652
sg75
(lp663
S':'
asbag68
(g89
g70
NtRp664
(dp665
g73
(dp666
sg82
g652
sg75
(lp667
g68
(g69
g70
NtRp668
(dp669
g73
(dp670
g81
I3
ssg82
g664
sg75
(lp671
S''
asbasbasbag68
(g84
g70
NtRp672
(dp673
g73
(dp674
sg82
g648
sg75
(lp675
g68
(g89
g70
NtRp676
(dp677
g73
(dp678
g93
g94
ssg82
g672
sg75
(lp679
g303
asbag68
(g89
g70
NtRp680
(dp681
g73
(dp682
g100
g101
ssg82
g672
sg75
(lp683
S':'
asbag68
(g89
g70
NtRp684
(dp685
g73
(dp686
sg82
g672
sg75
(lp687
g68
(g69
g70
NtRp688
(dp689
g73
(dp690
g81
I3
ssg82
g684
sg75
(lp691
S''
asbasbasbag68
(g84
g70
NtRp692
(dp693
g73
(dp694
sg82
g648
sg75
(lp695
g68
(g89
g70
NtRp696
(dp697
g73
(dp698
g93
g94
ssg82
g692
sg75
(lp699
g324
asbag68
(g89
g70
NtRp700
(dp701
g73
(dp702
g100
g101
ssg82
g692
sg75
(lp703
S':'
asbag68
(g89
g70
NtRp704
(dp705
g73
(dp706
sg82
g692
sg75
(lp707
g68
(g69
g70
NtRp708
(dp709
g73
(dp710
g81
I3
ssg82
g704
sg75
(lp711
S''
asbasbasbag68
(g84
g70
NtRp712
(dp713
g73
(dp714
sg82
g648
sg75
(lp715
g68
(g89
g70
NtRp716
(dp717
g73
(dp718
g93
g94
ssg82
g712
sg75
(lp719
g345
asbag68
(g89
g70
NtRp720
(dp721
g73
(dp722
g100
g101
ssg82
g712
sg75
(lp723
S':'
asbag68
(g89
g70
NtRp724
(dp725
g73
(dp726
sg82
g712
sg75
(lp727
g68
(g69
g70
NtRp728
(dp729
g73
(dp730
g81
I3
ssg82
g724
sg75
(lp731
S''
asbasbasbag68
(g84
g70
NtRp732
(dp733
g73
(dp734
sg82
g648
sg75
(lp735
g68
(g89
g70
NtRp736
(dp737
g73
(dp738
g93
g94
ssg82
g732
sg75
(lp739
g366
asbag68
(g89
g70
NtRp740
(dp741
g73
(dp742
g100
g101
ssg82
g732
sg75
(lp743
S':'
asbag68
(g89
g70
NtRp744
(dp745
g73
(dp746
sg82
g732
sg75
(lp747
g68
(g69
g70
NtRp748
(dp749
g73
(dp750
g81
I3
ssg82
g744
sg75
(lp751
S''
asbasbasbag68
(g84
g70
NtRp752
(dp753
g73
(dp754
sg82
g648
sg75
(lp755
g68
(g89
g70
NtRp756
(dp757
g73
(dp758
g93
g94
ssg82
g752
sg75
(lp759
g387
asbag68
(g89
g70
NtRp760
(dp761
g73
(dp762
g100
g101
ssg82
g752
sg75
(lp763
S':'
asbag68
(g89
g70
NtRp764
(dp765
g73
(dp766
sg82
g752
sg75
(lp767
g68
(g69
g70
NtRp768
(dp769
g73
(dp770
g81
I3
ssg82
g764
sg75
(lp771
S''
asbasbasbag68
(g84
g70
NtRp772
(dp773
g73
(dp774
sg82
g648
sg75
(lp775
g68
(g89
g70
NtRp776
(dp777
g73
(dp778
g93
g94
ssg82
g772
sg75
(lp779
g408
asbag68
(g89
g70
NtRp780
(dp781
g73
(dp782
g100
g101
ssg82
g772
sg75
(lp783
S':'
asbag68
(g89
g70
NtRp784
(dp785
g73
(dp786
sg82
g772
sg75
(lp787
g68
(g69
g70
NtRp788
(dp789
g73
(dp790
g81
I3
ssg82
g784
sg75
(lp791
S''
asbasbasbag68
(g84
g70
NtRp792
(dp793
g73
(dp794
sg82
g648
sg75
(lp795
g68
(g89
g70
NtRp796
(dp797
g73
(dp798
g93
g94
ssg82
g792
sg75
(lp799
g429
asbag68
(g89
g70
NtRp800
(dp801
g73
(dp802
g100
g101
ssg82
g792
sg75
(lp803
S':'
asbag68
(g89
g70
NtRp804
(dp805
g73
(dp806
sg82
g792
sg75
(lp807
g68
(g69
g70
NtRp808
(dp809
g73
(dp810
g81
I3
ssg82
g804
sg75
(lp811
S''
asbasbasbasbasbasbasbasbasbasbasbag68
(g84
g70
NtRp812
(dp813
g73
(dp814
sg82
g78
sg75
(lp815
g68
(g89
g70
NtRp816
(dp817
g73
(dp818
g93
g94
ssg82
g812
sg75
(lp819
S'env'
p820
asbag68
(g89
g70
NtRp821
(dp822
g73
(dp823
g100
g101
ssg82
g812
sg75
(lp824
S':'
asbag68
(g89
g70
NtRp825
(dp826
g73
(dp827
sg82
g812
sg75
(lp828
g68
(g69
g70
NtRp829
(dp830
g73
(dp831
g81
I5
ssg82
g825
sg75
(lp832
g68
(g77
g70
NtRp833
(dp834
g73
(dp835
g81
I4
ssg82
Nsg75
(lp836
g68
(g84
g70
NtRp837
(dp838
g73
(dp839
sg82
g833
sg75
(lp840
g68
(g89
g70
NtRp841
(dp842
g73
(dp843
g93
g94
ssg82
g837
sg75
(lp844
S'app_folders'
p845
asbag68
(g89
g70
NtRp846
(dp847
g73
(dp848
g100
g101
ssg82
g837
sg75
(lp849
S':'
asbag68
(g89
g70
NtRp850
(dp851
g73
(dp852
sg82
g837
sg75
(lp853
g68
(g69
g70
NtRp854
(dp855
g73
(dp856
g81
I4
ssg82
g850
sg75
(lp857
S"set(['/Users/ilustre/development/repo/jittest/web2py/applications/admin/', '/Users/ilustre/development/repo/jittest/web2py/applications/welcome/', '/Users/ilustre/development/repo/jittest/web2py/applications/infovis/'])"
p858
asbasbasbag68
(g84
g70
NtRp859
(dp860
g73
(dp861
sg82
g833
sg75
(lp862
g68
(g89
g70
NtRp863
(dp864
g73
(dp865
g93
g94
ssg82
g859
sg75
(lp866
S'applications_parent'
p867
asbag68
(g89
g70
NtRp868
(dp869
g73
(dp870
g100
g101
ssg82
g859
sg75
(lp871
S':'
asbag68
(g89
g70
NtRp872
(dp873
g73
(dp874
sg82
g859
sg75
(lp875
g68
(g69
g70
NtRp876
(dp877
g73
(dp878
g81
I4
ssg82
g872
sg75
(lp879
S'/Users/ilustre/development/repo/jittest/web2py'
p880
asbasbasbag68
(g84
g70
NtRp881
(dp882
g73
(dp883
sg82
g833
sg75
(lp884
g68
(g89
g70
NtRp885
(dp886
g73
(dp887
g93
g94
ssg82
g881
sg75
(lp888
S'cmd_args'
p889
asbag68
(g89
g70
NtRp890
(dp891
g73
(dp892
g100
g101
ssg82
g881
sg75
(lp893
S':'
asbag68
(g89
g70
NtRp894
(dp895
g73
(dp896
sg82
g881
sg75
(lp897
g68
(g69
g70
NtRp898
(dp899
g73
(dp900
g81
I4
ssg82
g894
sg75
(lp901
g68
(g77
g70
NtRp902
(dp903
g73
(dp904
g81
I3
ssg82
Nsg75
(lp905
sbasbasbasbag68
(g84
g70
NtRp906
(dp907
g73
(dp908
sg82
g833
sg75
(lp909
g68
(g89
g70
NtRp910
(dp911
g73
(dp912
g93
g94
ssg82
g906
sg75
(lp913
S'cmd_options'
p914
asbag68
(g89
g70
NtRp915
(dp916
g73
(dp917
g100
g101
ssg82
g906
sg75
(lp918
S':'
asbag68
(g89
g70
NtRp919
(dp920
g73
(dp921
sg82
g906
sg75
(lp922
g68
(g69
g70
NtRp923
(dp924
g73
(dp925
g81
I4
ssg82
g919
sg75
(lp926
S"<Values at 0x1014a8050: {'verbose': False, 'ip': '127.0.0.1', 'shutdown_timeout': 5, 'taskbar': False, 'port': 8000, 'maxthreads': None, 'softcron': False, 'server_name': 'ilustrepro.local', 'bpython': False, 'nogui': False, 'nocron': False, 'extcron': False, 'debuglevel': 30, 'test': None, 'folder': '/Users/ilustre/development/repo/jittest/web2py', 'config': '', 'import_models': False, 'winservice': '', 'shell': None, 'run': '', 'log_filename': 'httpserver.log', 'args': [''], 'profiler_filename': None, 'ssl_private_key': '', 'password': 'admin', 'request_queue_size': 5, 'ssl_certificate': '', 'cronjob': False, 'plain': False, 'quiet': False, 'interfaces': None, 'minthreads': None, 'timeout': 10, 'numthreads': None, 'nobanner': False, 'pid_filename': 'httpserver.pid'}>"
p927
asbasbasbag68
(g84
g70
NtRp928
(dp929
g73
(dp930
sg82
g833
sg75
(lp931
g68
(g89
g70
NtRp932
(dp933
g73
(dp934
g93
g94
ssg82
g928
sg75
(lp935
S'db_sessions'
p936
asbag68
(g89
g70
NtRp937
(dp938
g73
(dp939
g100
g101
ssg82
g928
sg75
(lp940
S':'
asbag68
(g89
g70
NtRp941
(dp942
g73
(dp943
sg82
g928
sg75
(lp944
g68
(g69
g70
NtRp945
(dp946
g73
(dp947
g81
I4
ssg82
g941
sg75
(lp948
S'set([])'
p949
asbasbasbag68
(g84
g70
NtRp950
(dp951
g73
(dp952
sg82
g833
sg75
(lp953
g68
(g89
g70
NtRp954
(dp955
g73
(dp956
g93
g94
ssg82
g950
sg75
(lp957
S'debugging'
p958
asbag68
(g89
g70
NtRp959
(dp960
g73
(dp961
g100
g101
ssg82
g950
sg75
(lp962
S':'
asbag68
(g89
g70
NtRp963
(dp964
g73
(dp965
sg82
g950
sg75
(lp966
g68
(g69
g70
NtRp967
(dp968
g73
(dp969
g81
I4
ssg82
g963
sg75
(lp970
g111
asbasbasbag68
(g84
g70
NtRp971
(dp972
g73
(dp973
sg82
g833
sg75
(lp974
g68
(g89
g70
NtRp975
(dp976
g73
(dp977
g93
g94
ssg82
g971
sg75
(lp978
S'gluon_parent'
p979
asbag68
(g89
g70
NtRp980
(dp981
g73
(dp982
g100
g101
ssg82
g971
sg75
(lp983
S':'
asbag68
(g89
g70
NtRp984
(dp985
g73
(dp986
sg82
g971
sg75
(lp987
g68
(g69
g70
NtRp988
(dp989
g73
(dp990
g81
I4
ssg82
g984
sg75
(lp991
S'/Users/ilustre/development/repo/jittest/web2py'
p992
asbasbasbag68
(g84
g70
NtRp993
(dp994
g73
(dp995
sg82
g833
sg75
(lp996
g68
(g89
g70
NtRp997
(dp998
g73
(dp999
g93
g94
ssg82
g993
sg75
(lp1000
S'http_accept'
p1001
asbag68
(g89
g70
NtRp1002
(dp1003
g73
(dp1004
g100
g101
ssg82
g993
sg75
(lp1005
S':'
asbag68
(g89
g70
NtRp1006
(dp1007
g73
(dp1008
sg82
g993
sg75
(lp1009
g68
(g69
g70
NtRp1010
(dp1011
g73
(dp1012
g81
I4
ssg82
g1006
sg75
(lp1013
S'text/html,application/xhtml+xml,application/xml;q=0.9,*/*;q=0.8'
p1014
asbasbasbag68
(g84
g70
NtRp1015
(dp1016
g73
(dp1017
sg82
g833
sg75
(lp1018
g68
(g89
g70
NtRp1019
(dp1020
g73
(dp1021
g93
g94
ssg82
g1015
sg75
(lp1022
S'http_accept_charset'
p1023
asbag68
(g89
g70
NtRp1024
(dp1025
g73
(dp1026
g100
g101
ssg82
g1015
sg75
(lp1027
S':'
asbag68
(g89
g70
NtRp1028
(dp1029
g73
(dp1030
sg82
g1015
sg75
(lp1031
g68
(g69
g70
NtRp1032
(dp1033
g73
(dp1034
g81
I4
ssg82
g1028
sg75
(lp1035
S'ISO-8859-1,utf-8;q=0.7,*;q=0.7'
p1036
asbasbasbag68
(g84
g70
NtRp1037
(dp1038
g73
(dp1039
sg82
g833
sg75
(lp1040
g68
(g89
g70
NtRp1041
(dp1042
g73
(dp1043
g93
g94
ssg82
g1037
sg75
(lp1044
S'http_accept_encoding'
p1045
asbag68
(g89
g70
NtRp1046
(dp1047
g73
(dp1048
g100
g101
ssg82
g1037
sg75
(lp1049
S':'
asbag68
(g89
g70
NtRp1050
(dp1051
g73
(dp1052
sg82
g1037
sg75
(lp1053
g68
(g69
g70
NtRp1054
(dp1055
g73
(dp1056
g81
I4
ssg82
g1050
sg75
(lp1057
S'gzip, deflate'
p1058
asbasbasbag68
(g84
g70
NtRp1059
(dp1060
g73
(dp1061
sg82
g833
sg75
(lp1062
g68
(g89
g70
NtRp1063
(dp1064
g73
(dp1065
g93
g94
ssg82
g1059
sg75
(lp1066
S'http_accept_language'
p1067
asbag68
(g89
g70
NtRp1068
(dp1069
g73
(dp1070
g100
g101
ssg82
g1059
sg75
(lp1071
S':'
asbag68
(g89
g70
NtRp1072
(dp1073
g73
(dp1074
sg82
g1059
sg75
(lp1075
g68
(g69
g70
NtRp1076
(dp1077
g73
(dp1078
g81
I4
ssg82
g1072
sg75
(lp1079
S'en-us,en;q=0.5'
p1080
asbasbasbag68
(g84
g70
NtRp1081
(dp1082
g73
(dp1083
sg82
g833
sg75
(lp1084
g68
(g89
g70
NtRp1085
(dp1086
g73
(dp1087
g93
g94
ssg82
g1081
sg75
(lp1088
S'http_cache_control'
p1089
asbag68
(g89
g70
NtRp1090
(dp1091
g73
(dp1092
g100
g101
ssg82
g1081
sg75
(lp1093
S':'
asbag68
(g89
g70
NtRp1094
(dp1095
g73
(dp1096
sg82
g1081
sg75
(lp1097
g68
(g69
g70
NtRp1098
(dp1099
g73
(dp1100
g81
I4
ssg82
g1094
sg75
(lp1101
S'max-age=0'
p1102
asbasbasbag68
(g84
g70
NtRp1103
(dp1104
g73
(dp1105
sg82
g833
sg75
(lp1106
g68
(g89
g70
NtRp1107
(dp1108
g73
(dp1109
g93
g94
ssg82
g1103
sg75
(lp1110
S'http_connection'
p1111
asbag68
(g89
g70
NtRp1112
(dp1113
g73
(dp1114
g100
g101
ssg82
g1103
sg75
(lp1115
S':'
asbag68
(g89
g70
NtRp1116
(dp1117
g73
(dp1118
sg82
g1103
sg75
(lp1119
g68
(g69
g70
NtRp1120
(dp1121
g73
(dp1122
g81
I4
ssg82
g1116
sg75
(lp1123
S'keep-alive'
p1124
asbasbasbag68
(g84
g70
NtRp1125
(dp1126
g73
(dp1127
sg82
g833
sg75
(lp1128
g68
(g89
g70
NtRp1129
(dp1130
g73
(dp1131
g93
g94
ssg82
g1125
sg75
(lp1132
S'http_cookie'
p1133
asbag68
(g89
g70
NtRp1134
(dp1135
g73
(dp1136
g100
g101
ssg82
g1125
sg75
(lp1137
S':'
asbag68
(g89
g70
NtRp1138
(dp1139
g73
(dp1140
sg82
g1125
sg75
(lp1141
g68
(g69
g70
NtRp1142
(dp1143
g73
(dp1144
g81
I4
ssg82
g1138
sg75
(lp1145
S'session_id_welcome=127.0.0.1-9aeda16a-9148-4e24-9906-e1a2a41d3cea; session_id_infovis=127.0.0.1-0a2e7c30-a7f4-40f4-98c7-c6b915e1357e; session_id_admin=127.0.0.1-83de7fba-6337-4f38-aca7-cc035dd48f75'
p1146
asbasbasbag68
(g84
g70
NtRp1147
(dp1148
g73
(dp1149
sg82
g833
sg75
(lp1150
g68
(g89
g70
NtRp1151
(dp1152
g73
(dp1153
g93
g94
ssg82
g1147
sg75
(lp1154
S'http_host'
p1155
asbag68
(g89
g70
NtRp1156
(dp1157
g73
(dp1158
g100
g101
ssg82
g1147
sg75
(lp1159
S':'
asbag68
(g89
g70
NtRp1160
(dp1161
g73
(dp1162
sg82
g1147
sg75
(lp1163
g68
(g69
g70
NtRp1164
(dp1165
g73
(dp1166
g81
I4
ssg82
g1160
sg75
(lp1167
S'localhost:8000'
p1168
asbasbasbag68
(g84
g70
NtRp1169
(dp1170
g73
(dp1171
sg82
g833
sg75
(lp1172
g68
(g89
g70
NtRp1173
(dp1174
g73
(dp1175
g93
g94
ssg82
g1169
sg75
(lp1176
S'http_user_agent'
p1177
asbag68
(g89
g70
NtRp1178
(dp1179
g73
(dp1180
g100
g101
ssg82
g1169
sg75
(lp1181
S':'
asbag68
(g89
g70
NtRp1182
(dp1183
g73
(dp1184
sg82
g1169
sg75
(lp1185
g68
(g69
g70
NtRp1186
(dp1187
g73
(dp1188
g81
I4
ssg82
g1182
sg75
(lp1189
S'Mozilla/5.0 (Macintosh; Intel Mac OS X 10.6; rv:5.0.1) Gecko/20100101 Firefox/5.0.1'
p1190
asbasbasbag68
(g84
g70
NtRp1191
(dp1192
g73
(dp1193
sg82
g833
sg75
(lp1194
g68
(g89
g70
NtRp1195
(dp1196
g73
(dp1197
g93
g94
ssg82
g1191
sg75
(lp1198
S'is_jython'
p1199
asbag68
(g89
g70
NtRp1200
(dp1201
g73
(dp1202
g100
g101
ssg82
g1191
sg75
(lp1203
S':'
asbag68
(g89
g70
NtRp1204
(dp1205
g73
(dp1206
sg82
g1191
sg75
(lp1207
g68
(g69
g70
NtRp1208
(dp1209
g73
(dp1210
g81
I4
ssg82
g1204
sg75
(lp1211
g111
asbasbasbag68
(g84
g70
NtRp1212
(dp1213
g73
(dp1214
sg82
g833
sg75
(lp1215
g68
(g89
g70
NtRp1216
(dp1217
g73
(dp1218
g93
g94
ssg82
g1212
sg75
(lp1219
S'path_info'
p1220
asbag68
(g89
g70
NtRp1221
(dp1222
g73
(dp1223
g100
g101
ssg82
g1212
sg75
(lp1224
S':'
asbag68
(g89
g70
NtRp1225
(dp1226
g73
(dp1227
sg82
g1212
sg75
(lp1228
g68
(g69
g70
NtRp1229
(dp1230
g73
(dp1231
g81
I4
ssg82
g1225
sg75
(lp1232
S'/infovis/visual/treemap'
p1233
asbasbasbag68
(g84
g70
NtRp1234
(dp1235
g73
(dp1236
sg82
g833
sg75
(lp1237
g68
(g89
g70
NtRp1238
(dp1239
g73
(dp1240
g93
g94
ssg82
g1234
sg75
(lp1241
S'query_string'
p1242
asbag68
(g89
g70
NtRp1243
(dp1244
g73
(dp1245
g100
g101
ssg82
g1234
sg75
(lp1246
S':'
asbag68
(g89
g70
NtRp1247
(dp1248
g73
(dp1249
sg82
g1234
sg75
(lp1250
g68
(g69
g70
NtRp1251
(dp1252
g73
(dp1253
g81
I4
ssg82
g1247
sg75
(lp1254
S''
asbasbasbag68
(g84
g70
NtRp1255
(dp1256
g73
(dp1257
sg82
g833
sg75
(lp1258
g68
(g89
g70
NtRp1259
(dp1260
g73
(dp1261
g93
g94
ssg82
g1255
sg75
(lp1262
S'remote_addr'
p1263
asbag68
(g89
g70
NtRp1264
(dp1265
g73
(dp1266
g100
g101
ssg82
g1255
sg75
(lp1267
S':'
asbag68
(g89
g70
NtRp1268
(dp1269
g73
(dp1270
sg82
g1255
sg75
(lp1271
g68
(g69
g70
NtRp1272
(dp1273
g73
(dp1274
g81
I4
ssg82
g1268
sg75
(lp1275
g201
asbasbasbag68
(g84
g70
NtRp1276
(dp1277
g73
(dp1278
sg82
g833
sg75
(lp1279
g68
(g89
g70
NtRp1280
(dp1281
g73
(dp1282
g93
g94
ssg82
g1276
sg75
(lp1283
S'remote_port'
p1284
asbag68
(g89
g70
NtRp1285
(dp1286
g73
(dp1287
g100
g101
ssg82
g1276
sg75
(lp1288
S':'
asbag68
(g89
g70
NtRp1289
(dp1290
g73
(dp1291
sg82
g1276
sg75
(lp1292
g68
(g69
g70
NtRp1293
(dp1294
g73
(dp1295
g81
I4
ssg82
g1289
sg75
(lp1296
S'50287'
p1297
asbasbasbag68
(g84
g70
NtRp1298
(dp1299
g73
(dp1300
sg82
g833
sg75
(lp1301
g68
(g89
g70
NtRp1302
(dp1303
g73
(dp1304
g93
g94
ssg82
g1298
sg75
(lp1305
S'request_method'
p1306
asbag68
(g89
g70
NtRp1307
(dp1308
g73
(dp1309
g100
g101
ssg82
g1298
sg75
(lp1310
S':'
asbag68
(g89
g70
NtRp1311
(dp1312
g73
(dp1313
sg82
g1298
sg75
(lp1314
g68
(g69
g70
NtRp1315
(dp1316
g73
(dp1317
g81
I4
ssg82
g1311
sg75
(lp1318
S'GET'
p1319
asbasbasbag68
(g84
g70
NtRp1320
(dp1321
g73
(dp1322
sg82
g833
sg75
(lp1323
g68
(g89
g70
NtRp1324
(dp1325
g73
(dp1326
g93
g94
ssg82
g1320
sg75
(lp1327
S'script_name'
p1328
asbag68
(g89
g70
NtRp1329
(dp1330
g73
(dp1331
g100
g101
ssg82
g1320
sg75
(lp1332
S':'
asbag68
(g89
g70
NtRp1333
(dp1334
g73
(dp1335
sg82
g1320
sg75
(lp1336
g68
(g69
g70
NtRp1337
(dp1338
g73
(dp1339
g81
I4
ssg82
g1333
sg75
(lp1340
S''
asbasbasbag68
(g84
g70
NtRp1341
(dp1342
g73
(dp1343
sg82
g833
sg75
(lp1344
g68
(g89
g70
NtRp1345
(dp1346
g73
(dp1347
g93
g94
ssg82
g1341
sg75
(lp1348
S'server_name'
p1349
asbag68
(g89
g70
NtRp1350
(dp1351
g73
(dp1352
g100
g101
ssg82
g1341
sg75
(lp1353
S':'
asbag68
(g89
g70
NtRp1354
(dp1355
g73
(dp1356
sg82
g1341
sg75
(lp1357
g68
(g69
g70
NtRp1358
(dp1359
g73
(dp1360
g81
I4
ssg82
g1354
sg75
(lp1361
S'ilustrepro.local'
p1362
asbasbasbag68
(g84
g70
NtRp1363
(dp1364
g73
(dp1365
sg82
g833
sg75
(lp1366
g68
(g89
g70
NtRp1367
(dp1368
g73
(dp1369
g93
g94
ssg82
g1363
sg75
(lp1370
S'server_port'
p1371
asbag68
(g89
g70
NtRp1372
(dp1373
g73
(dp1374
g100
g101
ssg82
g1363
sg75
(lp1375
S':'
asbag68
(g89
g70
NtRp1376
(dp1377
g73
(dp1378
sg82
g1363
sg75
(lp1379
g68
(g69
g70
NtRp1380
(dp1381
g73
(dp1382
g81
I4
ssg82
g1376
sg75
(lp1383
S'8000'
p1384
asbasbasbag68
(g84
g70
NtRp1385
(dp1386
g73
(dp1387
sg82
g833
sg75
(lp1388
g68
(g89
g70
NtRp1389
(dp1390
g73
(dp1391
g93
g94
ssg82
g1385
sg75
(lp1392
S'server_protocol'
p1393
asbag68
(g89
g70
NtRp1394
(dp1395
g73
(dp1396
g100
g101
ssg82
g1385
sg75
(lp1397
S':'
asbag68
(g89
g70
NtRp1398
(dp1399
g73
(dp1400
sg82
g1385
sg75
(lp1401
g68
(g69
g70
NtRp1402
(dp1403
g73
(dp1404
g81
I4
ssg82
g1398
sg75
(lp1405
S'HTTP/1.1'
p1406
asbasbasbag68
(g84
g70
NtRp1407
(dp1408
g73
(dp1409
sg82
g833
sg75
(lp1410
g68
(g89
g70
NtRp1411
(dp1412
g73
(dp1413
g93
g94
ssg82
g1407
sg75
(lp1414
S'server_software'
p1415
asbag68
(g89
g70
NtRp1416
(dp1417
g73
(dp1418
g100
g101
ssg82
g1407
sg75
(lp1419
S':'
asbag68
(g89
g70
NtRp1420
(dp1421
g73
(dp1422
sg82
g1407
sg75
(lp1423
g68
(g69
g70
NtRp1424
(dp1425
g73
(dp1426
g81
I4
ssg82
g1420
sg75
(lp1427
S'Rocket 1.2.2'
p1428
asbasbasbag68
(g84
g70
NtRp1429
(dp1430
g73
(dp1431
sg82
g833
sg75
(lp1432
g68
(g89
g70
NtRp1433
(dp1434
g73
(dp1435
g93
g94
ssg82
g1429
sg75
(lp1436
S'web2py_crontype'
p1437
asbag68
(g89
g70
NtRp1438
(dp1439
g73
(dp1440
g100
g101
ssg82
g1429
sg75
(lp1441
S':'
asbag68
(g89
g70
NtRp1442
(dp1443
g73
(dp1444
sg82
g1429
sg75
(lp1445
g68
(g69
g70
NtRp1446
(dp1447
g73
(dp1448
g81
I4
ssg82
g1442
sg75
(lp1449
S'hard'
p1450
asbasbasbag68
(g84
g70
NtRp1451
(dp1452
g73
(dp1453
sg82
g833
sg75
(lp1454
g68
(g89
g70
NtRp1455
(dp1456
g73
(dp1457
g93
g94
ssg82
g1451
sg75
(lp1458
S'web2py_path'
p1459
asbag68
(g89
g70
NtRp1460
(dp1461
g73
(dp1462
g100
g101
ssg82
g1451
sg75
(lp1463
S':'
asbag68
(g89
g70
NtRp1464
(dp1465
g73
(dp1466
sg82
g1451
sg75
(lp1467
g68
(g69
g70
NtRp1468
(dp1469
g73
(dp1470
g81
I4
ssg82
g1464
sg75
(lp1471
g880
asbasbasbag68
(g84
g70
NtRp1472
(dp1473
g73
(dp1474
sg82
g833
sg75
(lp1475
g68
(g89
g70
NtRp1476
(dp1477
g73
(dp1478
g93
g94
ssg82
g1472
sg75
(lp1479
S'web2py_version'
p1480
asbag68
(g89
g70
NtRp1481
(dp1482
g73
(dp1483
g100
g101
ssg82
g1472
sg75
(lp1484
S':'
asbag68
(g89
g70
NtRp1485
(dp1486
g73
(dp1487
sg82
g1472
sg75
(lp1488
g68
(g69
g70
NtRp1489
(dp1490
g73
(dp1491
g81
I4
ssg82
g1485
sg75
(lp1492
S'Version 1.98.2 (2011-08-04 00:47:09)\n'
p1493
asbasbasbag68
(g84
g70
NtRp1494
(dp1495
g73
(dp1496
sg82
g833
sg75
(lp1497
g68
(g89
g70
NtRp1498
(dp1499
g73
(dp1500
g93
g94
ssg82
g1494
sg75
(lp1501
S'wsgi_errors'
p1502
asbag68
(g89
g70
NtRp1503
(dp1504
g73
(dp1505
g100
g101
ssg82
g1494
sg75
(lp1506
S':'
asbag68
(g89
g70
NtRp1507
(dp1508
g73
(dp1509
sg82
g1494
sg75
(lp1510
g68
(g69
g70
NtRp1511
(dp1512
g73
(dp1513
g81
I4
ssg82
g1507
sg75
(lp1514
S"<open file '<stderr>', mode 'w' at 0x100283270>"
p1515
asbasbasbag68
(g84
g70
NtRp1516
(dp1517
g73
(dp1518
sg82
g833
sg75
(lp1519
g68
(g89
g70
NtRp1520
(dp1521
g73
(dp1522
g93
g94
ssg82
g1516
sg75
(lp1523
S'wsgi_file_wrapper'
p1524
asbag68
(g89
g70
NtRp1525
(dp1526
g73
(dp1527
g100
g101
ssg82
g1516
sg75
(lp1528
S':'
asbag68
(g89
g70
NtRp1529
(dp1530
g73
(dp1531
sg82
g1516
sg75
(lp1532
g68
(g69
g70
NtRp1533
(dp1534
g73
(dp1535
g81
I4
ssg82
g1529
sg75
(lp1536
S'<class gluon.rocket.FileWrapper at 0x101503738>'
p1537
asbasbasbag68
(g84
g70
NtRp1538
(dp1539
g73
(dp1540
sg82
g833
sg75
(lp1541
g68
(g89
g70
NtRp1542
(dp1543
g73
(dp1544
g93
g94
ssg82
g1538
sg75
(lp1545
S'wsgi_input'
p1546
asbag68
(g89
g70
NtRp1547
(dp1548
g73
(dp1549
g100
g101
ssg82
g1538
sg75
(lp1550
S':'
asbag68
(g89
g70
NtRp1551
(dp1552
g73
(dp1553
sg82
g1538
sg75
(lp1554
g68
(g69
g70
NtRp1555
(dp1556
g73
(dp1557
g81
I4
ssg82
g1551
sg75
(lp1558
S'<socket._fileobject object at 0x105e3b8d0>'
p1559
asbasbasbag68
(g84
g70
NtRp1560
(dp1561
g73
(dp1562
sg82
g833
sg75
(lp1563
g68
(g89
g70
NtRp1564
(dp1565
g73
(dp1566
g93
g94
ssg82
g1560
sg75
(lp1567
S'wsgi_multiprocess'
p1568
asbag68
(g89
g70
NtRp1569
(dp1570
g73
(dp1571
g100
g101
ssg82
g1560
sg75
(lp1572
S':'
asbag68
(g89
g70
NtRp1573
(dp1574
g73
(dp1575
sg82
g1560
sg75
(lp1576
g68
(g69
g70
NtRp1577
(dp1578
g73
(dp1579
g81
I4
ssg82
g1573
sg75
(lp1580
g111
asbasbasbag68
(g84
g70
NtRp1581
(dp1582
g73
(dp1583
sg82
g833
sg75
(lp1584
g68
(g89
g70
NtRp1585
(dp1586
g73
(dp1587
g93
g94
ssg82
g1581
sg75
(lp1588
S'wsgi_multithread'
p1589
asbag68
(g89
g70
NtRp1590
(dp1591
g73
(dp1592
g100
g101
ssg82
g1581
sg75
(lp1593
S':'
asbag68
(g89
g70
NtRp1594
(dp1595
g73
(dp1596
sg82
g1581
sg75
(lp1597
g68
(g69
g70
NtRp1598
(dp1599
g73
(dp1600
g81
I4
ssg82
g1594
sg75
(lp1601
S'True'
p1602
asbasbasbag68
(g84
g70
NtRp1603
(dp1604
g73
(dp1605
sg82
g833
sg75
(lp1606
g68
(g89
g70
NtRp1607
(dp1608
g73
(dp1609
g93
g94
ssg82
g1603
sg75
(lp1610
S'wsgi_run_once'
p1611
asbag68
(g89
g70
NtRp1612
(dp1613
g73
(dp1614
g100
g101
ssg82
g1603
sg75
(lp1615
S':'
asbag68
(g89
g70
NtRp1616
(dp1617
g73
(dp1618
sg82
g1603
sg75
(lp1619
g68
(g69
g70
NtRp1620
(dp1621
g73
(dp1622
g81
I4
ssg82
g1616
sg75
(lp1623
g111
asbasbasbag68
(g84
g70
NtRp1624
(dp1625
g73
(dp1626
sg82
g833
sg75
(lp1627
g68
(g89
g70
NtRp1628
(dp1629
g73
(dp1630
g93
g94
ssg82
g1624
sg75
(lp1631
S'wsgi_url_scheme'
p1632
asbag68
(g89
g70
NtRp1633
(dp1634
g73
(dp1635
g100
g101
ssg82
g1624
sg75
(lp1636
S':'
asbag68
(g89
g70
NtRp1637
(dp1638
g73
(dp1639
sg82
g1624
sg75
(lp1640
g68
(g69
g70
NtRp1641
(dp1642
g73
(dp1643
g81
I4
ssg82
g1637
sg75
(lp1644
S'http'
p1645
asbasbasbag68
(g84
g70
NtRp1646
(dp1647
g73
(dp1648
sg82
g833
sg75
(lp1649
g68
(g89
g70
NtRp1650
(dp1651
g73
(dp1652
g93
g94
ssg82
g1646
sg75
(lp1653
S'wsgi_version'
p1654
asbag68
(g89
g70
NtRp1655
(dp1656
g73
(dp1657
g100
g101
ssg82
g1646
sg75
(lp1658
S':'
asbag68
(g89
g70
NtRp1659
(dp1660
g73
(dp1661
sg82
g1646
sg75
(lp1662
g68
(g69
g70
NtRp1663
(dp1664
g73
(dp1665
g81
I4
ssg82
g1659
sg75
(lp1666
g68
(g77
g70
NtRp1667
(dp1668
g73
(dp1669
g81
I3
ssg82
Nsg75
(lp1670
g68
(g84
g70
NtRp1671
(dp1672
g73
(dp1673
sg82
g1667
sg75
(lp1674
g68
(g89
g70
NtRp1675
(dp1676
g73
(dp1677
sg82
g1671
sg75
(lp1678
g68
(g69
g70
NtRp1679
(dp1680
g73
(dp1681
g81
I3
ssg82
g1675
sg75
(lp1682
S'1'
asbasbasbag68
(g84
g70
NtRp1683
(dp1684
g73
(dp1685
sg82
g1667
sg75
(lp1686
g68
(g89
g70
NtRp1687
(dp1688
g73
(dp1689
sg82
g1683
sg75
(lp1690
g68
(g69
g70
NtRp1691
(dp1692
g73
(dp1693
g81
I3
ssg82
g1687
sg75
(lp1694
S'0'
asbasbasbasbasbasbasbasbasbasbasbag68
(g84
g70
NtRp1695
(dp1696
g73
(dp1697
sg82
g78
sg75
(lp1698
g68
(g89
g70
NtRp1699
(dp1700
g73
(dp1701
g93
g94
ssg82
g1695
sg75
(lp1702
S'extension'
p1703
asbag68
(g89
g70
NtRp1704
(dp1705
g73
(dp1706
g100
g101
ssg82
g1695
sg75
(lp1707
S':'
asbag68
(g89
g70
NtRp1708
(dp1709
g73
(dp1710
sg82
g1695
sg75
(lp1711
g68
(g69
g70
NtRp1712
(dp1713
g73
(dp1714
g81
I5
ssg82
g1708
sg75
(lp1715
S'html'
p1716
asbasbasbag68
(g84
g70
NtRp1717
(dp1718
g73
(dp1719
sg82
g78
sg75
(lp1720
g68
(g89
g70
NtRp1721
(dp1722
g73
(dp1723
g93
g94
ssg82
g1717
sg75
(lp1724
S'folder'
p1725
asbag68
(g89
g70
NtRp1726
(dp1727
g73
(dp1728
g100
g101
ssg82
g1717
sg75
(lp1729
S':'
asbag68
(g89
g70
NtRp1730
(dp1731
g73
(dp1732
sg82
g1717
sg75
(lp1733
g68
(g69
g70
NtRp1734
(dp1735
g73
(dp1736
g81
I5
ssg82
g1730
sg75
(lp1737
S'/Users/ilustre/development/repo/jittest/web2py/applications/infovis/'
p1738
asbasbasbag68
(g84
g70
NtRp1739
(dp1740
g73
(dp1741
sg82
g78
sg75
(lp1742
g68
(g89
g70
NtRp1743
(dp1744
g73
(dp1745
g93
g94
ssg82
g1739
sg75
(lp1746
S'function'
p1747
asbag68
(g89
g70
NtRp1748
(dp1749
g73
(dp1750
g100
g101
ssg82
g1739
sg75
(lp1751
S':'
asbag68
(g89
g70
NtRp1752
(dp1753
g73
(dp1754
sg82
g1739
sg75
(lp1755
g68
(g69
g70
NtRp1756
(dp1757
g73
(dp1758
g81
I5
ssg82
g1752
sg75
(lp1759
S'treemap'
p1760
asbasbasbag68
(g84
g70
NtRp1761
(dp1762
g73
(dp1763
sg82
g78
sg75
(lp1764
g68
(g89
g70
NtRp1765
(dp1766
g73
(dp1767
g93
g94
ssg82
g1761
sg75
(lp1768
S'get_vars'
p1769
asbag68
(g89
g70
NtRp1770
(dp1771
g73
(dp1772
g100
g101
ssg82
g1761
sg75
(lp1773
S':'
asbag68
(g89
g70
NtRp1774
(dp1775
g73
(dp1776
sg82
g1761
sg75
(lp1777
g68
(g69
g70
NtRp1778
(dp1779
g73
(dp1780
g81
I5
ssg82
g1774
sg75
(lp1781
g68
(g77
g70
NtRp1782
(dp1783
g73
(dp1784
g81
I4
ssg82
Nsg75
(lp1785
sbasbasbasbag68
(g84
g70
NtRp1786
(dp1787
g73
(dp1788
sg82
g78
sg75
(lp1789
g68
(g89
g70
NtRp1790
(dp1791
g73
(dp1792
g93
g94
ssg82
g1786
sg75
(lp1793
S'is_https'
p1794
asbag68
(g89
g70
NtRp1795
(dp1796
g73
(dp1797
g100
g101
ssg82
g1786
sg75
(lp1798
S':'
asbag68
(g89
g70
NtRp1799
(dp1800
g73
(dp1801
sg82
g1786
sg75
(lp1802
g68
(g69
g70
NtRp1803
(dp1804
g73
(dp1805
g81
I5
ssg82
g1799
sg75
(lp1806
g111
asbasbasbag68
(g84
g70
NtRp1807
(dp1808
g73
(dp1809
sg82
g78
sg75
(lp1810
g68
(g89
g70
NtRp1811
(dp1812
g73
(dp1813
g93
g94
ssg82
g1807
sg75
(lp1814
S'is_local'
p1815
asbag68
(g89
g70
NtRp1816
(dp1817
g73
(dp1818
g100
g101
ssg82
g1807
sg75
(lp1819
S':'
asbag68
(g89
g70
NtRp1820
(dp1821
g73
(dp1822
sg82
g1807
sg75
(lp1823
g68
(g69
g70
NtRp1824
(dp1825
g73
(dp1826
g81
I5
ssg82
g1820
sg75
(lp1827
g1602
asbasbasbag68
(g84
g70
NtRp1828
(dp1829
g73
(dp1830
sg82
g78
sg75
(lp1831
g68
(g89
g70
NtRp1832
(dp1833
g73
(dp1834
g93
g94
ssg82
g1828
sg75
(lp1835
S'is_restful'
p1836
asbag68
(g89
g70
NtRp1837
(dp1838
g73
(dp1839
g100
g101
ssg82
g1828
sg75
(lp1840
S':'
asbag68
(g89
g70
NtRp1841
(dp1842
g73
(dp1843
sg82
g1828
sg75
(lp1844
g68
(g69
g70
NtRp1845
(dp1846
g73
(dp1847
g81
I5
ssg82
g1841
sg75
(lp1848
g111
asbasbasbag68
(g84
g70
NtRp1849
(dp1850
g73
(dp1851
sg82
g78
sg75
(lp1852
g68
(g89
g70
NtRp1853
(dp1854
g73
(dp1855
g93
g94
ssg82
g1849
sg75
(lp1856
S'now'
p1857
asbag68
(g89
g70
NtRp1858
(dp1859
g73
(dp1860
g100
g101
ssg82
g1849
sg75
(lp1861
S':'
asbag68
(g89
g70
NtRp1862
(dp1863
g73
(dp1864
sg82
g1849
sg75
(lp1865
g68
(g69
g70
NtRp1866
(dp1867
g73
(dp1868
g81
I5
ssg82
g1862
sg75
(lp1869
S'datetime.datetime(2011, 8, 15, 0, 26, 39, 133426)'
p1870
asbasbasbag68
(g84
g70
NtRp1871
(dp1872
g73
(dp1873
sg82
g78
sg75
(lp1874
g68
(g89
g70
NtRp1875
(dp1876
g73
(dp1877
g93
g94
ssg82
g1871
sg75
(lp1878
S'post_vars'
p1879
asbag68
(g89
g70
NtRp1880
(dp1881
g73
(dp1882
g100
g101
ssg82
g1871
sg75
(lp1883
S':'
asbag68
(g89
g70
NtRp1884
(dp1885
g73
(dp1886
sg82
g1871
sg75
(lp1887
g68
(g69
g70
NtRp1888
(dp1889
g73
(dp1890
g81
I5
ssg82
g1884
sg75
(lp1891
g68
(g77
g70
NtRp1892
(dp1893
g73
(dp1894
g81
I4
ssg82
Nsg75
(lp1895
sbasbasbasbag68
(g84
g70
NtRp1896
(dp1897
g73
(dp1898
sg82
g78
sg75
(lp1899
g68
(g89
g70
NtRp1900
(dp1901
g73
(dp1902
g93
g94
ssg82
g1896
sg75
(lp1903
S'url'
p1904
asbag68
(g89
g70
NtRp1905
(dp1906
g73
(dp1907
g100
g101
ssg82
g1896
sg75
(lp1908
S':'
asbag68
(g89
g70
NtRp1909
(dp1910
g73
(dp1911
sg82
g1896
sg75
(lp1912
g68
(g69
g70
NtRp1913
(dp1914
g73
(dp1915
g81
I5
ssg82
g1909
sg75
(lp1916
S'/infovis/visual/treemap'
p1917
asbasbasbag68
(g84
g70
NtRp1918
(dp1919
g73
(dp1920
sg82
g78
sg75
(lp1921
g68
(g89
g70
NtRp1922
(dp1923
g73
(dp1924
g93
g94
ssg82
g1918
sg75
(lp1925
S'uuid'
p1926
asbag68
(g89
g70
NtRp1927
(dp1928
g73
(dp1929
g100
g101
ssg82
g1918
sg75
(lp1930
S':'
asbag68
(g89
g70
NtRp1931
(dp1932
g73
(dp1933
sg82
g1918
sg75
(lp1934
g68
(g69
g70
NtRp1935
(dp1936
g73
(dp1937
g81
I5
ssg82
g1931
sg75
(lp1938
S'infovis/127.0.0.1.2011-08-15.00-26-39.c8c55c9e-d4e0-4799-bc61-4119f7234894'
p1939
asbasbasbag68
(g84
g70
NtRp1940
(dp1941
g73
(dp1942
sg82
g78
sg75
(lp1943
g68
(g89
g70
NtRp1944
(dp1945
g73
(dp1946
g93
g94
ssg82
g1940
sg75
(lp1947
S'vars'
p1948
asbag68
(g89
g70
NtRp1949
(dp1950
g73
(dp1951
g100
g101
ssg82
g1940
sg75
(lp1952
S':'
asbag68
(g89
g70
NtRp1953
(dp1954
g73
(dp1955
sg82
g1940
sg75
(lp1956
g68
(g69
g70
NtRp1957
(dp1958
g73
(dp1959
g81
I5
ssg82
g1953
sg75
(lp1960
g68
(g77
g70
NtRp1961
(dp1962
g73
(dp1963
g81
I4
ssg82
Nsg75
(lp1964
sbasbasbasbag68
(g84
g70
NtRp1965
(dp1966
g73
(dp1967
sg82
g78
sg75
(lp1968
g68
(g89
g70
NtRp1969
(dp1970
g73
(dp1971
g93
g94
ssg82
g1965
sg75
(lp1972
S'wsgi'
p1973
asbag68
(g89
g70
NtRp1974
(dp1975
g73
(dp1976
g100
g101
ssg82
g1965
sg75
(lp1977
S':'
asbag68
(g89
g70
NtRp1978
(dp1979
g73
(dp1980
sg82
g1965
sg75
(lp1981
g68
(g69
g70
NtRp1982
(dp1983
g73
(dp1984
g81
I5
ssg82
g1978
sg75
(lp1985
g68
(g77
g70
NtRp1986
(dp1987
g73
(dp1988
g81
I4
ssg82
Nsg75
(lp1989
g68
(g84
g70
NtRp1990
(dp1991
g73
(dp1992
sg82
g1986
sg75
(lp1993
g68
(g89
g70
NtRp1994
(dp1995
g73
(dp1996
g93
g94
ssg82
g1990
sg75
(lp1997
S'environ'
p1998
asbag68
(g89
g70
NtRp1999
(dp2000
g73
(dp2001
g100
g101
ssg82
g1990
sg75
(lp2002
S':'
asbag68
(g89
g70
NtRp2003
(dp2004
g73
(dp2005
sg82
g1990
sg75
(lp2006
g68
(g69
g70
NtRp2007
(dp2008
g73
(dp2009
g81
I4
ssg82
g2003
sg75
(lp2010
g68
(g77
g70
NtRp2011
(dp2012
g73
(dp2013
g81
I3
ssg82
Nsg75
(lp2014
g68
(g84
g70
NtRp2015
(dp2016
g73
(dp2017
sg82
g2011
sg75
(lp2018
g68
(g89
g70
NtRp2019
(dp2020
g73
(dp2021
g93
g94
ssg82
g2015
sg75
(lp2022
S'HTTP_ACCEPT'
p2023
asbag68
(g89
g70
NtRp2024
(dp2025
g73
(dp2026
g100
g101
ssg82
g2015
sg75
(lp2027
S':'
asbag68
(g89
g70
NtRp2028
(dp2029
g73
(dp2030
sg82
g2015
sg75
(lp2031
g68
(g69
g70
NtRp2032
(dp2033
g73
(dp2034
g81
I3
ssg82
g2028
sg75
(lp2035
g1014
asbasbasbag68
(g84
g70
NtRp2036
(dp2037
g73
(dp2038
sg82
g2011
sg75
(lp2039
g68
(g89
g70
NtRp2040
(dp2041
g73
(dp2042
g93
g94
ssg82
g2036
sg75
(lp2043
S'HTTP_ACCEPT_CHARSET'
p2044
asbag68
(g89
g70
NtRp2045
(dp2046
g73
(dp2047
g100
g101
ssg82
g2036
sg75
(lp2048
S':'
asbag68
(g89
g70
NtRp2049
(dp2050
g73
(dp2051
sg82
g2036
sg75
(lp2052
g68
(g69
g70
NtRp2053
(dp2054
g73
(dp2055
g81
I3
ssg82
g2049
sg75
(lp2056
g1036
asbasbasbag68
(g84
g70
NtRp2057
(dp2058
g73
(dp2059
sg82
g2011
sg75
(lp2060
g68
(g89
g70
NtRp2061
(dp2062
g73
(dp2063
g93
g94
ssg82
g2057
sg75
(lp2064
S'HTTP_ACCEPT_ENCODING'
p2065
asbag68
(g89
g70
NtRp2066
(dp2067
g73
(dp2068
g100
g101
ssg82
g2057
sg75
(lp2069
S':'
asbag68
(g89
g70
NtRp2070
(dp2071
g73
(dp2072
sg82
g2057
sg75
(lp2073
g68
(g69
g70
NtRp2074
(dp2075
g73
(dp2076
g81
I3
ssg82
g2070
sg75
(lp2077
g1058
asbasbasbag68
(g84
g70
NtRp2078
(dp2079
g73
(dp2080
sg82
g2011
sg75
(lp2081
g68
(g89
g70
NtRp2082
(dp2083
g73
(dp2084
g93
g94
ssg82
g2078
sg75
(lp2085
S'HTTP_ACCEPT_LANGUAGE'
p2086
asbag68
(g89
g70
NtRp2087
(dp2088
g73
(dp2089
g100
g101
ssg82
g2078
sg75
(lp2090
S':'
asbag68
(g89
g70
NtRp2091
(dp2092
g73
(dp2093
sg82
g2078
sg75
(lp2094
g68
(g69
g70
NtRp2095
(dp2096
g73
(dp2097
g81
I3
ssg82
g2091
sg75
(lp2098
g1080
asbasbasbag68
(g84
g70
NtRp2099
(dp2100
g73
(dp2101
sg82
g2011
sg75
(lp2102
g68
(g89
g70
NtRp2103
(dp2104
g73
(dp2105
g93
g94
ssg82
g2099
sg75
(lp2106
S'HTTP_CACHE_CONTROL'
p2107
asbag68
(g89
g70
NtRp2108
(dp2109
g73
(dp2110
g100
g101
ssg82
g2099
sg75
(lp2111
S':'
asbag68
(g89
g70
NtRp2112
(dp2113
g73
(dp2114
sg82
g2099
sg75
(lp2115
g68
(g69
g70
NtRp2116
(dp2117
g73
(dp2118
g81
I3
ssg82
g2112
sg75
(lp2119
g1102
asbasbasbag68
(g84
g70
NtRp2120
(dp2121
g73
(dp2122
sg82
g2011
sg75
(lp2123
g68
(g89
g70
NtRp2124
(dp2125
g73
(dp2126
g93
g94
ssg82
g2120
sg75
(lp2127
S'HTTP_CONNECTION'
p2128
asbag68
(g89
g70
NtRp2129
(dp2130
g73
(dp2131
g100
g101
ssg82
g2120
sg75
(lp2132
S':'
asbag68
(g89
g70
NtRp2133
(dp2134
g73
(dp2135
sg82
g2120
sg75
(lp2136
g68
(g69
g70
NtRp2137
(dp2138
g73
(dp2139
g81
I3
ssg82
g2133
sg75
(lp2140
g1124
asbasbasbag68
(g84
g70
NtRp2141
(dp2142
g73
(dp2143
sg82
g2011
sg75
(lp2144
g68
(g89
g70
NtRp2145
(dp2146
g73
(dp2147
g93
g94
ssg82
g2141
sg75
(lp2148
S'HTTP_COOKIE'
p2149
asbag68
(g89
g70
NtRp2150
(dp2151
g73
(dp2152
g100
g101
ssg82
g2141
sg75
(lp2153
S':'
asbag68
(g89
g70
NtRp2154
(dp2155
g73
(dp2156
sg82
g2141
sg75
(lp2157
g68
(g69
g70
NtRp2158
(dp2159
g73
(dp2160
g81
I3
ssg82
g2154
sg75
(lp2161
g1146
asbasbasbag68
(g84
g70
NtRp2162
(dp2163
g73
(dp2164
sg82
g2011
sg75
(lp2165
g68
(g89
g70
NtRp2166
(dp2167
g73
(dp2168
g93
g94
ssg82
g2162
sg75
(lp2169
S'HTTP_HOST'
p2170
asbag68
(g89
g70
NtRp2171
(dp2172
g73
(dp2173
g100
g101
ssg82
g2162
sg75
(lp2174
S':'
asbag68
(g89
g70
NtRp2175
(dp2176
g73
(dp2177
sg82
g2162
sg75
(lp2178
g68
(g69
g70
NtRp2179
(dp2180
g73
(dp2181
g81
I3
ssg82
g2175
sg75
(lp2182
g1168
asbasbasbag68
(g84
g70
NtRp2183
(dp2184
g73
(dp2185
sg82
g2011
sg75
(lp2186
g68
(g89
g70
NtRp2187
(dp2188
g73
(dp2189
g93
g94
ssg82
g2183
sg75
(lp2190
S'HTTP_USER_AGENT'
p2191
asbag68
(g89
g70
NtRp2192
(dp2193
g73
(dp2194
g100
g101
ssg82
g2183
sg75
(lp2195
S':'
asbag68
(g89
g70
NtRp2196
(dp2197
g73
(dp2198
sg82
g2183
sg75
(lp2199
g68
(g69
g70
NtRp2200
(dp2201
g73
(dp2202
g81
I3
ssg82
g2196
sg75
(lp2203
g1190
asbasbasbag68
(g84
g70
NtRp2204
(dp2205
g73
(dp2206
sg82
g2011
sg75
(lp2207
g68
(g89
g70
NtRp2208
(dp2209
g73
(dp2210
g93
g94
ssg82
g2204
sg75
(lp2211
S'PATH_INFO'
p2212
asbag68
(g89
g70
NtRp2213
(dp2214
g73
(dp2215
g100
g101
ssg82
g2204
sg75
(lp2216
S':'
asbag68
(g89
g70
NtRp2217
(dp2218
g73
(dp2219
sg82
g2204
sg75
(lp2220
g68
(g69
g70
NtRp2221
(dp2222
g73
(dp2223
g81
I3
ssg82
g2217
sg75
(lp2224
g1233
asbasbasbag68
(g84
g70
NtRp2225
(dp2226
g73
(dp2227
sg82
g2011
sg75
(lp2228
g68
(g89
g70
NtRp2229
(dp2230
g73
(dp2231
g93
g94
ssg82
g2225
sg75
(lp2232
S'QUERY_STRING'
p2233
asbag68
(g89
g70
NtRp2234
(dp2235
g73
(dp2236
g100
g101
ssg82
g2225
sg75
(lp2237
S':'
asbag68
(g89
g70
NtRp2238
(dp2239
g73
(dp2240
sg82
g2225
sg75
(lp2241
g68
(g69
g70
NtRp2242
(dp2243
g73
(dp2244
g81
I3
ssg82
g2238
sg75
(lp2245
S''
asbasbasbag68
(g84
g70
NtRp2246
(dp2247
g73
(dp2248
sg82
g2011
sg75
(lp2249
g68
(g89
g70
NtRp2250
(dp2251
g73
(dp2252
g93
g94
ssg82
g2246
sg75
(lp2253
S'REMOTE_ADDR'
p2254
asbag68
(g89
g70
NtRp2255
(dp2256
g73
(dp2257
g100
g101
ssg82
g2246
sg75
(lp2258
S':'
asbag68
(g89
g70
NtRp2259
(dp2260
g73
(dp2261
sg82
g2246
sg75
(lp2262
g68
(g69
g70
NtRp2263
(dp2264
g73
(dp2265
g81
I3
ssg82
g2259
sg75
(lp2266
g201
asbasbasbag68
(g84
g70
NtRp2267
(dp2268
g73
(dp2269
sg82
g2011
sg75
(lp2270
g68
(g89
g70
NtRp2271
(dp2272
g73
(dp2273
g93
g94
ssg82
g2267
sg75
(lp2274
S'REMOTE_PORT'
p2275
asbag68
(g89
g70
NtRp2276
(dp2277
g73
(dp2278
g100
g101
ssg82
g2267
sg75
(lp2279
S':'
asbag68
(g89
g70
NtRp2280
(dp2281
g73
(dp2282
sg82
g2267
sg75
(lp2283
g68
(g69
g70
NtRp2284
(dp2285
g73
(dp2286
g81
I3
ssg82
g2280
sg75
(lp2287
g1297
asbasbasbag68
(g84
g70
NtRp2288
(dp2289
g73
(dp2290
sg82
g2011
sg75
(lp2291
g68
(g89
g70
NtRp2292
(dp2293
g73
(dp2294
g93
g94
ssg82
g2288
sg75
(lp2295
S'REQUEST_METHOD'
p2296
asbag68
(g89
g70
NtRp2297
(dp2298
g73
(dp2299
g100
g101
ssg82
g2288
sg75
(lp2300
S':'
asbag68
(g89
g70
NtRp2301
(dp2302
g73
(dp2303
sg82
g2288
sg75
(lp2304
g68
(g69
g70
NtRp2305
(dp2306
g73
(dp2307
g81
I3
ssg82
g2301
sg75
(lp2308
g1319
asbasbasbag68
(g84
g70
NtRp2309
(dp2310
g73
(dp2311
sg82
g2011
sg75
(lp2312
g68
(g89
g70
NtRp2313
(dp2314
g73
(dp2315
g93
g94
ssg82
g2309
sg75
(lp2316
S'SCRIPT_NAME'
p2317
asbag68
(g89
g70
NtRp2318
(dp2319
g73
(dp2320
g100
g101
ssg82
g2309
sg75
(lp2321
S':'
asbag68
(g89
g70
NtRp2322
(dp2323
g73
(dp2324
sg82
g2309
sg75
(lp2325
g68
(g69
g70
NtRp2326
(dp2327
g73
(dp2328
g81
I3
ssg82
g2322
sg75
(lp2329
S''
asbasbasbag68
(g84
g70
NtRp2330
(dp2331
g73
(dp2332
sg82
g2011
sg75
(lp2333
g68
(g89
g70
NtRp2334
(dp2335
g73
(dp2336
g93
g94
ssg82
g2330
sg75
(lp2337
S'SERVER_NAME'
p2338
asbag68
(g89
g70
NtRp2339
(dp2340
g73
(dp2341
g100
g101
ssg82
g2330
sg75
(lp2342
S':'
asbag68
(g89
g70
NtRp2343
(dp2344
g73
(dp2345
sg82
g2330
sg75
(lp2346
g68
(g69
g70
NtRp2347
(dp2348
g73
(dp2349
g81
I3
ssg82
g2343
sg75
(lp2350
g1362
asbasbasbag68
(g84
g70
NtRp2351
(dp2352
g73
(dp2353
sg82
g2011
sg75
(lp2354
g68
(g89
g70
NtRp2355
(dp2356
g73
(dp2357
g93
g94
ssg82
g2351
sg75
(lp2358
S'SERVER_PORT'
p2359
asbag68
(g89
g70
NtRp2360
(dp2361
g73
(dp2362
g100
g101
ssg82
g2351
sg75
(lp2363
S':'
asbag68
(g89
g70
NtRp2364
(dp2365
g73
(dp2366
sg82
g2351
sg75
(lp2367
g68
(g69
g70
NtRp2368
(dp2369
g73
(dp2370
g81
I3
ssg82
g2364
sg75
(lp2371
g1384
asbasbasbag68
(g84
g70
NtRp2372
(dp2373
g73
(dp2374
sg82
g2011
sg75
(lp2375
g68
(g89
g70
NtRp2376
(dp2377
g73
(dp2378
g93
g94
ssg82
g2372
sg75
(lp2379
S'SERVER_PROTOCOL'
p2380
asbag68
(g89
g70
NtRp2381
(dp2382
g73
(dp2383
g100
g101
ssg82
g2372
sg75
(lp2384
S':'
asbag68
(g89
g70
NtRp2385
(dp2386
g73
(dp2387
sg82
g2372
sg75
(lp2388
g68
(g69
g70
NtRp2389
(dp2390
g73
(dp2391
g81
I3
ssg82
g2385
sg75
(lp2392
g1406
asbasbasbag68
(g84
g70
NtRp2393
(dp2394
g73
(dp2395
sg82
g2011
sg75
(lp2396
g68
(g89
g70
NtRp2397
(dp2398
g73
(dp2399
g93
g94
ssg82
g2393
sg75
(lp2400
S'SERVER_SOFTWARE'
p2401
asbag68
(g89
g70
NtRp2402
(dp2403
g73
(dp2404
g100
g101
ssg82
g2393
sg75
(lp2405
S':'
asbag68
(g89
g70
NtRp2406
(dp2407
g73
(dp2408
sg82
g2393
sg75
(lp2409
g68
(g69
g70
NtRp2410
(dp2411
g73
(dp2412
g81
I3
ssg82
g2406
sg75
(lp2413
g1428
asbasbasbag68
(g84
g70
NtRp2414
(dp2415
g73
(dp2416
sg82
g2011
sg75
(lp2417
g68
(g89
g70
NtRp2418
(dp2419
g73
(dp2420
g93
g94
ssg82
g2414
sg75
(lp2421
S'wsgi.errors'
p2422
asbag68
(g89
g70
NtRp2423
(dp2424
g73
(dp2425
g100
g101
ssg82
g2414
sg75
(lp2426
S':'
asbag68
(g89
g70
NtRp2427
(dp2428
g73
(dp2429
sg82
g2414
sg75
(lp2430
g68
(g69
g70
NtRp2431
(dp2432
g73
(dp2433
g81
I3
ssg82
g2427
sg75
(lp2434
S"<open file '<stderr>', mode 'w' at 0x100283270>"
p2435
asbasbasbag68
(g84
g70
NtRp2436
(dp2437
g73
(dp2438
sg82
g2011
sg75
(lp2439
g68
(g89
g70
NtRp2440
(dp2441
g73
(dp2442
g93
g94
ssg82
g2436
sg75
(lp2443
S'wsgi.file_wrapper'
p2444
asbag68
(g89
g70
NtRp2445
(dp2446
g73
(dp2447
g100
g101
ssg82
g2436
sg75
(lp2448
S':'
asbag68
(g89
g70
NtRp2449
(dp2450
g73
(dp2451
sg82
g2436
sg75
(lp2452
g68
(g69
g70
NtRp2453
(dp2454
g73
(dp2455
g81
I3
ssg82
g2449
sg75
(lp2456
S'<class gluon.rocket.FileWrapper at 0x101503738>'
p2457
asbasbasbag68
(g84
g70
NtRp2458
(dp2459
g73
(dp2460
sg82
g2011
sg75
(lp2461
g68
(g89
g70
NtRp2462
(dp2463
g73
(dp2464
g93
g94
ssg82
g2458
sg75
(lp2465
S'wsgi.input'
p2466
asbag68
(g89
g70
NtRp2467
(dp2468
g73
(dp2469
g100
g101
ssg82
g2458
sg75
(lp2470
S':'
asbag68
(g89
g70
NtRp2471
(dp2472
g73
(dp2473
sg82
g2458
sg75
(lp2474
g68
(g69
g70
NtRp2475
(dp2476
g73
(dp2477
g81
I3
ssg82
g2471
sg75
(lp2478
S'<cStringIO.StringO object at 0x101e21420>'
p2479
asbasbasbag68
(g84
g70
NtRp2480
(dp2481
g73
(dp2482
sg82
g2011
sg75
(lp2483
g68
(g89
g70
NtRp2484
(dp2485
g73
(dp2486
g93
g94
ssg82
g2480
sg75
(lp2487
S'wsgi.multiprocess'
p2488
asbag68
(g89
g70
NtRp2489
(dp2490
g73
(dp2491
g100
g101
ssg82
g2480
sg75
(lp2492
S':'
asbag68
(g89
g70
NtRp2493
(dp2494
g73
(dp2495
sg82
g2480
sg75
(lp2496
g68
(g69
g70
NtRp2497
(dp2498
g73
(dp2499
g81
I3
ssg82
g2493
sg75
(lp2500
g111
asbasbasbag68
(g84
g70
NtRp2501
(dp2502
g73
(dp2503
sg82
g2011
sg75
(lp2504
g68
(g89
g70
NtRp2505
(dp2506
g73
(dp2507
g93
g94
ssg82
g2501
sg75
(lp2508
S'wsgi.multithread'
p2509
asbag68
(g89
g70
NtRp2510
(dp2511
g73
(dp2512
g100
g101
ssg82
g2501
sg75
(lp2513
S':'
asbag68
(g89
g70
NtRp2514
(dp2515
g73
(dp2516
sg82
g2501
sg75
(lp2517
g68
(g69
g70
NtRp2518
(dp2519
g73
(dp2520
g81
I3
ssg82
g2514
sg75
(lp2521
g1602
asbasbasbag68
(g84
g70
NtRp2522
(dp2523
g73
(dp2524
sg82
g2011
sg75
(lp2525
g68
(g89
g70
NtRp2526
(dp2527
g73
(dp2528
g93
g94
ssg82
g2522
sg75
(lp2529
S'wsgi.run_once'
p2530
asbag68
(g89
g70
NtRp2531
(dp2532
g73
(dp2533
g100
g101
ssg82
g2522
sg75
(lp2534
S':'
asbag68
(g89
g70
NtRp2535
(dp2536
g73
(dp2537
sg82
g2522
sg75
(lp2538
g68
(g69
g70
NtRp2539
(dp2540
g73
(dp2541
g81
I3
ssg82
g2535
sg75
(lp2542
g111
asbasbasbag68
(g84
g70
NtRp2543
(dp2544
g73
(dp2545
sg82
g2011
sg75
(lp2546
g68
(g89
g70
NtRp2547
(dp2548
g73
(dp2549
g93
g94
ssg82
g2543
sg75
(lp2550
S'wsgi.url_scheme'
p2551
asbag68
(g89
g70
NtRp2552
(dp2553
g73
(dp2554
g100
g101
ssg82
g2543
sg75
(lp2555
S':'
asbag68
(g89
g70
NtRp2556
(dp2557
g73
(dp2558
sg82
g2543
sg75
(lp2559
g68
(g69
g70
NtRp2560
(dp2561
g73
(dp2562
g81
I3
ssg82
g2556
sg75
(lp2563
g1645
asbasbasbag68
(g84
g70
NtRp2564
(dp2565
g73
(dp2566
sg82
g2011
sg75
(lp2567
g68
(g89
g70
NtRp2568
(dp2569
g73
(dp2570
g93
g94
ssg82
g2564
sg75
(lp2571
S'wsgi.version'
p2572
asbag68
(g89
g70
NtRp2573
(dp2574
g73
(dp2575
g100
g101
ssg82
g2564
sg75
(lp2576
S':'
asbag68
(g89
g70
NtRp2577
(dp2578
g73
(dp2579
sg82
g2564
sg75
(lp2580
g68
(g69
g70
NtRp2581
(dp2582
g73
(dp2583
g81
I3
ssg82
g2577
sg75
(lp2584
S'1'
asbasbasbasbasbasbasbasbasbasbasbasbasbsS'frames'
p2585
(lp2586
(dp2587
S'file'
p2588
S'/Users/ilustre/development/repo/jittest/web2py/gluon/restricted.py'
p2589
sS'dump'
p2590
(dp2591
S'code'
p2592
S"'# -*- coding: utf-8 -*-\\n# this file is released ...\\n\\n\\n\\n\\n\\n\\n\\nresponse._vars=response._caller(treemap)\\n'"
p2593
sS'layer'
p2594
S"'/Users/ilustre/development/repo/jittest/web2py/applications/infovis/controllers/visual.py'"
p2595
sS'global compile2'
p2596
S'<function compile2>'
p2597
sS'ccode'
p2598
S'undefined'
p2599
ssS'lnum'
p2600
I191
sS'lines'
p2601
(dp2602
I192
S'        exec ccode in environment'
p2603
sI193
S'    except HTTP:'
p2604
sI194
S'        raise'
p2605
sI195
S'    except Exception, error:'
p2606
sI186
S"    environment['__file__'] = layer"
p2607
sI187
S'    try:'
p2608
sI188
S'        if type(code) == types.CodeType:'
p2609
sI189
S'            ccode = code'
p2610
sI190
S'        else:'
p2611
sI191
S'            ccode = compile2(code,layer)'
p2612
ssS'call'
p2613
S"(code='# -*- coding: utf-8 -*-\\n# this file is released ...\\n\\n\\n\\n\\n\\n\\n\\nresponse._vars=response._caller(treemap)\\n', environment={'A': <class 'gluon.html.A'>, 'Auth': <class 'gluon.tools.Auth'>, 'B': <class 'gluon.html.B'>, 'BEAUTIFY': <class 'gluon.html.BEAUTIFY'>, 'BODY': <class 'gluon.html.BODY'>, 'BR': <class 'gluon.html.BR'>, 'BUTTON': <class 'gluon.html.BUTTON'>, 'CAT': <class 'gluon.html.CAT'>, 'CENTER': <class 'gluon.html.CENTER'>, 'CLEANUP': <class 'gluon.validators.CLEANUP'>, ...}, layer='/Users/ilustre/development/repo/jittest/web2py/applications/infovis/controllers/visual.py')"
p2614
sS'func'
p2615
S'restricted'
p2616
sa(dp2617
g2588
S'/Users/ilustre/development/repo/jittest/web2py/gluon/restricted.py'
p2618
sg2590
(dp2619
S'builtincompile'
p2620
S'<built-in function compile>'
p2621
sS'code'
p2622
S"'# -*- coding: utf-8 -*-\\n# this file is released ...\\n\\n\\n\\n\\n\\n\\n\\nresponse._vars=response._caller(treemap)\\n'"
p2623
sS'code.rstrip'
p2624
S'<built-in method rstrip of str object>'
p2625
sS').replace'
p2626
g2599
sS'layer'
p2627
S"'/Users/ilustre/development/repo/jittest/web2py/applications/infovis/controllers/visual.py'"
p2628
ssg2600
I178
sg2601
(dp2629
I173
S''
sI174
S'def compile2(code,layer):'
p2630
sI175
S'    """'
p2631
sI176
S"    The +'\\n' is necessary else compile fails when code ends in a comment."
p2632
sI177
S'    """'
p2633
sI178
S"    return compile(code.rstrip().replace('\\r\\n','\\n')+'\\n', layer, 'exec')"
p2634
sI179
S''
sI180
S"def restricted(code, environment={}, layer='Unknown'):"
p2635
sI181
S'    """'
p2636
sI182
S'    runs code in environment and returns the output. if an exception occurs'
p2637
ssg2613
S"(code='# -*- coding: utf-8 -*-\\n# this file is released ...\\n\\n\\n\\n\\n\\n\\n\\nresponse._vars=response._caller(treemap)\\n', layer='/Users/ilustre/development/repo/jittest/web2py/applications/infovis/controllers/visual.py')"
p2638
sg2615
S'compile2'
p2639
sasS'pyver'
p2640
S'Python 2.7.2: /Users/ilustre/virtual_pythons/python27_gold/bin/python'
p2641
sS'session'
p2642
g68
(g69
g70
NtRp2643
(dp2644
g73
(dp2645
sg75
(lp2646
g68
(g77
g70
NtRp2647
(dp2648
g73
(dp2649
g81
I5
ssg82
Nsg75
(lp2650
sbasbsS'etype'
p2651
S"<type 'exceptions.SyntaxError'>"
p2652
sS'date'
p2653
S'Mon Aug 15 00:26:39 2011'
p2654
sS'response'
p2655
g68
(g69
g70
NtRp2656
(dp2657
g73
(dp2658
sg75
(lp2659
g68
(g77
g70
NtRp2660
(dp2661
g73
(dp2662
g81
I5
ssg82
Nsg75
(lp2663
g68
(g84
g70
NtRp2664
(dp2665
g73
(dp2666
sg82
g2660
sg75
(lp2667
g68
(g89
g70
NtRp2668
(dp2669
g73
(dp2670
g93
g94
ssg82
g2664
sg75
(lp2671
g166
asbag68
(g89
g70
NtRp2672
(dp2673
g73
(dp2674
g100
g101
ssg82
g2664
sg75
(lp2675
S':'
asbag68
(g89
g70
NtRp2676
(dp2677
g73
(dp2678
sg82
g2664
sg75
(lp2679
g68
(g69
g70
NtRp2680
(dp2681
g73
(dp2682
g81
I5
ssg82
g2676
sg75
(lp2683
S'<cStringIO.StringO object at 0x101309490>'
p2684
asbasbasbag68
(g84
g70
NtRp2685
(dp2686
g73
(dp2687
sg82
g2660
sg75
(lp2688
g68
(g89
g70
NtRp2689
(dp2690
g73
(dp2691
g93
g94
ssg82
g2685
sg75
(lp2692
g232
asbag68
(g89
g70
NtRp2693
(dp2694
g73
(dp2695
g100
g101
ssg82
g2685
sg75
(lp2696
S':'
asbag68
(g89
g70
NtRp2697
(dp2698
g73
(dp2699
sg82
g2685
sg75
(lp2700
g68
(g69
g70
NtRp2701
(dp2702
g73
(dp2703
g81
I5
ssg82
g2697
sg75
(lp2704
g68
(g77
g70
NtRp2705
(dp2706
g73
(dp2707
g81
I4
ssg82
Nsg75
(lp2708
g68
(g84
g70
NtRp2709
(dp2710
g73
(dp2711
sg82
g2705
sg75
(lp2712
g68
(g89
g70
NtRp2713
(dp2714
g73
(dp2715
g93
g94
ssg82
g2709
sg75
(lp2716
S'session_id_infovis'
p2717
asbag68
(g89
g70
NtRp2718
(dp2719
g73
(dp2720
g100
g101
ssg82
g2709
sg75
(lp2721
S':'
asbag68
(g89
g70
NtRp2722
(dp2723
g73
(dp2724
sg82
g2709
sg75
(lp2725
g68
(g69
g70
NtRp2726
(dp2727
g73
(dp2728
g81
I4
ssg82
g2722
sg75
(lp2729
g68
(g77
g70
NtRp2730
(dp2731
g73
(dp2732
g81
I3
ssg82
Nsg75
(lp2733
g68
(g84
g70
NtRp2734
(dp2735
g73
(dp2736
sg82
g2730
sg75
(lp2737
g68
(g89
g70
NtRp2738
(dp2739
g73
(dp2740
g93
g94
ssg82
g2734
sg75
(lp2741
g282
asbag68
(g89
g70
NtRp2742
(dp2743
g73
(dp2744
g100
g101
ssg82
g2734
sg75
(lp2745
S':'
asbag68
(g89
g70
NtRp2746
(dp2747
g73
(dp2748
sg82
g2734
sg75
(lp2749
g68
(g69
g70
NtRp2750
(dp2751
g73
(dp2752
g81
I3
ssg82
g2746
sg75
(lp2753
S''
asbasbasbag68
(g84
g70
NtRp2754
(dp2755
g73
(dp2756
sg82
g2730
sg75
(lp2757
g68
(g89
g70
NtRp2758
(dp2759
g73
(dp2760
g93
g94
ssg82
g2754
sg75
(lp2761
g303
asbag68
(g89
g70
NtRp2762
(dp2763
g73
(dp2764
g100
g101
ssg82
g2754
sg75
(lp2765
S':'
asbag68
(g89
g70
NtRp2766
(dp2767
g73
(dp2768
sg82
g2754
sg75
(lp2769
g68
(g69
g70
NtRp2770
(dp2771
g73
(dp2772
g81
I3
ssg82
g2766
sg75
(lp2773
S''
asbasbasbag68
(g84
g70
NtRp2774
(dp2775
g73
(dp2776
sg82
g2730
sg75
(lp2777
g68
(g89
g70
NtRp2778
(dp2779
g73
(dp2780
g93
g94
ssg82
g2774
sg75
(lp2781
g324
asbag68
(g89
g70
NtRp2782
(dp2783
g73
(dp2784
g100
g101
ssg82
g2774
sg75
(lp2785
S':'
asbag68
(g89
g70
NtRp2786
(dp2787
g73
(dp2788
sg82
g2774
sg75
(lp2789
g68
(g69
g70
NtRp2790
(dp2791
g73
(dp2792
g81
I3
ssg82
g2786
sg75
(lp2793
S''
asbasbasbag68
(g84
g70
NtRp2794
(dp2795
g73
(dp2796
sg82
g2730
sg75
(lp2797
g68
(g89
g70
NtRp2798
(dp2799
g73
(dp2800
g93
g94
ssg82
g2794
sg75
(lp2801
g345
asbag68
(g89
g70
NtRp2802
(dp2803
g73
(dp2804
g100
g101
ssg82
g2794
sg75
(lp2805
S':'
asbag68
(g89
g70
NtRp2806
(dp2807
g73
(dp2808
sg82
g2794
sg75
(lp2809
g68
(g69
g70
NtRp2810
(dp2811
g73
(dp2812
g81
I3
ssg82
g2806
sg75
(lp2813
S''
asbasbasbag68
(g84
g70
NtRp2814
(dp2815
g73
(dp2816
sg82
g2730
sg75
(lp2817
g68
(g89
g70
NtRp2818
(dp2819
g73
(dp2820
g93
g94
ssg82
g2814
sg75
(lp2821
g366
asbag68
(g89
g70
NtRp2822
(dp2823
g73
(dp2824
g100
g101
ssg82
g2814
sg75
(lp2825
S':'
asbag68
(g89
g70
NtRp2826
(dp2827
g73
(dp2828
sg82
g2814
sg75
(lp2829
g68
(g69
g70
NtRp2830
(dp2831
g73
(dp2832
g81
I3
ssg82
g2826
sg75
(lp2833
S''
asbasbasbag68
(g84
g70
NtRp2834
(dp2835
g73
(dp2836
sg82
g2730
sg75
(lp2837
g68
(g89
g70
NtRp2838
(dp2839
g73
(dp2840
g93
g94
ssg82
g2834
sg75
(lp2841
g387
asbag68
(g89
g70
NtRp2842
(dp2843
g73
(dp2844
g100
g101
ssg82
g2834
sg75
(lp2845
S':'
asbag68
(g89
g70
NtRp2846
(dp2847
g73
(dp2848
sg82
g2834
sg75
(lp2849
g68
(g69
g70
NtRp2850
(dp2851
g73
(dp2852
g81
I3
ssg82
g2846
sg75
(lp2853
S'/'
asbasbasbag68
(g84
g70
NtRp2854
(dp2855
g73
(dp2856
sg82
g2730
sg75
(lp2857
g68
(g89
g70
NtRp2858
(dp2859
g73
(dp2860
g93
g94
ssg82
g2854
sg75
(lp2861
g408
asbag68
(g89
g70
NtRp2862
(dp2863
g73
(dp2864
g100
g101
ssg82
g2854
sg75
(lp2865
S':'
asbag68
(g89
g70
NtRp2866
(dp2867
g73
(dp2868
sg82
g2854
sg75
(lp2869
g68
(g69
g70
NtRp2870
(dp2871
g73
(dp2872
g81
I3
ssg82
g2866
sg75
(lp2873
S''
asbasbasbag68
(g84
g70
NtRp2874
(dp2875
g73
(dp2876
sg82
g2730
sg75
(lp2877
g68
(g89
g70
NtRp2878
(dp2879
g73
(dp2880
g93
g94
ssg82
g2874
sg75
(lp2881
g429
asbag68
(g89
g70
NtRp2882
(dp2883
g73
(dp2884
g100
g101
ssg82
g2874
sg75
(lp2885
S':'
asbag68
(g89
g70
NtRp2886
(dp2887
g73
(dp2888
sg82
g2874
sg75
(lp2889
g68
(g69
g70
NtRp2890
(dp2891
g73
(dp2892
g81
I3
ssg82
g2886
sg75
(lp2893
S''
asbasbasbasbasbasbasbasbasbasbasbag68
(g84
g70
NtRp2894
(dp2895
g73
(dp2896
sg82
g2660
sg75
(lp2897
g68
(g89
g70
NtRp2898
(dp2899
g73
(dp2900
g93
g94
ssg82
g2894
sg75
(lp2901
S'files'
p2902
asbag68
(g89
g70
NtRp2903
(dp2904
g73
(dp2905
g100
g101
ssg82
g2894
sg75
(lp2906
S':'
asbag68
(g89
g70
NtRp2907
(dp2908
g73
(dp2909
sg82
g2894
sg75
(lp2910
g68
(g69
g70
NtRp2911
(dp2912
g73
(dp2913
g81
I5
ssg82
g2907
sg75
(lp2914
g68
(g77
g70
NtRp2915
(dp2916
g73
(dp2917
g81
I4
ssg82
Nsg75
(lp2918
sbasbasbasbag68
(g84
g70
NtRp2919
(dp2920
g73
(dp2921
sg82
g2660
sg75
(lp2922
g68
(g89
g70
NtRp2923
(dp2924
g73
(dp2925
g93
g94
ssg82
g2919
sg75
(lp2926
S'flash'
p2927
asbag68
(g89
g70
NtRp2928
(dp2929
g73
(dp2930
g100
g101
ssg82
g2919
sg75
(lp2931
S':'
asbag68
(g89
g70
NtRp2932
(dp2933
g73
(dp2934
sg82
g2919
sg75
(lp2935
g68
(g69
g70
NtRp2936
(dp2937
g73
(dp2938
g81
I5
ssg82
g2932
sg75
(lp2939
S''
asbasbasbag68
(g84
g70
NtRp2940
(dp2941
g73
(dp2942
sg82
g2660
sg75
(lp2943
g68
(g89
g70
NtRp2944
(dp2945
g73
(dp2946
g93
g94
ssg82
g2940
sg75
(lp2947
S'generic_patterns'
p2948
asbag68
(g89
g70
NtRp2949
(dp2950
g73
(dp2951
g100
g101
ssg82
g2940
sg75
(lp2952
S':'
asbag68
(g89
g70
NtRp2953
(dp2954
g73
(dp2955
sg82
g2940
sg75
(lp2956
g68
(g69
g70
NtRp2957
(dp2958
g73
(dp2959
g81
I5
ssg82
g2953
sg75
(lp2960
g68
(g77
g70
NtRp2961
(dp2962
g73
(dp2963
g81
I4
ssg82
Nsg75
(lp2964
g68
(g84
g70
NtRp2965
(dp2966
g73
(dp2967
sg82
g2961
sg75
(lp2968
g68
(g89
g70
NtRp2969
(dp2970
g73
(dp2971
sg82
g2965
sg75
(lp2972
g68
(g69
g70
NtRp2973
(dp2974
g73
(dp2975
g81
I4
ssg82
g2969
sg75
(lp2976
S'*'
asbasbasbasbasbasbasbag68
(g84
g70
NtRp2977
(dp2978
g73
(dp2979
sg82
g2660
sg75
(lp2980
g68
(g89
g70
NtRp2981
(dp2982
g73
(dp2983
g93
g94
ssg82
g2977
sg75
(lp2984
S'headers'
p2985
asbag68
(g89
g70
NtRp2986
(dp2987
g73
(dp2988
g100
g101
ssg82
g2977
sg75
(lp2989
S':'
asbag68
(g89
g70
NtRp2990
(dp2991
g73
(dp2992
sg82
g2977
sg75
(lp2993
g68
(g69
g70
NtRp2994
(dp2995
g73
(dp2996
g81
I5
ssg82
g2990
sg75
(lp2997
g68
(g77
g70
NtRp2998
(dp2999
g73
(dp3000
g81
I4
ssg82
Nsg75
(lp3001
g68
(g84
g70
NtRp3002
(dp3003
g73
(dp3004
sg82
g2998
sg75
(lp3005
g68
(g89
g70
NtRp3006
(dp3007
g73
(dp3008
g93
g94
ssg82
g3002
sg75
(lp3009
S'Cache-Control'
p3010
asbag68
(g89
g70
NtRp3011
(dp3012
g73
(dp3013
g100
g101
ssg82
g3002
sg75
(lp3014
S':'
asbag68
(g89
g70
NtRp3015
(dp3016
g73
(dp3017
sg82
g3002
sg75
(lp3018
g68
(g69
g70
NtRp3019
(dp3020
g73
(dp3021
g81
I4
ssg82
g3015
sg75
(lp3022
S'no-store, no-cache, must-revalidate, post-check=0, pre-check=0'
p3023
asbasbasbag68
(g84
g70
NtRp3024
(dp3025
g73
(dp3026
sg82
g2998
sg75
(lp3027
g68
(g89
g70
NtRp3028
(dp3029
g73
(dp3030
g93
g94
ssg82
g3024
sg75
(lp3031
S'Content-Type'
p3032
asbag68
(g89
g70
NtRp3033
(dp3034
g73
(dp3035
g100
g101
ssg82
g3024
sg75
(lp3036
S':'
asbag68
(g89
g70
NtRp3037
(dp3038
g73
(dp3039
sg82
g3024
sg75
(lp3040
g68
(g69
g70
NtRp3041
(dp3042
g73
(dp3043
g81
I4
ssg82
g3037
sg75
(lp3044
S'text/html; charset=utf-8'
p3045
asbasbasbag68
(g84
g70
NtRp3046
(dp3047
g73
(dp3048
sg82
g2998
sg75
(lp3049
g68
(g89
g70
NtRp3050
(dp3051
g73
(dp3052
g93
g94
ssg82
g3046
sg75
(lp3053
S'Expires'
p3054
asbag68
(g89
g70
NtRp3055
(dp3056
g73
(dp3057
g100
g101
ssg82
g3046
sg75
(lp3058
S':'
asbag68
(g89
g70
NtRp3059
(dp3060
g73
(dp3061
sg82
g3046
sg75
(lp3062
g68
(g69
g70
NtRp3063
(dp3064
g73
(dp3065
g81
I4
ssg82
g3059
sg75
(lp3066
S'Mon, 15 Aug 2011 04:26:39 GMT'
p3067
asbasbasbag68
(g84
g70
NtRp3068
(dp3069
g73
(dp3070
sg82
g2998
sg75
(lp3071
g68
(g89
g70
NtRp3072
(dp3073
g73
(dp3074
g93
g94
ssg82
g3068
sg75
(lp3075
S'Pragma'
p3076
asbag68
(g89
g70
NtRp3077
(dp3078
g73
(dp3079
g100
g101
ssg82
g3068
sg75
(lp3080
S':'
asbag68
(g89
g70
NtRp3081
(dp3082
g73
(dp3083
sg82
g3068
sg75
(lp3084
g68
(g69
g70
NtRp3085
(dp3086
g73
(dp3087
g81
I4
ssg82
g3081
sg75
(lp3088
S'no-cache'
p3089
asbasbasbag68
(g84
g70
NtRp3090
(dp3091
g73
(dp3092
sg82
g2998
sg75
(lp3093
g68
(g89
g70
NtRp3094
(dp3095
g73
(dp3096
g93
g94
ssg82
g3090
sg75
(lp3097
S'X-Powered-By'
p3098
asbag68
(g89
g70
NtRp3099
(dp3100
g73
(dp3101
g100
g101
ssg82
g3090
sg75
(lp3102
S':'
asbag68
(g89
g70
NtRp3103
(dp3104
g73
(dp3105
sg82
g3090
sg75
(lp3106
g68
(g69
g70
NtRp3107
(dp3108
g73
(dp3109
g81
I4
ssg82
g3103
sg75
(lp3110
S'web2py'
p3111
asbasbasbasbasbasbasbag68
(g84
g70
NtRp3112
(dp3113
g73
(dp3114
sg82
g2660
sg75
(lp3115
g68
(g89
g70
NtRp3116
(dp3117
g73
(dp3118
g93
g94
ssg82
g3112
sg75
(lp3119
S'menu'
p3120
asbag68
(g89
g70
NtRp3121
(dp3122
g73
(dp3123
g100
g101
ssg82
g3112
sg75
(lp3124
S':'
asbag68
(g89
g70
NtRp3125
(dp3126
g73
(dp3127
sg82
g3112
sg75
(lp3128
g68
(g69
g70
NtRp3129
(dp3130
g73
(dp3131
g81
I5
ssg82
g3125
sg75
(lp3132
g68
(g77
g70
NtRp3133
(dp3134
g73
(dp3135
g81
I4
ssg82
Nsg75
(lp3136
g68
(g84
g70
NtRp3137
(dp3138
g73
(dp3139
sg82
g3133
sg75
(lp3140
g68
(g89
g70
NtRp3141
(dp3142
g73
(dp3143
sg82
g3137
sg75
(lp3144
g68
(g69
g70
NtRp3145
(dp3146
g73
(dp3147
g81
I4
ssg82
g3141
sg75
(lp3148
g68
(g77
g70
NtRp3149
(dp3150
g73
(dp3151
g81
I3
ssg82
Nsg75
(lp3152
g68
(g84
g70
NtRp3153
(dp3154
g73
(dp3155
sg82
g3149
sg75
(lp3156
g68
(g89
g70
NtRp3157
(dp3158
g73
(dp3159
sg82
g3153
sg75
(lp3160
g68
(g69
g70
NtRp3161
(dp3162
g73
(dp3163
g81
I3
ssg82
g3157
sg75
(lp3164
cgluon.languages
lazyT_unpickle
p3165
(S't\x04\x00\x00\x00Home'
tRp3166
asbasbasbag68
(g84
g70
NtRp3167
(dp3168
g73
(dp3169
sg82
g3149
sg75
(lp3170
g68
(g89
g70
NtRp3171
(dp3172
g73
(dp3173
sg82
g3167
sg75
(lp3174
g68
(g69
g70
NtRp3175
(dp3176
g73
(dp3177
g81
I3
ssg82
g3171
sg75
(lp3178
g111
asbasbasbag68
(g84
g70
NtRp3179
(dp3180
g73
(dp3181
sg82
g3149
sg75
(lp3182
g68
(g89
g70
NtRp3183
(dp3184
g73
(dp3185
sg82
g3179
sg75
(lp3186
g68
(g69
g70
NtRp3187
(dp3188
g73
(dp3189
g81
I3
ssg82
g3183
sg75
(lp3190
S'/infovis/default/index'
p3191
asbasbasbag68
(g84
g70
NtRp3192
(dp3193
g73
(dp3194
sg82
g3149
sg75
(lp3195
g68
(g89
g70
NtRp3196
(dp3197
g73
(dp3198
sg82
g3192
sg75
(lp3199
g68
(g69
g70
NtRp3200
(dp3201
g73
(dp3202
g81
I3
ssg82
g3196
sg75
(lp3203
g68
(g77
g70
NtRp3204
(dp3205
g73
(dp3206
g81
I2
ssg82
Nsg75
(lp3207
sbasbasbasbasbasbasbasbag68
(g84
g70
NtRp3208
(dp3209
g73
(dp3210
sg82
g3133
sg75
(lp3211
g68
(g89
g70
NtRp3212
(dp3213
g73
(dp3214
sg82
g3208
sg75
(lp3215
g68
(g69
g70
NtRp3216
(dp3217
g73
(dp3218
g81
I4
ssg82
g3212
sg75
(lp3219
g68
(g77
g70
NtRp3220
(dp3221
g73
(dp3222
g81
I3
ssg82
Nsg75
(lp3223
g68
(g84
g70
NtRp3224
(dp3225
g73
(dp3226
sg82
g3220
sg75
(lp3227
g68
(g89
g70
NtRp3228
(dp3229
g73
(dp3230
sg82
g3224
sg75
(lp3231
g68
(g69
g70
NtRp3232
(dp3233
g73
(dp3234
g81
I3
ssg82
g3228
sg75
(lp3235
g3165
(S's\x08\x00\x00\x00This App'
tRp3236
asbasbasbag68
(g84
g70
NtRp3237
(dp3238
g73
(dp3239
sg82
g3220
sg75
(lp3240
g68
(g89
g70
NtRp3241
(dp3242
g73
(dp3243
sg82
g3237
sg75
(lp3244
g68
(g69
g70
NtRp3245
(dp3246
g73
(dp3247
g81
I3
ssg82
g3241
sg75
(lp3248
g111
asbasbasbag68
(g84
g70
NtRp3249
(dp3250
g73
(dp3251
sg82
g3220
sg75
(lp3252
g68
(g89
g70
NtRp3253
(dp3254
g73
(dp3255
sg82
g3249
sg75
(lp3256
g68
(g69
g70
NtRp3257
(dp3258
g73
(dp3259
g81
I3
ssg82
g3253
sg75
(lp3260
S'/admin/default/design/infovis'
p3261
asbasbasbag68
(g84
g70
NtRp3262
(dp3263
g73
(dp3264
sg82
g3220
sg75
(lp3265
g68
(g89
g70
NtRp3266
(dp3267
g73
(dp3268
sg82
g3262
sg75
(lp3269
g68
(g69
g70
NtRp3270
(dp3271
g73
(dp3272
g81
I3
ssg82
g3266
sg75
(lp3273
g68
(g77
g70
NtRp3274
(dp3275
g73
(dp3276
g81
I2
ssg82
Nsg75
(lp3277
g68
(g84
g70
NtRp3278
(dp3279
g73
(dp3280
sg82
g3274
sg75
(lp3281
g68
(g89
g70
NtRp3282
(dp3283
g73
(dp3284
sg82
g3278
sg75
(lp3285
g68
(g69
g70
NtRp3286
(dp3287
g73
(dp3288
g81
I2
ssg82
g3282
sg75
(lp3289
g68
(g77
g70
NtRp3290
(dp3291
g73
(dp3292
g81
I1
ssg82
Nsg75
(lp3293
g68
(g84
g70
NtRp3294
(dp3295
g73
(dp3296
sg82
g3290
sg75
(lp3297
g68
(g89
g70
NtRp3298
(dp3299
g73
(dp3300
sg82
g3294
sg75
(lp3301
g68
(g69
g70
NtRp3302
(dp3303
g73
(dp3304
g81
I1
ssg82
g3298
sg75
(lp3305
g3165
(S't\n\x00\x00\x00Controller'
tRp3306
asbasbasbag68
(g84
g70
NtRp3307
(dp3308
g73
(dp3309
sg82
g3290
sg75
(lp3310
g68
(g89
g70
NtRp3311
(dp3312
g73
(dp3313
sg82
g3307
sg75
(lp3314
g68
(g69
g70
NtRp3315
(dp3316
g73
(dp3317
g81
I1
ssg82
g3311
sg75
(lp3318
I00
asbasbasbag68
(g84
g70
NtRp3319
(dp3320
g73
(dp3321
sg82
g3290
sg75
(lp3322
g68
(g89
g70
NtRp3323
(dp3324
g73
(dp3325
sg82
g3319
sg75
(lp3326
g68
(g69
g70
NtRp3327
(dp3328
g73
(dp3329
g81
I1
ssg82
g3323
sg75
(lp3330
S'/admin/default/edit/infovis/controllers/visual.py'
p3331
asbasbasbasbasbasbasbag68
(g84
g70
NtRp3332
(dp3333
g73
(dp3334
sg82
g3274
sg75
(lp3335
g68
(g89
g70
NtRp3336
(dp3337
g73
(dp3338
sg82
g3332
sg75
(lp3339
g68
(g69
g70
NtRp3340
(dp3341
g73
(dp3342
g81
I2
ssg82
g3336
sg75
(lp3343
g68
(g77
g70
NtRp3344
(dp3345
g73
(dp3346
g81
I1
ssg82
Nsg75
(lp3347
g68
(g84
g70
NtRp3348
(dp3349
g73
(dp3350
sg82
g3344
sg75
(lp3351
g68
(g89
g70
NtRp3352
(dp3353
g73
(dp3354
sg82
g3348
sg75
(lp3355
g68
(g69
g70
NtRp3356
(dp3357
g73
(dp3358
g81
I1
ssg82
g3352
sg75
(lp3359
g3165
(S't\x04\x00\x00\x00View'
tRp3360
asbasbasbag68
(g84
g70
NtRp3361
(dp3362
g73
(dp3363
sg82
g3344
sg75
(lp3364
g68
(g89
g70
NtRp3365
(dp3366
g73
(dp3367
sg82
g3361
sg75
(lp3368
g68
(g69
g70
NtRp3369
(dp3370
g73
(dp3371
g81
I1
ssg82
g3365
sg75
(lp3372
I00
asbasbasbag68
(g84
g70
NtRp3373
(dp3374
g73
(dp3375
sg82
g3344
sg75
(lp3376
g68
(g89
g70
NtRp3377
(dp3378
g73
(dp3379
sg82
g3373
sg75
(lp3380
g68
(g69
g70
NtRp3381
(dp3382
g73
(dp3383
g81
I1
ssg82
g3377
sg75
(lp3384
S'/admin/default/edit/infovis/views/visual/treemap.html'
p3385
asbasbasbasbasbasbasbag68
(g84
g70
NtRp3386
(dp3387
g73
(dp3388
sg82
g3274
sg75
(lp3389
g68
(g89
g70
NtRp3390
(dp3391
g73
(dp3392
sg82
g3386
sg75
(lp3393
g68
(g69
g70
NtRp3394
(dp3395
g73
(dp3396
g81
I2
ssg82
g3390
sg75
(lp3397
g68
(g77
g70
NtRp3398
(dp3399
g73
(dp3400
g81
I1
ssg82
Nsg75
(lp3401
g68
(g84
g70
NtRp3402
(dp3403
g73
(dp3404
sg82
g3398
sg75
(lp3405
g68
(g89
g70
NtRp3406
(dp3407
g73
(dp3408
sg82
g3402
sg75
(lp3409
g68
(g69
g70
NtRp3410
(dp3411
g73
(dp3412
g81
I1
ssg82
g3406
sg75
(lp3413
g3165
(S't\x06\x00\x00\x00Layout'
tRp3414
asbasbasbag68
(g84
g70
NtRp3415
(dp3416
g73
(dp3417
sg82
g3398
sg75
(lp3418
g68
(g89
g70
NtRp3419
(dp3420
g73
(dp3421
sg82
g3415
sg75
(lp3422
g68
(g69
g70
NtRp3423
(dp3424
g73
(dp3425
g81
I1
ssg82
g3419
sg75
(lp3426
I00
asbasbasbag68
(g84
g70
NtRp3427
(dp3428
g73
(dp3429
sg82
g3398
sg75
(lp3430
g68
(g89
g70
NtRp3431
(dp3432
g73
(dp3433
sg82
g3427
sg75
(lp3434
g68
(g69
g70
NtRp3435
(dp3436
g73
(dp3437
g81
I1
ssg82
g3431
sg75
(lp3438
S'/admin/default/edit/infovis/views/layout.html'
p3439
asbasbasbasbasbasbasbag68
(g84
g70
NtRp3440
(dp3441
g73
(dp3442
sg82
g3274
sg75
(lp3443
g68
(g89
g70
NtRp3444
(dp3445
g73
(dp3446
sg82
g3440
sg75
(lp3447
g68
(g69
g70
NtRp3448
(dp3449
g73
(dp3450
g81
I2
ssg82
g3444
sg75
(lp3451
g68
(g77
g70
NtRp3452
(dp3453
g73
(dp3454
g81
I1
ssg82
Nsg75
(lp3455
g68
(g84
g70
NtRp3456
(dp3457
g73
(dp3458
sg82
g3452
sg75
(lp3459
g68
(g89
g70
NtRp3460
(dp3461
g73
(dp3462
sg82
g3456
sg75
(lp3463
g68
(g69
g70
NtRp3464
(dp3465
g73
(dp3466
g81
I1
ssg82
g3460
sg75
(lp3467
g3165
(S't\n\x00\x00\x00Stylesheet'
tRp3468
asbasbasbag68
(g84
g70
NtRp3469
(dp3470
g73
(dp3471
sg82
g3452
sg75
(lp3472
g68
(g89
g70
NtRp3473
(dp3474
g73
(dp3475
sg82
g3469
sg75
(lp3476
g68
(g69
g70
NtRp3477
(dp3478
g73
(dp3479
g81
I1
ssg82
g3473
sg75
(lp3480
I00
asbasbasbag68
(g84
g70
NtRp3481
(dp3482
g73
(dp3483
sg82
g3452
sg75
(lp3484
g68
(g89
g70
NtRp3485
(dp3486
g73
(dp3487
sg82
g3481
sg75
(lp3488
g68
(g69
g70
NtRp3489
(dp3490
g73
(dp3491
g81
I1
ssg82
g3485
sg75
(lp3492
S'/admin/default/edit/infovis/static/base.css'
p3493
asbasbasbasbasbasbasbag68
(g84
g70
NtRp3494
(dp3495
g73
(dp3496
sg82
g3274
sg75
(lp3497
g68
(g89
g70
NtRp3498
(dp3499
g73
(dp3500
sg82
g3494
sg75
(lp3501
g68
(g69
g70
NtRp3502
(dp3503
g73
(dp3504
g81
I2
ssg82
g3498
sg75
(lp3505
g68
(g77
g70
NtRp3506
(dp3507
g73
(dp3508
g81
I1
ssg82
Nsg75
(lp3509
g68
(g84
g70
NtRp3510
(dp3511
g73
(dp3512
sg82
g3506
sg75
(lp3513
g68
(g89
g70
NtRp3514
(dp3515
g73
(dp3516
sg82
g3510
sg75
(lp3517
g68
(g69
g70
NtRp3518
(dp3519
g73
(dp3520
g81
I1
ssg82
g3514
sg75
(lp3521
g3165
(S's\x08\x00\x00\x00DB Model'
tRp3522
asbasbasbag68
(g84
g70
NtRp3523
(dp3524
g73
(dp3525
sg82
g3506
sg75
(lp3526
g68
(g89
g70
NtRp3527
(dp3528
g73
(dp3529
sg82
g3523
sg75
(lp3530
g68
(g69
g70
NtRp3531
(dp3532
g73
(dp3533
g81
I1
ssg82
g3527
sg75
(lp3534
I00
asbasbasbag68
(g84
g70
NtRp3535
(dp3536
g73
(dp3537
sg82
g3506
sg75
(lp3538
g68
(g89
g70
NtRp3539
(dp3540
g73
(dp3541
sg82
g3535
sg75
(lp3542
g68
(g69
g70
NtRp3543
(dp3544
g73
(dp3545
g81
I1
ssg82
g3539
sg75
(lp3546
S'/admin/default/edit/infovis/models/db.py'
p3547
asbasbasbasbasbasbasbag68
(g84
g70
NtRp3548
(dp3549
g73
(dp3550
sg82
g3274
sg75
(lp3551
g68
(g89
g70
NtRp3552
(dp3553
g73
(dp3554
sg82
g3548
sg75
(lp3555
g68
(g69
g70
NtRp3556
(dp3557
g73
(dp3558
g81
I2
ssg82
g3552
sg75
(lp3559
g68
(g77
g70
NtRp3560
(dp3561
g73
(dp3562
g81
I1
ssg82
Nsg75
(lp3563
g68
(g84
g70
NtRp3564
(dp3565
g73
(dp3566
sg82
g3560
sg75
(lp3567
g68
(g89
g70
NtRp3568
(dp3569
g73
(dp3570
sg82
g3564
sg75
(lp3571
g68
(g69
g70
NtRp3572
(dp3573
g73
(dp3574
g81
I1
ssg82
g3568
sg75
(lp3575
g3165
(S's\n\x00\x00\x00Menu Model'
tRp3576
asbasbasbag68
(g84
g70
NtRp3577
(dp3578
g73
(dp3579
sg82
g3560
sg75
(lp3580
g68
(g89
g70
NtRp3581
(dp3582
g73
(dp3583
sg82
g3577
sg75
(lp3584
g68
(g69
g70
NtRp3585
(dp3586
g73
(dp3587
g81
I1
ssg82
g3581
sg75
(lp3588
I00
asbasbasbag68
(g84
g70
NtRp3589
(dp3590
g73
(dp3591
sg82
g3560
sg75
(lp3592
g68
(g89
g70
NtRp3593
(dp3594
g73
(dp3595
sg82
g3589
sg75
(lp3596
g68
(g69
g70
NtRp3597
(dp3598
g73
(dp3599
g81
I1
ssg82
g3593
sg75
(lp3600
S'/admin/default/edit/infovis/models/menu.py'
p3601
asbasbasbasbasbasbasbag68
(g84
g70
NtRp3602
(dp3603
g73
(dp3604
sg82
g3274
sg75
(lp3605
g68
(g89
g70
NtRp3606
(dp3607
g73
(dp3608
sg82
g3602
sg75
(lp3609
g68
(g69
g70
NtRp3610
(dp3611
g73
(dp3612
g81
I2
ssg82
g3606
sg75
(lp3613
g68
(g77
g70
NtRp3614
(dp3615
g73
(dp3616
g81
I1
ssg82
Nsg75
(lp3617
g68
(g84
g70
NtRp3618
(dp3619
g73
(dp3620
sg82
g3614
sg75
(lp3621
g68
(g89
g70
NtRp3622
(dp3623
g73
(dp3624
sg82
g3618
sg75
(lp3625
g68
(g69
g70
NtRp3626
(dp3627
g73
(dp3628
g81
I1
ssg82
g3622
sg75
(lp3629
g3165
(S't\x08\x00\x00\x00Database'
tRp3630
asbasbasbag68
(g84
g70
NtRp3631
(dp3632
g73
(dp3633
sg82
g3614
sg75
(lp3634
g68
(g89
g70
NtRp3635
(dp3636
g73
(dp3637
sg82
g3631
sg75
(lp3638
g68
(g69
g70
NtRp3639
(dp3640
g73
(dp3641
g81
I1
ssg82
g3635
sg75
(lp3642
I00
asbasbasbag68
(g84
g70
NtRp3643
(dp3644
g73
(dp3645
sg82
g3614
sg75
(lp3646
g68
(g89
g70
NtRp3647
(dp3648
g73
(dp3649
sg82
g3643
sg75
(lp3650
g68
(g69
g70
NtRp3651
(dp3652
g73
(dp3653
g81
I1
ssg82
g3647
sg75
(lp3654
S'/infovis/appadmin/index'
p3655
asbasbasbasbasbasbasbag68
(g84
g70
NtRp3656
(dp3657
g73
(dp3658
sg82
g3274
sg75
(lp3659
g68
(g89
g70
NtRp3660
(dp3661
g73
(dp3662
sg82
g3656
sg75
(lp3663
g68
(g69
g70
NtRp3664
(dp3665
g73
(dp3666
g81
I2
ssg82
g3660
sg75
(lp3667
g68
(g77
g70
NtRp3668
(dp3669
g73
(dp3670
g81
I1
ssg82
Nsg75
(lp3671
g68
(g84
g70
NtRp3672
(dp3673
g73
(dp3674
sg82
g3668
sg75
(lp3675
g68
(g89
g70
NtRp3676
(dp3677
g73
(dp3678
sg82
g3672
sg75
(lp3679
g68
(g69
g70
NtRp3680
(dp3681
g73
(dp3682
g81
I1
ssg82
g3676
sg75
(lp3683
g3165
(S't\x06\x00\x00\x00Errors'
tRp3684
asbasbasbag68
(g84
g70
NtRp3685
(dp3686
g73
(dp3687
sg82
g3668
sg75
(lp3688
g68
(g89
g70
NtRp3689
(dp3690
g73
(dp3691
sg82
g3685
sg75
(lp3692
g68
(g69
g70
NtRp3693
(dp3694
g73
(dp3695
g81
I1
ssg82
g3689
sg75
(lp3696
I00
asbasbasbag68
(g84
g70
NtRp3697
(dp3698
g73
(dp3699
sg82
g3668
sg75
(lp3700
g68
(g89
g70
NtRp3701
(dp3702
g73
(dp3703
sg82
g3697
sg75
(lp3704
g68
(g69
g70
NtRp3705
(dp3706
g73
(dp3707
g81
I1
ssg82
g3701
sg75
(lp3708
S'/admin/default/errors/infovis'
p3709
asbasbasbasbasbasbasbag68
(g84
g70
NtRp3710
(dp3711
g73
(dp3712
sg82
g3274
sg75
(lp3713
g68
(g89
g70
NtRp3714
(dp3715
g73
(dp3716
sg82
g3710
sg75
(lp3717
g68
(g69
g70
NtRp3718
(dp3719
g73
(dp3720
g81
I2
ssg82
g3714
sg75
(lp3721
g68
(g77
g70
NtRp3722
(dp3723
g73
(dp3724
g81
I1
ssg82
Nsg75
(lp3725
g68
(g84
g70
NtRp3726
(dp3727
g73
(dp3728
sg82
g3722
sg75
(lp3729
g68
(g89
g70
NtRp3730
(dp3731
g73
(dp3732
sg82
g3726
sg75
(lp3733
g68
(g69
g70
NtRp3734
(dp3735
g73
(dp3736
g81
I1
ssg82
g3730
sg75
(lp3737
g3165
(S't\x05\x00\x00\x00About'
tRp3738
asbasbasbag68
(g84
g70
NtRp3739
(dp3740
g73
(dp3741
sg82
g3722
sg75
(lp3742
g68
(g89
g70
NtRp3743
(dp3744
g73
(dp3745
sg82
g3739
sg75
(lp3746
g68
(g69
g70
NtRp3747
(dp3748
g73
(dp3749
g81
I1
ssg82
g3743
sg75
(lp3750
I00
asbasbasbag68
(g84
g70
NtRp3751
(dp3752
g73
(dp3753
sg82
g3722
sg75
(lp3754
g68
(g89
g70
NtRp3755
(dp3756
g73
(dp3757
sg82
g3751
sg75
(lp3758
g68
(g69
g70
NtRp3759
(dp3760
g73
(dp3761
g81
I1
ssg82
g3755
sg75
(lp3762
S'/admin/default/about/infovis'
p3763
asbasbasbasbasbasbasbasbasbasbasbasbasbasbasbag68
(g84
g70
NtRp3764
(dp3765
g73
(dp3766
sg82
g3133
sg75
(lp3767
g68
(g89
g70
NtRp3768
(dp3769
g73
(dp3770
sg82
g3764
sg75
(lp3771
g68
(g69
g70
NtRp3772
(dp3773
g73
(dp3774
g81
I4
ssg82
g3768
sg75
(lp3775
g68
(g77
g70
NtRp3776
(dp3777
g73
(dp3778
g81
I3
ssg82
Nsg75
(lp3779
g68
(g84
g70
NtRp3780
(dp3781
g73
(dp3782
sg82
g3776
sg75
(lp3783
g68
(g89
g70
NtRp3784
(dp3785
g73
(dp3786
sg82
g3780
sg75
(lp3787
g68
(g69
g70
NtRp3788
(dp3789
g73
(dp3790
g81
I3
ssg82
g3784
sg75
(lp3791
g3165
(S't\t\x00\x00\x00Resources'
tRp3792
asbasbasbag68
(g84
g70
NtRp3793
(dp3794
g73
(dp3795
sg82
g3776
sg75
(lp3796
g68
(g89
g70
NtRp3797
(dp3798
g73
(dp3799
sg82
g3793
sg75
(lp3800
g68
(g69
g70
NtRp3801
(dp3802
g73
(dp3803
g81
I3
ssg82
g3797
sg75
(lp3804
g111
asbasbasbag68
(g84
g70
NtRp3805
(dp3806
g73
(dp3807
sg82
g3776
sg75
(lp3808
g68
(g89
g70
NtRp3809
(dp3810
g73
(dp3811
sg82
g3805
sg75
(lp3812
g68
(g69
g70
NtRp3813
(dp3814
g73
(dp3815
g81
I3
ssg82
g3809
sg75
(lp3816
S'None'
p3817
asbasbasbag68
(g84
g70
NtRp3818
(dp3819
g73
(dp3820
sg82
g3776
sg75
(lp3821
g68
(g89
g70
NtRp3822
(dp3823
g73
(dp3824
sg82
g3818
sg75
(lp3825
g68
(g69
g70
NtRp3826
(dp3827
g73
(dp3828
g81
I3
ssg82
g3822
sg75
(lp3829
g68
(g77
g70
NtRp3830
(dp3831
g73
(dp3832
g81
I2
ssg82
Nsg75
(lp3833
g68
(g84
g70
NtRp3834
(dp3835
g73
(dp3836
sg82
g3830
sg75
(lp3837
g68
(g89
g70
NtRp3838
(dp3839
g73
(dp3840
sg82
g3834
sg75
(lp3841
g68
(g69
g70
NtRp3842
(dp3843
g73
(dp3844
g81
I2
ssg82
g3838
sg75
(lp3845
g68
(g77
g70
NtRp3846
(dp3847
g73
(dp3848
g81
I1
ssg82
Nsg75
(lp3849
g68
(g84
g70
NtRp3850
(dp3851
g73
(dp3852
sg82
g3846
sg75
(lp3853
g68
(g89
g70
NtRp3854
(dp3855
g73
(dp3856
sg82
g3850
sg75
(lp3857
g68
(g69
g70
NtRp3858
(dp3859
g73
(dp3860
g81
I1
ssg82
g3854
sg75
(lp3861
g3165
(S't\r\x00\x00\x00Documentation'
tRp3862
asbasbasbag68
(g84
g70
NtRp3863
(dp3864
g73
(dp3865
sg82
g3846
sg75
(lp3866
g68
(g89
g70
NtRp3867
(dp3868
g73
(dp3869
sg82
g3863
sg75
(lp3870
g68
(g69
g70
NtRp3871
(dp3872
g73
(dp3873
g81
I1
ssg82
g3867
sg75
(lp3874
I00
asbasbasbag68
(g84
g70
NtRp3875
(dp3876
g73
(dp3877
sg82
g3846
sg75
(lp3878
g68
(g89
g70
NtRp3879
(dp3880
g73
(dp3881
sg82
g3875
sg75
(lp3882
g68
(g69
g70
NtRp3883
(dp3884
g73
(dp3885
g81
I1
ssg82
g3879
sg75
(lp3886
S'http://www.web2py.com/book'
p3887
asbasbasbag68
(g84
g70
NtRp3888
(dp3889
g73
(dp3890
sg82
g3846
sg75
(lp3891
g68
(g89
g70
NtRp3892
(dp3893
g73
(dp3894
sg82
g3888
sg75
(lp3895
g68
(g69
g70
NtRp3896
(dp3897
g73
(dp3898
g81
I1
ssg82
g3892
sg75
(lp3899
(lp3900
(g3165
(S't\x07\x00\x00\x00Preface'
tRp3901
I00
S'http://www.web2py.com/book/default/chapter/00'
tp3902
a(g3165
(S't\x0c\x00\x00\x00Introduction'
tRp3903
I00
S'http://www.web2py.com/book/default/chapter/01'
tp3904
a(g3165
(S't\x06\x00\x00\x00Python'
tRp3905
I00
S'http://www.web2py.com/book/default/chapter/02'
tp3906
a(g3165
(S't\x08\x00\x00\x00Overview'
tRp3907
I00
S'http://www.web2py.com/book/default/chapter/03'
tp3908
a(g3165
(S's\x08\x00\x00\x00The Core'
tRp3909
I00
S'http://www.web2py.com/book/default/chapter/04'
tp3910
a(g3165
(S's\t\x00\x00\x00The Views'
tRp3911
I00
S'http://www.web2py.com/book/default/chapter/05'
tp3912
a(g3165
(S't\x08\x00\x00\x00Database'
tRp3913
I00
S'http://www.web2py.com/book/default/chapter/06'
tp3914
a(g3165
(S's\x14\x00\x00\x00Forms and Validators'
tRp3915
I00
S'http://www.web2py.com/book/default/chapter/07'
tp3916
a(g3165
(S's\x0e\x00\x00\x00Access Control'
tRp3917
I00
S'http://www.web2py.com/book/default/chapter/08'
tp3918
a(g3165
(S't\x08\x00\x00\x00Services'
tRp3919
I00
S'http://www.web2py.com/book/default/chapter/09'
tp3920
a(g3165
(S's\x0c\x00\x00\x00Ajax Recipes'
tRp3921
I00
S'http://www.web2py.com/book/default/chapter/10'
tp3922
a(g3165
(S's\x12\x00\x00\x00Deployment Recipes'
tRp3923
I00
S'http://www.web2py.com/book/default/chapter/11'
tp3924
a(g3165
(S's\r\x00\x00\x00Other Recipes'
tRp3925
I00
S'http://www.web2py.com/book/default/chapter/12'
tp3926
a(g3165
(S's\r\x00\x00\x00Buy this book'
tRp3927
I00
S'http://stores.lulu.com/web2py'
tp3928
aasbasbasbasbasbasbasbag68
(g84
g70
NtRp3929
(dp3930
g73
(dp3931
sg82
g3830
sg75
(lp3932
g68
(g89
g70
NtRp3933
(dp3934
g73
(dp3935
sg82
g3929
sg75
(lp3936
g68
(g69
g70
NtRp3937
(dp3938
g73
(dp3939
g81
I2
ssg82
g3933
sg75
(lp3940
g68
(g77
g70
NtRp3941
(dp3942
g73
(dp3943
g81
I1
ssg82
Nsg75
(lp3944
g68
(g84
g70
NtRp3945
(dp3946
g73
(dp3947
sg82
g3941
sg75
(lp3948
g68
(g89
g70
NtRp3949
(dp3950
g73
(dp3951
sg82
g3945
sg75
(lp3952
g68
(g69
g70
NtRp3953
(dp3954
g73
(dp3955
g81
I1
ssg82
g3949
sg75
(lp3956
g3165
(S't\t\x00\x00\x00Community'
tRp3957
asbasbasbag68
(g84
g70
NtRp3958
(dp3959
g73
(dp3960
sg82
g3941
sg75
(lp3961
g68
(g89
g70
NtRp3962
(dp3963
g73
(dp3964
sg82
g3958
sg75
(lp3965
g68
(g69
g70
NtRp3966
(dp3967
g73
(dp3968
g81
I1
ssg82
g3962
sg75
(lp3969
I00
asbasbasbag68
(g84
g70
NtRp3970
(dp3971
g73
(dp3972
sg82
g3941
sg75
(lp3973
g68
(g89
g70
NtRp3974
(dp3975
g73
(dp3976
sg82
g3970
sg75
(lp3977
g68
(g69
g70
NtRp3978
(dp3979
g73
(dp3980
g81
I1
ssg82
g3974
sg75
(lp3981
Nasbasbasbag68
(g84
g70
NtRp3982
(dp3983
g73
(dp3984
sg82
g3941
sg75
(lp3985
g68
(g89
g70
NtRp3986
(dp3987
g73
(dp3988
sg82
g3982
sg75
(lp3989
g68
(g69
g70
NtRp3990
(dp3991
g73
(dp3992
g81
I1
ssg82
g3986
sg75
(lp3993
(lp3994
(g3165
(S't\x06\x00\x00\x00Groups'
tRp3995
I00
S'http://www.web2py.com/examples/default/usergroups'
tp3996
a(g3165
(S't\x07\x00\x00\x00Twitter'
tRp3997
I00
S'http://twitter.com/web2py'
tp3998
a(g3165
(S's\t\x00\x00\x00Live chat'
tRp3999
I00
S'http://mibbit.com/?channel=%23web2py&server=irc.mibbit.net'
tp4000
a(g3165
(S's\n\x00\x00\x00User Voice'
tRp4001
I00
S'http://web2py.uservoice.com/'
tp4002
aasbasbasbasbasbasbasbag68
(g84
g70
NtRp4003
(dp4004
g73
(dp4005
sg82
g3830
sg75
(lp4006
g68
(g89
g70
NtRp4007
(dp4008
g73
(dp4009
sg82
g4003
sg75
(lp4010
g68
(g69
g70
NtRp4011
(dp4012
g73
(dp4013
g81
I2
ssg82
g4007
sg75
(lp4014
g68
(g77
g70
NtRp4015
(dp4016
g73
(dp4017
g81
I1
ssg82
Nsg75
(lp4018
g68
(g84
g70
NtRp4019
(dp4020
g73
(dp4021
sg82
g4015
sg75
(lp4022
g68
(g89
g70
NtRp4023
(dp4024
g73
(dp4025
sg82
g4019
sg75
(lp4026
g68
(g69
g70
NtRp4027
(dp4028
g73
(dp4029
g81
I1
ssg82
g4023
sg75
(lp4030
g3165
(S't\x06\x00\x00\x00Web2py'
tRp4031
asbasbasbag68
(g84
g70
NtRp4032
(dp4033
g73
(dp4034
sg82
g4015
sg75
(lp4035
g68
(g89
g70
NtRp4036
(dp4037
g73
(dp4038
sg82
g4032
sg75
(lp4039
g68
(g69
g70
NtRp4040
(dp4041
g73
(dp4042
g81
I1
ssg82
g4036
sg75
(lp4043
I00
asbasbasbag68
(g84
g70
NtRp4044
(dp4045
g73
(dp4046
sg82
g4015
sg75
(lp4047
g68
(g89
g70
NtRp4048
(dp4049
g73
(dp4050
sg82
g4044
sg75
(lp4051
g68
(g69
g70
NtRp4052
(dp4053
g73
(dp4054
g81
I1
ssg82
g4048
sg75
(lp4055
S'http://www.web2py.com'
p4056
asbasbasbag68
(g84
g70
NtRp4057
(dp4058
g73
(dp4059
sg82
g4015
sg75
(lp4060
g68
(g89
g70
NtRp4061
(dp4062
g73
(dp4063
sg82
g4057
sg75
(lp4064
g68
(g69
g70
NtRp4065
(dp4066
g73
(dp4067
g81
I1
ssg82
g4061
sg75
(lp4068
(lp4069
(g3165
(S't\x08\x00\x00\x00Download'
tRp4070
I00
S'http://www.web2py.com/examples/default/download'
tp4071
a(g3165
(S't\x07\x00\x00\x00Support'
tRp4072
I00
S'http://www.web2py.com/examples/default/support'
tp4073
a(g3165
(S's\x0e\x00\x00\x00Quick Examples'
tRp4074
I00
S'http://web2py.com/examples/default/examples'
tp4075
a(g3165
(S't\x03\x00\x00\x00FAQ'
tRp4076
I00
S'http://web2py.com/AlterEgo'
tp4077
a(g3165
(S's\x11\x00\x00\x00Free Applications'
tRp4078
I00
S'http://web2py.com/appliances'
tp4079
a(g3165
(S't\x07\x00\x00\x00Plugins'
tRp4080
I00
S'http://web2py.com/plugins'
tp4081
a(g3165
(S't\x07\x00\x00\x00Recipes'
tRp4082
I00
S'http://web2pyslices.com/'
tp4083
a(g3165
(S't\x04\x00\x00\x00Demo'
tRp4084
I00
S'http://web2py.com/demo_admin'
tp4085
a(g3165
(S't\x08\x00\x00\x00Semantic'
tRp4086
I00
S'http://web2py.com/semantic'
tp4087
a(g3165
(S't\x07\x00\x00\x00Layouts'
tRp4088
I00
S'http://web2py.com/layouts'
tp4089
a(g3165
(S't\x06\x00\x00\x00Videos'
tRp4090
I00
S'http://www.web2py.com/examples/default/videos/'
tp4091
aasbasbasbasbasbasbasbasbasbasbasbasbasbasbasbasbasbasbasbag68
(g84
g70
NtRp4092
(dp4093
g73
(dp4094
sg82
g2660
sg75
(lp4095
g68
(g89
g70
NtRp4096
(dp4097
g73
(dp4098
g93
g94
ssg82
g4092
sg75
(lp4099
S'meta'
p4100
asbag68
(g89
g70
NtRp4101
(dp4102
g73
(dp4103
g100
g101
ssg82
g4092
sg75
(lp4104
S':'
asbag68
(g89
g70
NtRp4105
(dp4106
g73
(dp4107
sg82
g4092
sg75
(lp4108
g68
(g69
g70
NtRp4109
(dp4110
g73
(dp4111
g81
I5
ssg82
g4105
sg75
(lp4112
g68
(g77
g70
NtRp4113
(dp4114
g73
(dp4115
g81
I4
ssg82
Nsg75
(lp4116
g68
(g84
g70
NtRp4117
(dp4118
g73
(dp4119
sg82
g4113
sg75
(lp4120
g68
(g89
g70
NtRp4121
(dp4122
g73
(dp4123
g93
g94
ssg82
g4117
sg75
(lp4124
S'author'
p4125
asbag68
(g89
g70
NtRp4126
(dp4127
g73
(dp4128
g100
g101
ssg82
g4117
sg75
(lp4129
S':'
asbag68
(g89
g70
NtRp4130
(dp4131
g73
(dp4132
sg82
g4117
sg75
(lp4133
g68
(g69
g70
NtRp4134
(dp4135
g73
(dp4136
g81
I4
ssg82
g4130
sg75
(lp4137
S'you'
p4138
asbasbasbag68
(g84
g70
NtRp4139
(dp4140
g73
(dp4141
sg82
g4113
sg75
(lp4142
g68
(g89
g70
NtRp4143
(dp4144
g73
(dp4145
g93
g94
ssg82
g4139
sg75
(lp4146
S'copyright'
p4147
asbag68
(g89
g70
NtRp4148
(dp4149
g73
(dp4150
g100
g101
ssg82
g4139
sg75
(lp4151
S':'
asbag68
(g89
g70
NtRp4152
(dp4153
g73
(dp4154
sg82
g4139
sg75
(lp4155
g68
(g69
g70
NtRp4156
(dp4157
g73
(dp4158
g81
I4
ssg82
g4152
sg75
(lp4159
S'Copyright 2007-2010'
p4160
asbasbasbag68
(g84
g70
NtRp4161
(dp4162
g73
(dp4163
sg82
g4113
sg75
(lp4164
g68
(g89
g70
NtRp4165
(dp4166
g73
(dp4167
g93
g94
ssg82
g4161
sg75
(lp4168
S'description'
p4169
asbag68
(g89
g70
NtRp4170
(dp4171
g73
(dp4172
g100
g101
ssg82
g4161
sg75
(lp4173
S':'
asbag68
(g89
g70
NtRp4174
(dp4175
g73
(dp4176
sg82
g4161
sg75
(lp4177
g68
(g69
g70
NtRp4178
(dp4179
g73
(dp4180
g81
I4
ssg82
g4174
sg75
(lp4181
S'Free and open source full-stack enterprise framework for agile development of fast, scalable, secure and portable database-driven web-based applications. Written and programmable in Python'
p4182
asbasbasbag68
(g84
g70
NtRp4183
(dp4184
g73
(dp4185
sg82
g4113
sg75
(lp4186
g68
(g89
g70
NtRp4187
(dp4188
g73
(dp4189
g93
g94
ssg82
g4183
sg75
(lp4190
S'generator'
p4191
asbag68
(g89
g70
NtRp4192
(dp4193
g73
(dp4194
g100
g101
ssg82
g4183
sg75
(lp4195
S':'
asbag68
(g89
g70
NtRp4196
(dp4197
g73
(dp4198
sg82
g4183
sg75
(lp4199
g68
(g69
g70
NtRp4200
(dp4201
g73
(dp4202
g81
I4
ssg82
g4196
sg75
(lp4203
S'Web2py Enterprise Framework'
p4204
asbasbasbag68
(g84
g70
NtRp4205
(dp4206
g73
(dp4207
sg82
g4113
sg75
(lp4208
g68
(g89
g70
NtRp4209
(dp4210
g73
(dp4211
g93
g94
ssg82
g4205
sg75
(lp4212
S'keywords'
p4213
asbag68
(g89
g70
NtRp4214
(dp4215
g73
(dp4216
g100
g101
ssg82
g4205
sg75
(lp4217
S':'
asbag68
(g89
g70
NtRp4218
(dp4219
g73
(dp4220
sg82
g4205
sg75
(lp4221
g68
(g69
g70
NtRp4222
(dp4223
g73
(dp4224
g81
I4
ssg82
g4218
sg75
(lp4225
S'web2py, python, framework'
p4226
asbasbasbasbasbasbasbag68
(g84
g70
NtRp4227
(dp4228
g73
(dp4229
sg82
g2660
sg75
(lp4230
g68
(g89
g70
NtRp4231
(dp4232
g73
(dp4233
g93
g94
ssg82
g4227
sg75
(lp4234
S'postprocessing'
p4235
asbag68
(g89
g70
NtRp4236
(dp4237
g73
(dp4238
g100
g101
ssg82
g4227
sg75
(lp4239
S':'
asbag68
(g89
g70
NtRp4240
(dp4241
g73
(dp4242
sg82
g4227
sg75
(lp4243
g68
(g69
g70
NtRp4244
(dp4245
g73
(dp4246
g81
I5
ssg82
g4240
sg75
(lp4247
g68
(g77
g70
NtRp4248
(dp4249
g73
(dp4250
g81
I4
ssg82
Nsg75
(lp4251
sbasbasbasbag68
(g84
g70
NtRp4252
(dp4253
g73
(dp4254
sg82
g2660
sg75
(lp4255
g68
(g89
g70
NtRp4256
(dp4257
g73
(dp4258
g93
g94
ssg82
g4252
sg75
(lp4259
S'session_filename'
p4260
asbag68
(g89
g70
NtRp4261
(dp4262
g73
(dp4263
g100
g101
ssg82
g4252
sg75
(lp4264
S':'
asbag68
(g89
g70
NtRp4265
(dp4266
g73
(dp4267
sg82
g4252
sg75
(lp4268
g68
(g69
g70
NtRp4269
(dp4270
g73
(dp4271
g81
I5
ssg82
g4265
sg75
(lp4272
S'/Users/ilustre/development/repo/jittest/web2py/applications/infovis/sessions/127.0.0.1-63995bb1-1c45-48b7-97d5-d7b46755d3e7'
p4273
asbasbasbag68
(g84
g70
NtRp4274
(dp4275
g73
(dp4276
sg82
g2660
sg75
(lp4277
g68
(g89
g70
NtRp4278
(dp4279
g73
(dp4280
g93
g94
ssg82
g4274
sg75
(lp4281
S'session_id'
p4282
asbag68
(g89
g70
NtRp4283
(dp4284
g73
(dp4285
g100
g101
ssg82
g4274
sg75
(lp4286
S':'
asbag68
(g89
g70
NtRp4287
(dp4288
g73
(dp4289
sg82
g4274
sg75
(lp4290
g68
(g69
g70
NtRp4291
(dp4292
g73
(dp4293
g81
I5
ssg82
g4287
sg75
(lp4294
S'127.0.0.1-63995bb1-1c45-48b7-97d5-d7b46755d3e7'
p4295
asbasbasbag68
(g84
g70
NtRp4296
(dp4297
g73
(dp4298
sg82
g2660
sg75
(lp4299
g68
(g89
g70
NtRp4300
(dp4301
g73
(dp4302
g93
g94
ssg82
g4296
sg75
(lp4303
S'session_id_name'
p4304
asbag68
(g89
g70
NtRp4305
(dp4306
g73
(dp4307
g100
g101
ssg82
g4296
sg75
(lp4308
S':'
asbag68
(g89
g70
NtRp4309
(dp4310
g73
(dp4311
sg82
g4296
sg75
(lp4312
g68
(g69
g70
NtRp4313
(dp4314
g73
(dp4315
g81
I5
ssg82
g4309
sg75
(lp4316
g2717
asbasbasbag68
(g84
g70
NtRp4317
(dp4318
g73
(dp4319
sg82
g2660
sg75
(lp4320
g68
(g89
g70
NtRp4321
(dp4322
g73
(dp4323
g93
g94
ssg82
g4317
sg75
(lp4324
S'session_new'
p4325
asbag68
(g89
g70
NtRp4326
(dp4327
g73
(dp4328
g100
g101
ssg82
g4317
sg75
(lp4329
S':'
asbag68
(g89
g70
NtRp4330
(dp4331
g73
(dp4332
sg82
g4317
sg75
(lp4333
g68
(g69
g70
NtRp4334
(dp4335
g73
(dp4336
g81
I5
ssg82
g4330
sg75
(lp4337
g1602
asbasbasbag68
(g84
g70
NtRp4338
(dp4339
g73
(dp4340
sg82
g2660
sg75
(lp4341
g68
(g89
g70
NtRp4342
(dp4343
g73
(dp4344
g93
g94
ssg82
g4338
sg75
(lp4345
S'status'
p4346
asbag68
(g89
g70
NtRp4347
(dp4348
g73
(dp4349
g100
g101
ssg82
g4338
sg75
(lp4350
S':'
asbag68
(g89
g70
NtRp4351
(dp4352
g73
(dp4353
sg82
g4338
sg75
(lp4354
g68
(g69
g70
NtRp4355
(dp4356
g73
(dp4357
g81
I5
ssg82
g4351
sg75
(lp4358
S'200'
p4359
asbasbasbag68
(g84
g70
NtRp4360
(dp4361
g73
(dp4362
sg82
g2660
sg75
(lp4363
g68
(g89
g70
NtRp4364
(dp4365
g73
(dp4366
g93
g94
ssg82
g4360
sg75
(lp4367
S'subtitle'
p4368
asbag68
(g89
g70
NtRp4369
(dp4370
g73
(dp4371
g100
g101
ssg82
g4360
sg75
(lp4372
S':'
asbag68
(g89
g70
NtRp4373
(dp4374
g73
(dp4375
sg82
g4360
sg75
(lp4376
g68
(g69
g70
NtRp4377
(dp4378
g73
(dp4379
g81
I5
ssg82
g4373
sg75
(lp4380
g3165
(S's\r\x00\x00\x00customize me!'
tRp4381
asbasbasbag68
(g84
g70
NtRp4382
(dp4383
g73
(dp4384
sg82
g2660
sg75
(lp4385
g68
(g89
g70
NtRp4386
(dp4387
g73
(dp4388
g93
g94
ssg82
g4382
sg75
(lp4389
S'title'
p4390
asbag68
(g89
g70
NtRp4391
(dp4392
g73
(dp4393
g100
g101
ssg82
g4382
sg75
(lp4394
S':'
asbag68
(g89
g70
NtRp4395
(dp4396
g73
(dp4397
sg82
g4382
sg75
(lp4398
g68
(g69
g70
NtRp4399
(dp4400
g73
(dp4401
g81
I5
ssg82
g4395
sg75
(lp4402
g133
asbasbasbag68
(g84
g70
NtRp4403
(dp4404
g73
(dp4405
sg82
g2660
sg75
(lp4406
g68
(g89
g70
NtRp4407
(dp4408
g73
(dp4409
g93
g94
ssg82
g4403
sg75
(lp4410
g1926
asbag68
(g89
g70
NtRp4411
(dp4412
g73
(dp4413
g100
g101
ssg82
g4403
sg75
(lp4414
S':'
asbag68
(g89
g70
NtRp4415
(dp4416
g73
(dp4417
sg82
g4403
sg75
(lp4418
g68
(g69
g70
NtRp4419
(dp4420
g73
(dp4421
g81
I5
ssg82
g4415
sg75
(lp4422
g1939
asbasbasbag68
(g84
g70
NtRp4423
(dp4424
g73
(dp4425
sg82
g2660
sg75
(lp4426
g68
(g89
g70
NtRp4427
(dp4428
g73
(dp4429
g93
g94
ssg82
g4423
sg75
(lp4430
S'view'
p4431
asbag68
(g89
g70
NtRp4432
(dp4433
g73
(dp4434
g100
g101
ssg82
g4423
sg75
(lp4435
S':'
asbag68
(g89
g70
NtRp4436
(dp4437
g73
(dp4438
sg82
g4423
sg75
(lp4439
g68
(g69
g70
NtRp4440
(dp4441
g73
(dp4442
g81
I5
ssg82
g4436
sg75
(lp4443
S'visual/treemap.html'
p4444
asbasbasbasbasbsS'locals'
p4445
(dp4446
g3
S"'/Users/ilustre/development/repo/jittest/web2py/applications/infovis/controllers/visual.py'"
p4447
sg5
S"'# -*- coding: utf-8 -*-\\n# this file is released ...\\n\\n\\n\\n\\n\\n\\n\\nresponse._vars=response._caller(treemap)\\n'"
p4448
sssS'traceback'
p4449
S'Traceback (most recent call last):\n  File "/Users/ilustre/development/repo/jittest/web2py/gluon/restricted.py", line 191, in restricted\n    ccode = compile2(code,layer)\n  File "/Users/ilustre/development/repo/jittest/web2py/gluon/restricted.py", line 178, in compile2\n    return compile(code.rstrip().replace(\'\\r\\n\',\'\\n\')+\'\\n\', layer, \'exec\')\n  File "/Users/ilustre/development/repo/jittest/web2py/applications/infovis/controllers/visual.py", line 913\n    example action using the internationalization operator T and flash\n          ^\nSyntaxError: invalid syntax\n'
p4450
s.