(dp1
S'output'
p2
S''
sS'layer'
p3
S'/Users/ilustre/development/repo/jittest/web2py/applications/infovis/controllers/visual.py'
p4
sS'code'
p5
S'# -*- coding: utf-8 -*-\n# this file is released under public domain and you can use without limitations\n\n#########################################################################\n## This is a samples controller\n## - index is the default action of any application\n## - user is required for authentication and authorization\n## - download is for downloading files uploaded in the db (does streaming)\n## - call exposes all registered services (none by default)\n#########################################################################\nEXAMPLE = \'ilustreWebTest.20110805.soqrates.SS.trdmsq_wait\'\nxxx = """\n{  \n  "children": [  \n   {  \n     "children": [  \n       {  \n         "children": [],   \n         "data": {  \n           "playcount": "276",   \n           "$color": "#8E7032",   \n           "image": "http://userserve-ak.last.fm/serve/300x300/11403219.jpg",   \n           "$area": 276  \n         },   \n         "id": "album-Thirteenth Step",   \n         "name": "Thirteenth Step"  \n       },   \n       {  \n         "children": [],   \n         "data": {  \n           "playcount": "271",   \n           "$color": "#906E32",   \n           "image": "http://userserve-ak.last.fm/serve/300x300/11393921.jpg",   \n           "$area": 271  \n         },   \n         "id": "album-Mer De Noms",   \n         "name": "Mer De Noms"  \n       }  \n     ],   \n     "data": {  \n       "playcount": 547,   \n       "$area": 547  \n     },   \n     "id": "artist_A Perfect Circle",   \n     "name": "A Perfect Circle"  \n   },   \n   {  \n     "children": [  \n       {  \n         "children": [],   \n         "data": {  \n           "playcount": "209",   \n           "$color": "#AA5532",   \n           "image": "http://userserve-ak.last.fm/serve/300x300/32349839.jpg",   \n           "$area": 209  \n         },   \n         "id": "album-Above",   \n         "name": "Above"  \n       }  \n     ],   \n     "data": {  \n       "playcount": 209,   \n       "$area": 209  \n     },   \n     "id": "artist_Mad Season",   \n     "name": "Mad Season"  \n   },   \n   {  \n     "children": [  \n       {  \n         "children": [],   \n         "data": {  \n           "playcount": "260",   \n           "$color": "#956932",   \n           "image": "http://userserve-ak.last.fm/serve/300x300/38753425.jpg",   \n           "$area": 260  \n         },   \n         "id": "album-Tiny Music... Songs From the Vatican Gift Shop",   \n         "name": "Tiny Music... Songs From the Vatican Gift Shop"  \n       },   \n       {  \n         "children": [],   \n         "data": {  \n           "playcount": "254",   \n           "$color": "#976732",   \n           "image": "http://images.amazon.com/images/P/B000002IU3.01.LZZZZZZZ.jpg",   \n           "$area": 254  \n         },   \n         "id": "album-Core",   \n         "name": "Core"  \n       }  \n     ],   \n     "data": {  \n       "playcount": 514,   \n       "$area": 514  \n     },   \n     "id": "artist_Stone Temple Pilots",   \n     "name": "Stone Temple Pilots"  \n   },   \n   {  \n     "children": [  \n       {  \n         "children": [],   \n         "data": {  \n           "playcount": "181",   \n           "$color": "#B54932",   \n           "image": "http://userserve-ak.last.fm/serve/300x300/8673371.jpg",   \n           "$area": 181  \n         },   \n         "id": "album-The Science of Things",   \n         "name": "The Science of Things"  \n       }  \n     ],   \n     "data": {  \n       "playcount": 181,   \n       "$area": 181  \n     },   \n     "id": "artist_Bush",   \n     "name": "Bush"  \n   },   \n   {  \n     "children": [  \n       {  \n         "children": [],   \n         "data": {  \n           "playcount": "229",   \n           "$color": "#A15D32",   \n           "image": "http://userserve-ak.last.fm/serve/300x300/32579429.jpg",   \n           "$area": 229  \n         },   \n         "id": "album-Echoes, Silence, Patience &amp; Grace",   \n         "name": "Echoes, Silence, Patience &amp; Grace"  \n       },   \n       {  \n         "children": [],   \n         "data": {  \n           "playcount": "185",   \n           "$color": "#B34B32",   \n           "image": "http://images.amazon.com/images/P/B0009HLDFU.01.MZZZZZZZ.jpg",   \n           "$area": 185  \n         },   \n         "id": "album-In Your Honor (disc 2)",   \n         "name": "In Your Honor (disc 2)"  \n       }  \n     ],   \n     "data": {  \n       "playcount": 414,   \n       "$area": 414  \n     },   \n     "id": "artist_Foo Fighters",   \n     "name": "Foo Fighters"  \n   },   \n   {  \n     "children": [  \n       {  \n         "children": [],   \n         "data": {  \n           "playcount": "398",   \n           "$color": "#5DA132",   \n           "image": "http://images.amazon.com/images/P/B00005LNP5.01._SCMZZZZZZZ_.jpg",   \n           "$area": 398  \n         },   \n         "id": "album-Elija Y Gane",   \n         "name": "Elija Y Gane"  \n       },   \n       {  \n         "children": [],   \n         "data": {  \n           "playcount": "203",   \n           "$color": "#AC5232",   \n           "image": "http://images.amazon.com/images/P/B0000B193V.01._SCMZZZZZZZ_.jpg",   \n           "$area": 203  \n         },   \n         "id": "album-Para los Arboles",   \n         "name": "Para los Arboles"  \n       }  \n     ],   \n     "data": {  \n       "playcount": 601,   \n       "$area": 601  \n     },   \n     "id": "artist_Luis Alberto Spinetta",   \n     "name": "Luis Alberto Spinetta"  \n   },   \n   {  \n     "children": [  \n       {  \n         "children": [],   \n         "data": {  \n           "playcount": "224",   \n           "$color": "#A35B32",   \n           "image": "http://userserve-ak.last.fm/serve/300x300/26497553.jpg",   \n           "$area": 224  \n         },   \n         "id": "album-Music Bank",   \n         "name": "Music Bank"  \n       },   \n       {  \n         "children": [],   \n         "data": {  \n           "playcount": "217",   \n           "$color": "#A65832",   \n           "image": "http://images.amazon.com/images/P/B0000296JW.01.MZZZZZZZ.jpg",   \n           "$area": 217  \n         },   \n         "id": "album-Music Bank (disc 1)",   \n         "name": "Music Bank (disc 1)"  \n       },   \n       {  \n         "children": [],   \n         "data": {  \n           "playcount": "215",   \n           "$color": "#A75732",   \n           "image": "http://images.amazon.com/images/P/B0000296JW.01.MZZZZZZZ.jpg",   \n           "$area": 215  \n         },   \n         "id": "album-Music Bank (disc 2)",   \n         "name": "Music Bank (disc 2)"  \n       },   \n       {  \n         "children": [],   \n         "data": {  \n           "playcount": "181",   \n           "$color": "#B54932",   \n           "image": "http://images.amazon.com/images/P/B0000296JW.01.MZZZZZZZ.jpg",   \n           "$area": 181  \n         },   \n         "id": "album-Music Bank (disc 3)",   \n         "name": "Music Bank (disc 3)"  \n       }  \n     ],   \n     "data": {  \n       "playcount": 837,   \n       "$area": 837  \n     },   \n     "id": "artist_Alice in Chains",   \n     "name": "Alice in Chains"  \n   },   \n   {  \n     "children": [  \n       {  \n         "children": [],   \n         "data": {  \n           "playcount": "627",   \n           "$color": "#00FF32",   \n           "image": "http://userserve-ak.last.fm/serve/300x300/8480501.jpg",   \n           "$area": 627  \n         },   \n         "id": "album-10,000 Days",   \n         "name": "10,000 Days"  \n       }  \n     ],   \n     "data": {  \n       "playcount": 627,   \n       "$area": 627  \n     },   \n     "id": "artist_Tool",   \n     "name": "Tool"  \n   },   \n   {  \n     "children": [  \n       {  \n         "children": [],   \n         "data": {  \n           "playcount": "261",   \n           "$color": "#946A32",   \n           "image": "http://cdn.last.fm/flatness/catalogue/noimage/2/default_album_medium.png",   \n           "$area": 261  \n         },   \n         "id": "album-2006-09-07: O-Bar, Stockholm, Sweden",   \n         "name": "2006-09-07: O-Bar, Stockholm, Sweden"  \n       },   \n       {  \n         "children": [],   \n         "data": {  \n           "playcount": "211",   \n           "$color": "#A95532",   \n           "image": "http://userserve-ak.last.fm/serve/300x300/25402479.jpg",   \n           "$area": 211  \n         },   \n         "id": "album-Lost and Found",   \n         "name": "Lost and Found"  \n       }  \n     ],   \n     "data": {  \n       "playcount": 472,   \n       "$area": 472  \n     },   \n     "id": "artist_Chris Cornell",   \n     "name": "Chris Cornell"  \n   },   \n   {  \n     "children": [  \n       {  \n         "children": [],   \n         "data": {  \n           "playcount": "197",   \n           "$color": "#AE5032",   \n           "image": "http://userserve-ak.last.fm/serve/300x300/8634627.jpg",   \n           "$area": 197  \n         },   \n         "id": "album-The Sickness",   \n         "name": "The Sickness"  \n       }  \n     ],   \n     "data": {  \n       "playcount": 197,   \n       "$area": 197  \n     },   \n     "id": "artist_Disturbed",   \n     "name": "Disturbed"  \n   },   \n   {  \n     "children": [  \n       {  \n         "children": [],   \n         "data": {  \n           "playcount": "493",   \n           "$color": "#36C832",   \n           "image": "http://userserve-ak.last.fm/serve/300x300/8591345.jpg",   \n           "$area": 493  \n         },   \n         "id": "album-Mama\'s Gun",   \n         "name": "Mama\'s Gun"  \n       }  \n     ],   \n     "data": {  \n       "playcount": 493,   \n       "$area": 493  \n     },   \n     "id": "artist_Erykah Badu",   \n     "name": "Erykah Badu"  \n   },   \n   {  \n     "children": [  \n       {  \n         "children": [],   \n         "data": {  \n           "playcount": "249",   \n           "$color": "#996532",   \n           "image": "http://userserve-ak.last.fm/serve/300x300/32070871.jpg",   \n           "$area": 249  \n         },   \n         "id": "album-Audioslave",   \n         "name": "Audioslave"  \n       }  \n     ],   \n     "data": {  \n       "playcount": 249,   \n       "$area": 249  \n     },   \n     "id": "artist_Audioslave",   \n     "name": "Audioslave"  \n   },   \n   {  \n     "children": [  \n       {  \n         "children": [],   \n         "data": {  \n           "playcount": "359",   \n           "$color": "#6C9232",   \n           "image": "http://userserve-ak.last.fm/serve/300x300/15858421.jpg",   \n           "$area": 359  \n         },   \n         "id": "album-Comfort y M\\u00fasica Para Volar",   \n         "name": "Comfort y M\\u00fasica Para Volar"  \n       }  \n     ],   \n     "data": {  \n       "playcount": 359,   \n       "$area": 359  \n     },   \n     "id": "artist_Soda Stereo",   \n     "name": "Soda Stereo"  \n   },   \n   {  \n     "children": [  \n       {  \n         "children": [],   \n         "data": {  \n           "playcount": "302",   \n           "$color": "#847A32",   \n           "image": "http://userserve-ak.last.fm/serve/300x300/8776205.jpg",   \n           "$area": 302  \n         },   \n         "id": "album-Clearing the Channel",   \n         "name": "Clearing the Channel"  \n       }  \n     ],   \n     "data": {  \n       "playcount": 302,   \n       "$area": 302  \n     },   \n     "id": "artist_Sinch",   \n     "name": "Sinch"  \n   },   \n   {  \n     "children": [  \n       {  \n         "children": [],   \n         "data": {  \n           "playcount": "177",   \n           "$color": "#B74732",   \n           "image": "http://userserve-ak.last.fm/serve/300x300/32457599.jpg",   \n           "$area": 177  \n         },   \n         "id": "album-Crash",   \n         "name": "Crash"  \n       }  \n     ],   \n     "data": {  \n       "playcount": 177,   \n       "$area": 177  \n     },   \n     "id": "artist_Dave Matthews Band",   \n     "name": "Dave Matthews Band"  \n   },   \n   {  \n     "children": [  \n       {  \n         "children": [],   \n         "data": {  \n           "playcount": "207",   \n           "$color": "#AA5432",   \n           "image": "http://userserve-ak.last.fm/serve/300x300/30352203.jpg",   \n           "$area": 207  \n         },   \n         "id": "album-Vs.",   \n         "name": "Vs."  \n       }  \n     ],   \n     "data": {  \n       "playcount": 207,   \n       "$area": 207  \n     },   \n     "id": "artist_Pearl Jam",   \n     "name": "Pearl Jam"  \n   },   \n   {  \n     "children": [  \n       {  \n         "children": [],   \n         "data": {  \n           "playcount": "486",   \n           "$color": "#39C532",   \n           "image": "http://userserve-ak.last.fm/serve/300x300/26053425.jpg",   \n           "$area": 486  \n         },   \n         "id": "album-It All Makes Sense Now",   \n         "name": "It All Makes Sense Now"  \n       },   \n       {  \n         "children": [],   \n         "data": {  \n           "playcount": "251",   \n           "$color": "#986632",   \n           "image": "http://userserve-ak.last.fm/serve/300x300/9658733.jpg",   \n           "$area": 251  \n         },   \n         "id": "album-Air",   \n         "name": "Air"  \n       }  \n     ],   \n     "data": {  \n       "playcount": 737,   \n       "$area": 737  \n     },   \n     "id": "artist_Kr\\u00f8m",   \n     "name": "Kr\\u00f8m"  \n   },   \n   {  \n     "children": [  \n       {  \n         "children": [],   \n         "data": {  \n           "playcount": "345",   \n           "$color": "#728C32",   \n           "image": "http://userserve-ak.last.fm/serve/300x300/8605651.jpg",   \n           "$area": 345  \n         },   \n         "id": "album-Temple Of The Dog",   \n         "name": "Temple Of The Dog"  \n       }  \n     ],   \n     "data": {  \n       "playcount": 345,   \n       "$area": 345  \n     },   \n     "id": "artist_Temple of the Dog",   \n     "name": "Temple of the Dog"  \n   },   \n   {  \n     "children": [  \n       {  \n         "children": [],   \n         "data": {  \n           "playcount": "318",   \n           "$color": "#7D8132",   \n           "image": "http://userserve-ak.last.fm/serve/300x300/29274729.jpg",   \n           "$area": 318  \n         },   \n         "id": "album-And All That Could Have Been (Still)",   \n         "name": "And All That Could Have Been (Still)"  \n       }  \n     ],   \n     "data": {  \n       "playcount": 318,   \n       "$area": 318  \n     },   \n     "id": "artist_Nine Inch Nails",   \n     "name": "Nine Inch Nails"  \n   },   \n   {  \n     "children": [  \n       {  \n         "children": [],   \n         "data": {  \n           "playcount": "256",   \n           "$color": "#966832",   \n           "image": "http://userserve-ak.last.fm/serve/300x300/32595059.jpg",   \n           "$area": 256  \n         },   \n         "id": "album-Mamagubida",   \n         "name": "Mamagubida"  \n       },   \n       {  \n         "children": [],   \n         "data": {  \n           "playcount": "220",   \n           "$color": "#A55932",   \n           "image": "http://cdn.last.fm/flatness/catalogue/noimage/2/default_album_medium.png",   \n           "$area": 220  \n         },   \n         "id": "album-Reggae \\u00e0 Coup de Cirque",   \n         "name": "Reggae \\u00e0 Coup de Cirque"  \n       },   \n       {  \n         "children": [],   \n         "data": {  \n           "playcount": "181",   \n           "$color": "#B54932",   \n           "image": "http://userserve-ak.last.fm/serve/300x300/16799743.jpg",   \n           "$area": 181  \n         },   \n         "id": "album-Grain de sable",   \n         "name": "Grain de sable"  \n       }  \n     ],   \n     "data": {  \n       "playcount": 657,   \n       "$area": 657  \n     },   \n     "id": "artist_Tryo",   \n     "name": "Tryo"  \n   },   \n   {  \n     "children": [  \n       {  \n         "children": [],   \n         "data": {  \n           "playcount": "258",   \n           "$color": "#966832",   \n           "image": "http://cdn.last.fm/flatness/catalogue/noimage/2/default_album_medium.png",   \n           "$area": 258  \n         },   \n         "id": "album-Best Of",   \n         "name": "Best Of"  \n       },   \n       {  \n         "children": [],   \n         "data": {  \n           "playcount": "176",   \n           "$color": "#B74732",   \n           "image": "http://userserve-ak.last.fm/serve/300x300/5264426.jpg",   \n           "$area": 176  \n         },   \n         "id": "album-Robbin\' The Hood",   \n         "name": "Robbin\' The Hood"  \n       }  \n     ],   \n     "data": {  \n       "playcount": 434,   \n       "$area": 434  \n     },   \n     "id": "artist_Sublime",   \n     "name": "Sublime"  \n   },   \n   {  \n     "children": [  \n       {  \n         "children": [],   \n         "data": {  \n           "playcount": "418",   \n           "$color": "#55AA32",   \n           "image": "http://userserve-ak.last.fm/serve/300x300/8590493.jpg",   \n           "$area": 418  \n         },   \n         "id": "album-One Hot Minute",   \n         "name": "One Hot Minute"  \n       }  \n     ],   \n     "data": {  \n       "playcount": 418,   \n       "$area": 418  \n     },   \n     "id": "artist_Red Hot Chili Peppers",   \n     "name": "Red Hot Chili Peppers"  \n   },   \n   {  \n     "children": [  \n       {  \n         "children": [],   \n         "data": {  \n           "playcount": "275",   \n           "$color": "#8F6F32",   \n           "image": "http://userserve-ak.last.fm/serve/300x300/17597653.jpg",   \n           "$area": 275  \n         },   \n         "id": "album-Chinese Democracy",   \n         "name": "Chinese Democracy"  \n       },   \n       {  \n         "children": [],   \n         "data": {  \n           "playcount": "203",   \n           "$color": "#AC5232",   \n           "image": "http://userserve-ak.last.fm/serve/300x300/15231979.jpg",   \n           "$area": 203  \n         },   \n         "id": "album-Use Your Illusion II",   \n         "name": "Use Your Illusion II"  \n       }  \n     ],   \n     "data": {  \n       "playcount": 478,   \n       "$area": 478  \n     },   \n     "id": "artist_Guns N\' Roses",   \n     "name": "Guns N\' Roses"  \n   },   \n   {  \n     "children": [  \n       {  \n         "children": [],   \n         "data": {  \n           "playcount": "208",   \n           "$color": "#AA5432",   \n           "image": "http://images.amazon.com/images/P/B0007LCNNE.01.MZZZZZZZ.jpg",   \n           "$area": 208  \n         },   \n         "id": "album-Tales of the Forgotten Melodies",   \n         "name": "Tales of the Forgotten Melodies"  \n       }  \n     ],   \n     "data": {  \n       "playcount": 208,   \n       "$area": 208  \n     },   \n     "id": "artist_Wax Tailor",   \n     "name": "Wax Tailor"  \n   },   \n   {  \n     "children": [  \n       {  \n         "children": [],   \n         "data": {  \n           "playcount": "208",   \n           "$color": "#AA5432",   \n           "image": "http://userserve-ak.last.fm/serve/300x300/7862623.png",   \n           "$area": 208  \n         },   \n         "id": "album-In Rainbows",   \n         "name": "In Rainbows"  \n       }  \n     ],   \n     "data": {  \n       "playcount": 208,   \n       "$area": 208  \n     },   \n     "id": "artist_Radiohead",   \n     "name": "Radiohead"  \n   },   \n   {  \n     "children": [  \n       {  \n         "children": [],   \n         "data": {  \n           "playcount": "317",   \n           "$color": "#7E8032",   \n           "image": "http://userserve-ak.last.fm/serve/300x300/8600371.jpg",   \n           "$area": 317  \n         },   \n         "id": "album-Down On The Upside",   \n         "name": "Down On The Upside"  \n       },   \n       {  \n         "children": [],   \n         "data": {  \n           "playcount": "290",   \n           "$color": "#897532",   \n           "image": "http://userserve-ak.last.fm/serve/300x300/8590515.jpg",   \n           "$area": 290  \n         },   \n         "id": "album-Superunknown",   \n         "name": "Superunknown"  \n       }  \n     ],   \n     "data": {  \n       "playcount": 607,   \n       "$area": 607  \n     },   \n     "id": "artist_Soundgarden",   \n     "name": "Soundgarden"  \n   },   \n   {  \n     "children": [  \n       {  \n         "children": [],   \n         "data": {  \n           "playcount": "247",   \n           "$color": "#9A6432",   \n           "image": "http://userserve-ak.last.fm/serve/300x300/15113951.jpg",   \n           "$area": 247  \n         },   \n         "id": "album-Nico",   \n         "name": "Nico"  \n       },   \n       {  \n         "children": [],   \n         "data": {  \n           "playcount": "218",   \n           "$color": "#A65832",   \n           "image": "http://userserve-ak.last.fm/serve/300x300/45729417.jpg",   \n           "$area": 218  \n         },   \n         "id": "album-Soup",   \n         "name": "Soup"  \n       },   \n       {  \n         "children": [],   \n         "data": {  \n           "playcount": "197",   \n           "$color": "#AE5032",   \n           "image": "http://images.amazon.com/images/P/B00005V5PW.01.MZZZZZZZ.jpg",   \n           "$area": 197  \n         },   \n         "id": "album-Classic Masters",   \n         "name": "Classic Masters"  \n       },   \n       {  \n         "children": [],   \n         "data": {  \n           "playcount": "194",   \n           "$color": "#B04E32",   \n           "image": "http://userserve-ak.last.fm/serve/300x300/15157989.jpg",   \n           "$area": 194  \n         },   \n         "id": "album-Blind Melon",   \n         "name": "Blind Melon"  \n       }  \n     ],   \n     "data": {  \n       "playcount": 856,   \n       "$area": 856  \n     },   \n     "id": "artist_Blind Melon",   \n     "name": "Blind Melon"  \n   },   \n   {  \n     "children": [  \n       {  \n         "children": [],   \n         "data": {  \n           "playcount": "537",   \n           "$color": "#24DA32",   \n           "image": "http://userserve-ak.last.fm/serve/300x300/17594883.jpg",   \n           "$area": 537  \n         },   \n         "id": "album-Make Yourself",   \n         "name": "Make Yourself"  \n       },   \n       {  \n         "children": [],   \n         "data": {  \n           "playcount": "258",   \n           "$color": "#966832",   \n           "image": "http://userserve-ak.last.fm/serve/300x300/31550385.jpg",   \n           "$area": 258  \n         },   \n         "id": "album-Light Grenades",   \n         "name": "Light Grenades"  \n       },   \n       {  \n         "children": [],   \n         "data": {  \n           "playcount": "181",   \n           "$color": "#B54932",   \n           "image": "http://userserve-ak.last.fm/serve/300x300/32309285.jpg",   \n           "$area": 181  \n         },   \n         "id": "album-Morning View",   \n         "name": "Morning View"  \n       }  \n     ],   \n     "data": {  \n       "playcount": 976,   \n       "$area": 976  \n     },   \n     "id": "artist_Incubus",   \n     "name": "Incubus"  \n   },   \n   {  \n     "children": [  \n       {  \n         "children": [],   \n         "data": {  \n           "playcount": "198",   \n           "$color": "#AE5032",   \n           "image": "http://userserve-ak.last.fm/serve/300x300/8599099.jpg",   \n           "$area": 198  \n         },   \n         "id": "album-On And On",   \n         "name": "On And On"  \n       },   \n       {  \n         "children": [],   \n         "data": {  \n           "playcount": "186",   \n           "$color": "#B34B32",   \n           "image": "http://userserve-ak.last.fm/serve/300x300/30082075.jpg",   \n           "$area": 186  \n         },   \n         "id": "album-Brushfire Fairytales",   \n         "name": "Brushfire Fairytales"  \n       }  \n     ],   \n     "data": {  \n       "playcount": 384,   \n       "$area": 384  \n     },   \n     "id": "artist_Jack Johnson",   \n     "name": "Jack Johnson"  \n   },   \n   {  \n     "children": [  \n       {  \n         "children": [],   \n         "data": {  \n           "playcount": "349",   \n           "$color": "#718D32",   \n           "image": "http://userserve-ak.last.fm/serve/300x300/21881921.jpg",   \n           "$area": 349  \n         },   \n         "id": "album-Mother Love Bone",   \n         "name": "Mother Love Bone"  \n       }  \n     ],   \n     "data": {  \n       "playcount": 349,   \n       "$area": 349  \n     },   \n     "id": "artist_Mother Love Bone",   \n     "name": "Mother Love Bone"  \n   }  \n ],   \n "data": {},   \n "id": "root",   \n "name": "Top Albums"  \n };  \n"""\ndef example(x):\n\n    nametoks = x.split(\'.\')\n    \n    d = None\n    \n    lastn = None\n    id_ = \'\'\n    for name in nametoks:\n        if id_ == \'\':\n            id_ = name\n        else:\n            id_ = id_ + \'.\' + name\n\n        n = {}\n        n[\'id\'] = id_\n        n[\'name\'] = name\n        n[\'children\'] = []\n        n[\'data\'] = {}\n        n[\'data\'][\'$area\'] = 50\n        n[\'data\'][\'$color\'] = "#906E32"\n\n        if d == None:\n            d = n\n        else:\n            lastn[\'children\'].append(n)\n        \n        lastn = n\n        \n        \n    return d\n\ndef treemap():\n    import json\n    t = example(EXAMPLE)\n    r = json.dumps(t, sort_keys=True, indent=4)\n    print type(r)\n    return dict(message=x)\n\n\ndef index():\n    """\n    example action using the internationalization operator T and flash\n    rendered by views/default/index.html or views/generic.html\n    """\n    return dict(message=T(\'Hello World\'))\n\ndef user():\n    """\n    exposes:\n    http://..../[app]/default/user/login\n    http://..../[app]/default/user/logout\n    http://..../[app]/default/user/register\n    http://..../[app]/default/user/profile\n    http://..../[app]/default/user/retrieve_password\n    http://..../[app]/default/user/change_password\n    use @auth.requires_login()\n        @auth.requires_membership(\'group name\')\n        @auth.requires_permission(\'read\',\'table name\',record_id)\n    to decorate functions that need access control\n    """\n    return dict(form=auth())\n\n\ndef download():\n    """\n    allows downloading of uploaded files\n    http://..../[app]/default/download/[filename]\n    """\n    return response.download(request,db)\n\n\ndef call():\n    """\n    exposes services. for example:\n    http://..../[app]/default/call/jsonrpc\n    decorate with @services.jsonrpc the functions to expose\n    supports xml, json, xmlrpc, jsonrpc, amfrpc, rss, csv\n    """\n    return service()\n\n\n@auth.requires_signature()\ndef data():\n    """\n    http://..../[app]/default/data/tables\n    http://..../[app]/default/data/create/[table]\n    http://..../[app]/default/data/read/[table]/[id]\n    http://..../[app]/default/data/update/[table]/[id]\n    http://..../[app]/default/data/delete/[table]/[id[\n    http://..../[app]/default/data/select/[table]\n    http://..../[app]/default/data/search/[table]\n    but URLs bust be signed, i.e. linked with\n      A(\'table\',_href=URL(\'data/tables\',user_signature=True))\n    or with the signed load operator\n      LOAD(\'default\',\'data.load\',args=\'tables\',ajax=True,user_signature=True)\n    """\n    return dict(form=crud())\n\n\n\n\n\n\n\nresponse._vars=response._caller(treemap)\n'
p6
sS'snapshot'
p7
(dp8
S'exception'
p9
(dp10
S'__hash__'
p11
S"<method-wrapper '__hash__' of exceptions.NameError object>"
p12
sS'__setattr__'
p13
S"<method-wrapper '__setattr__' of exceptions.NameError object>"
p14
sS'__reduce_ex__'
p15
S'<built-in method __reduce_ex__ of exceptions.NameError object>'
p16
sS'__getslice__'
p17
S"<method-wrapper '__getslice__' of exceptions.NameError object>"
p18
sS'__getitem__'
p19
S"<method-wrapper '__getitem__' of exceptions.NameError object>"
p20
sS'__setstate__'
p21
S'<built-in method __setstate__ of exceptions.NameError object>'
p22
sS'args'
p23
S'("global name \'x\' is not defined",)'
p24
sS'__reduce__'
p25
S'<built-in method __reduce__ of exceptions.NameError object>'
p26
sS'__str__'
p27
S"<method-wrapper '__str__' of exceptions.NameError object>"
p28
sS'__format__'
p29
S'<built-in method __format__ of exceptions.NameError object>'
p30
sS'__getattribute__'
p31
S"<method-wrapper '__getattribute__' of exceptions.NameError object>"
p32
sS'__class__'
p33
S"<type 'exceptions.NameError'>"
p34
sS'__unicode__'
p35
S'<built-in method __unicode__ of exceptions.NameError object>'
p36
sS'__delattr__'
p37
S"<method-wrapper '__delattr__' of exceptions.NameError object>"
p38
sS'__subclasshook__'
p39
S'<built-in method __subclasshook__ of type object>'
p40
sS'__repr__'
p41
S"<method-wrapper '__repr__' of exceptions.NameError object>"
p42
sS'__dict__'
p43
S'{}'
p44
sS'__sizeof__'
p45
S'<built-in method __sizeof__ of exceptions.NameError object>'
p46
sS'__doc__'
p47
S"'Name not found globally.'"
p48
sS'__init__'
p49
S"<method-wrapper '__init__' of exceptions.NameError object>"
p50
sS'__new__'
p51
S'<built-in method __new__ of type object>'
p52
ssS'evalue'
p53
S"global name 'x' is not defined"
p54
sS'request'
p55
ccopy_reg
_reconstructor
p56
(cgluon.html
BEAUTIFY
p57
c__builtin__
object
p58
NtRp59
(dp60
S'attributes'
p61
(dp62
sS'components'
p63
(lp64
g56
(cgluon.html
TABLE
p65
g58
NtRp66
(dp67
g61
(dp68
S'level'
p69
I5
ssS'parent'
p70
Nsg63
(lp71
g56
(cgluon.html
TR
p72
g58
NtRp73
(dp74
g61
(dp75
sg70
g66
sg63
(lp76
g56
(cgluon.html
TD
p77
g58
NtRp78
(dp79
g61
(dp80
S'_style'
p81
S'font-weight:bold;'
p82
ssg70
g73
sg63
(lp83
S'ajax'
p84
asbag56
(g77
g58
NtRp85
(dp86
g61
(dp87
S'_valign'
p88
S'top'
p89
ssg70
g73
sg63
(lp90
S':'
asbag56
(g77
g58
NtRp91
(dp92
g61
(dp93
sg70
g73
sg63
(lp94
g56
(g57
g58
NtRp95
(dp96
g61
(dp97
g69
I5
ssg70
g91
sg63
(lp98
S'False'
p99
asbasbasbag56
(g72
g58
NtRp100
(dp101
g61
(dp102
sg70
g66
sg63
(lp103
g56
(g77
g58
NtRp104
(dp105
g61
(dp106
g81
g82
ssg70
g100
sg63
(lp107
S'application'
p108
asbag56
(g77
g58
NtRp109
(dp110
g61
(dp111
g88
g89
ssg70
g100
sg63
(lp112
S':'
asbag56
(g77
g58
NtRp113
(dp114
g61
(dp115
sg70
g100
sg63
(lp116
g56
(g57
g58
NtRp117
(dp118
g61
(dp119
g69
I5
ssg70
g113
sg63
(lp120
S'infovis'
p121
asbasbasbag56
(g72
g58
NtRp122
(dp123
g61
(dp124
sg70
g66
sg63
(lp125
g56
(g77
g58
NtRp126
(dp127
g61
(dp128
g81
g82
ssg70
g122
sg63
(lp129
g23
asbag56
(g77
g58
NtRp130
(dp131
g61
(dp132
g88
g89
ssg70
g122
sg63
(lp133
S':'
asbag56
(g77
g58
NtRp134
(dp135
g61
(dp136
sg70
g122
sg63
(lp137
g56
(g57
g58
NtRp138
(dp139
g61
(dp140
g69
I5
ssg70
g134
sg63
(lp141
g56
(g65
g58
NtRp142
(dp143
g61
(dp144
g69
I4
ssg70
Nsg63
(lp145
sbasbasbasbag56
(g72
g58
NtRp146
(dp147
g61
(dp148
sg70
g66
sg63
(lp149
g56
(g77
g58
NtRp150
(dp151
g61
(dp152
g81
g82
ssg70
g146
sg63
(lp153
S'body'
p154
asbag56
(g77
g58
NtRp155
(dp156
g61
(dp157
g88
g89
ssg70
g146
sg63
(lp158
S':'
asbag56
(g77
g58
NtRp159
(dp160
g61
(dp161
sg70
g146
sg63
(lp162
g56
(g57
g58
NtRp163
(dp164
g61
(dp165
g69
I5
ssg70
g159
sg63
(lp166
S'<cStringIO.StringO object at 0x1018baea0>'
p167
asbasbasbag56
(g72
g58
NtRp168
(dp169
g61
(dp170
sg70
g66
sg63
(lp171
g56
(g77
g58
NtRp172
(dp173
g61
(dp174
g81
g82
ssg70
g168
sg63
(lp175
S'client'
p176
asbag56
(g77
g58
NtRp177
(dp178
g61
(dp179
g88
g89
ssg70
g168
sg63
(lp180
S':'
asbag56
(g77
g58
NtRp181
(dp182
g61
(dp183
sg70
g168
sg63
(lp184
g56
(g57
g58
NtRp185
(dp186
g61
(dp187
g69
I5
ssg70
g181
sg63
(lp188
S'127.0.0.1'
p189
asbasbasbag56
(g72
g58
NtRp190
(dp191
g61
(dp192
sg70
g66
sg63
(lp193
g56
(g77
g58
NtRp194
(dp195
g61
(dp196
g81
g82
ssg70
g190
sg63
(lp197
S'controller'
p198
asbag56
(g77
g58
NtRp199
(dp200
g61
(dp201
g88
g89
ssg70
g190
sg63
(lp202
S':'
asbag56
(g77
g58
NtRp203
(dp204
g61
(dp205
sg70
g190
sg63
(lp206
g56
(g57
g58
NtRp207
(dp208
g61
(dp209
g69
I5
ssg70
g203
sg63
(lp210
S'visual'
p211
asbasbasbag56
(g72
g58
NtRp212
(dp213
g61
(dp214
sg70
g66
sg63
(lp215
g56
(g77
g58
NtRp216
(dp217
g61
(dp218
g81
g82
ssg70
g212
sg63
(lp219
S'cookies'
p220
asbag56
(g77
g58
NtRp221
(dp222
g61
(dp223
g88
g89
ssg70
g212
sg63
(lp224
S':'
asbag56
(g77
g58
NtRp225
(dp226
g61
(dp227
sg70
g212
sg63
(lp228
g56
(g57
g58
NtRp229
(dp230
g61
(dp231
g69
I5
ssg70
g225
sg63
(lp232
g56
(g65
g58
NtRp233
(dp234
g61
(dp235
g69
I4
ssg70
Nsg63
(lp236
g56
(g72
g58
NtRp237
(dp238
g61
(dp239
sg70
g233
sg63
(lp240
g56
(g77
g58
NtRp241
(dp242
g61
(dp243
g81
g82
ssg70
g237
sg63
(lp244
S'session_id_admin'
p245
asbag56
(g77
g58
NtRp246
(dp247
g61
(dp248
g88
g89
ssg70
g237
sg63
(lp249
S':'
asbag56
(g77
g58
NtRp250
(dp251
g61
(dp252
sg70
g237
sg63
(lp253
g56
(g57
g58
NtRp254
(dp255
g61
(dp256
g69
I4
ssg70
g250
sg63
(lp257
g56
(g65
g58
NtRp258
(dp259
g61
(dp260
g69
I3
ssg70
Nsg63
(lp261
g56
(g72
g58
NtRp262
(dp263
g61
(dp264
sg70
g258
sg63
(lp265
g56
(g77
g58
NtRp266
(dp267
g61
(dp268
g81
g82
ssg70
g262
sg63
(lp269
S'comment'
p270
asbag56
(g77
g58
NtRp271
(dp272
g61
(dp273
g88
g89
ssg70
g262
sg63
(lp274
S':'
asbag56
(g77
g58
NtRp275
(dp276
g61
(dp277
sg70
g262
sg63
(lp278
g56
(g57
g58
NtRp279
(dp280
g61
(dp281
g69
I3
ssg70
g275
sg63
(lp282
S''
asbasbasbag56
(g72
g58
NtRp283
(dp284
g61
(dp285
sg70
g258
sg63
(lp286
g56
(g77
g58
NtRp287
(dp288
g61
(dp289
g81
g82
ssg70
g283
sg63
(lp290
S'domain'
p291
asbag56
(g77
g58
NtRp292
(dp293
g61
(dp294
g88
g89
ssg70
g283
sg63
(lp295
S':'
asbag56
(g77
g58
NtRp296
(dp297
g61
(dp298
sg70
g283
sg63
(lp299
g56
(g57
g58
NtRp300
(dp301
g61
(dp302
g69
I3
ssg70
g296
sg63
(lp303
S''
asbasbasbag56
(g72
g58
NtRp304
(dp305
g61
(dp306
sg70
g258
sg63
(lp307
g56
(g77
g58
NtRp308
(dp309
g61
(dp310
g81
g82
ssg70
g304
sg63
(lp311
S'expires'
p312
asbag56
(g77
g58
NtRp313
(dp314
g61
(dp315
g88
g89
ssg70
g304
sg63
(lp316
S':'
asbag56
(g77
g58
NtRp317
(dp318
g61
(dp319
sg70
g304
sg63
(lp320
g56
(g57
g58
NtRp321
(dp322
g61
(dp323
g69
I3
ssg70
g317
sg63
(lp324
S''
asbasbasbag56
(g72
g58
NtRp325
(dp326
g61
(dp327
sg70
g258
sg63
(lp328
g56
(g77
g58
NtRp329
(dp330
g61
(dp331
g81
g82
ssg70
g325
sg63
(lp332
S'httponly'
p333
asbag56
(g77
g58
NtRp334
(dp335
g61
(dp336
g88
g89
ssg70
g325
sg63
(lp337
S':'
asbag56
(g77
g58
NtRp338
(dp339
g61
(dp340
sg70
g325
sg63
(lp341
g56
(g57
g58
NtRp342
(dp343
g61
(dp344
g69
I3
ssg70
g338
sg63
(lp345
S''
asbasbasbag56
(g72
g58
NtRp346
(dp347
g61
(dp348
sg70
g258
sg63
(lp349
g56
(g77
g58
NtRp350
(dp351
g61
(dp352
g81
g82
ssg70
g346
sg63
(lp353
S'max-age'
p354
asbag56
(g77
g58
NtRp355
(dp356
g61
(dp357
g88
g89
ssg70
g346
sg63
(lp358
S':'
asbag56
(g77
g58
NtRp359
(dp360
g61
(dp361
sg70
g346
sg63
(lp362
g56
(g57
g58
NtRp363
(dp364
g61
(dp365
g69
I3
ssg70
g359
sg63
(lp366
S''
asbasbasbag56
(g72
g58
NtRp367
(dp368
g61
(dp369
sg70
g258
sg63
(lp370
g56
(g77
g58
NtRp371
(dp372
g61
(dp373
g81
g82
ssg70
g367
sg63
(lp374
S'path'
p375
asbag56
(g77
g58
NtRp376
(dp377
g61
(dp378
g88
g89
ssg70
g367
sg63
(lp379
S':'
asbag56
(g77
g58
NtRp380
(dp381
g61
(dp382
sg70
g367
sg63
(lp383
g56
(g57
g58
NtRp384
(dp385
g61
(dp386
g69
I3
ssg70
g380
sg63
(lp387
S''
asbasbasbag56
(g72
g58
NtRp388
(dp389
g61
(dp390
sg70
g258
sg63
(lp391
g56
(g77
g58
NtRp392
(dp393
g61
(dp394
g81
g82
ssg70
g388
sg63
(lp395
S'secure'
p396
asbag56
(g77
g58
NtRp397
(dp398
g61
(dp399
g88
g89
ssg70
g388
sg63
(lp400
S':'
asbag56
(g77
g58
NtRp401
(dp402
g61
(dp403
sg70
g388
sg63
(lp404
g56
(g57
g58
NtRp405
(dp406
g61
(dp407
g69
I3
ssg70
g401
sg63
(lp408
S''
asbasbasbag56
(g72
g58
NtRp409
(dp410
g61
(dp411
sg70
g258
sg63
(lp412
g56
(g77
g58
NtRp413
(dp414
g61
(dp415
g81
g82
ssg70
g409
sg63
(lp416
S'version'
p417
asbag56
(g77
g58
NtRp418
(dp419
g61
(dp420
g88
g89
ssg70
g409
sg63
(lp421
S':'
asbag56
(g77
g58
NtRp422
(dp423
g61
(dp424
sg70
g409
sg63
(lp425
g56
(g57
g58
NtRp426
(dp427
g61
(dp428
g69
I3
ssg70
g422
sg63
(lp429
S''
asbasbasbasbasbasbasbag56
(g72
g58
NtRp430
(dp431
g61
(dp432
sg70
g233
sg63
(lp433
g56
(g77
g58
NtRp434
(dp435
g61
(dp436
g81
g82
ssg70
g430
sg63
(lp437
S'session_id_infovis'
p438
asbag56
(g77
g58
NtRp439
(dp440
g61
(dp441
g88
g89
ssg70
g430
sg63
(lp442
S':'
asbag56
(g77
g58
NtRp443
(dp444
g61
(dp445
sg70
g430
sg63
(lp446
g56
(g57
g58
NtRp447
(dp448
g61
(dp449
g69
I4
ssg70
g443
sg63
(lp450
g56
(g65
g58
NtRp451
(dp452
g61
(dp453
g69
I3
ssg70
Nsg63
(lp454
g56
(g72
g58
NtRp455
(dp456
g61
(dp457
sg70
g451
sg63
(lp458
g56
(g77
g58
NtRp459
(dp460
g61
(dp461
g81
g82
ssg70
g455
sg63
(lp462
g270
asbag56
(g77
g58
NtRp463
(dp464
g61
(dp465
g88
g89
ssg70
g455
sg63
(lp466
S':'
asbag56
(g77
g58
NtRp467
(dp468
g61
(dp469
sg70
g455
sg63
(lp470
g56
(g57
g58
NtRp471
(dp472
g61
(dp473
g69
I3
ssg70
g467
sg63
(lp474
S''
asbasbasbag56
(g72
g58
NtRp475
(dp476
g61
(dp477
sg70
g451
sg63
(lp478
g56
(g77
g58
NtRp479
(dp480
g61
(dp481
g81
g82
ssg70
g475
sg63
(lp482
g291
asbag56
(g77
g58
NtRp483
(dp484
g61
(dp485
g88
g89
ssg70
g475
sg63
(lp486
S':'
asbag56
(g77
g58
NtRp487
(dp488
g61
(dp489
sg70
g475
sg63
(lp490
g56
(g57
g58
NtRp491
(dp492
g61
(dp493
g69
I3
ssg70
g487
sg63
(lp494
S''
asbasbasbag56
(g72
g58
NtRp495
(dp496
g61
(dp497
sg70
g451
sg63
(lp498
g56
(g77
g58
NtRp499
(dp500
g61
(dp501
g81
g82
ssg70
g495
sg63
(lp502
g312
asbag56
(g77
g58
NtRp503
(dp504
g61
(dp505
g88
g89
ssg70
g495
sg63
(lp506
S':'
asbag56
(g77
g58
NtRp507
(dp508
g61
(dp509
sg70
g495
sg63
(lp510
g56
(g57
g58
NtRp511
(dp512
g61
(dp513
g69
I3
ssg70
g507
sg63
(lp514
S''
asbasbasbag56
(g72
g58
NtRp515
(dp516
g61
(dp517
sg70
g451
sg63
(lp518
g56
(g77
g58
NtRp519
(dp520
g61
(dp521
g81
g82
ssg70
g515
sg63
(lp522
g333
asbag56
(g77
g58
NtRp523
(dp524
g61
(dp525
g88
g89
ssg70
g515
sg63
(lp526
S':'
asbag56
(g77
g58
NtRp527
(dp528
g61
(dp529
sg70
g515
sg63
(lp530
g56
(g57
g58
NtRp531
(dp532
g61
(dp533
g69
I3
ssg70
g527
sg63
(lp534
S''
asbasbasbag56
(g72
g58
NtRp535
(dp536
g61
(dp537
sg70
g451
sg63
(lp538
g56
(g77
g58
NtRp539
(dp540
g61
(dp541
g81
g82
ssg70
g535
sg63
(lp542
g354
asbag56
(g77
g58
NtRp543
(dp544
g61
(dp545
g88
g89
ssg70
g535
sg63
(lp546
S':'
asbag56
(g77
g58
NtRp547
(dp548
g61
(dp549
sg70
g535
sg63
(lp550
g56
(g57
g58
NtRp551
(dp552
g61
(dp553
g69
I3
ssg70
g547
sg63
(lp554
S''
asbasbasbag56
(g72
g58
NtRp555
(dp556
g61
(dp557
sg70
g451
sg63
(lp558
g56
(g77
g58
NtRp559
(dp560
g61
(dp561
g81
g82
ssg70
g555
sg63
(lp562
g375
asbag56
(g77
g58
NtRp563
(dp564
g61
(dp565
g88
g89
ssg70
g555
sg63
(lp566
S':'
asbag56
(g77
g58
NtRp567
(dp568
g61
(dp569
sg70
g555
sg63
(lp570
g56
(g57
g58
NtRp571
(dp572
g61
(dp573
g69
I3
ssg70
g567
sg63
(lp574
S''
asbasbasbag56
(g72
g58
NtRp575
(dp576
g61
(dp577
sg70
g451
sg63
(lp578
g56
(g77
g58
NtRp579
(dp580
g61
(dp581
g81
g82
ssg70
g575
sg63
(lp582
g396
asbag56
(g77
g58
NtRp583
(dp584
g61
(dp585
g88
g89
ssg70
g575
sg63
(lp586
S':'
asbag56
(g77
g58
NtRp587
(dp588
g61
(dp589
sg70
g575
sg63
(lp590
g56
(g57
g58
NtRp591
(dp592
g61
(dp593
g69
I3
ssg70
g587
sg63
(lp594
S''
asbasbasbag56
(g72
g58
NtRp595
(dp596
g61
(dp597
sg70
g451
sg63
(lp598
g56
(g77
g58
NtRp599
(dp600
g61
(dp601
g81
g82
ssg70
g595
sg63
(lp602
g417
asbag56
(g77
g58
NtRp603
(dp604
g61
(dp605
g88
g89
ssg70
g595
sg63
(lp606
S':'
asbag56
(g77
g58
NtRp607
(dp608
g61
(dp609
sg70
g595
sg63
(lp610
g56
(g57
g58
NtRp611
(dp612
g61
(dp613
g69
I3
ssg70
g607
sg63
(lp614
S''
asbasbasbasbasbasbasbag56
(g72
g58
NtRp615
(dp616
g61
(dp617
sg70
g233
sg63
(lp618
g56
(g77
g58
NtRp619
(dp620
g61
(dp621
g81
g82
ssg70
g615
sg63
(lp622
S'session_id_welcome'
p623
asbag56
(g77
g58
NtRp624
(dp625
g61
(dp626
g88
g89
ssg70
g615
sg63
(lp627
S':'
asbag56
(g77
g58
NtRp628
(dp629
g61
(dp630
sg70
g615
sg63
(lp631
g56
(g57
g58
NtRp632
(dp633
g61
(dp634
g69
I4
ssg70
g628
sg63
(lp635
g56
(g65
g58
NtRp636
(dp637
g61
(dp638
g69
I3
ssg70
Nsg63
(lp639
g56
(g72
g58
NtRp640
(dp641
g61
(dp642
sg70
g636
sg63
(lp643
g56
(g77
g58
NtRp644
(dp645
g61
(dp646
g81
g82
ssg70
g640
sg63
(lp647
g270
asbag56
(g77
g58
NtRp648
(dp649
g61
(dp650
g88
g89
ssg70
g640
sg63
(lp651
S':'
asbag56
(g77
g58
NtRp652
(dp653
g61
(dp654
sg70
g640
sg63
(lp655
g56
(g57
g58
NtRp656
(dp657
g61
(dp658
g69
I3
ssg70
g652
sg63
(lp659
S''
asbasbasbag56
(g72
g58
NtRp660
(dp661
g61
(dp662
sg70
g636
sg63
(lp663
g56
(g77
g58
NtRp664
(dp665
g61
(dp666
g81
g82
ssg70
g660
sg63
(lp667
g291
asbag56
(g77
g58
NtRp668
(dp669
g61
(dp670
g88
g89
ssg70
g660
sg63
(lp671
S':'
asbag56
(g77
g58
NtRp672
(dp673
g61
(dp674
sg70
g660
sg63
(lp675
g56
(g57
g58
NtRp676
(dp677
g61
(dp678
g69
I3
ssg70
g672
sg63
(lp679
S''
asbasbasbag56
(g72
g58
NtRp680
(dp681
g61
(dp682
sg70
g636
sg63
(lp683
g56
(g77
g58
NtRp684
(dp685
g61
(dp686
g81
g82
ssg70
g680
sg63
(lp687
g312
asbag56
(g77
g58
NtRp688
(dp689
g61
(dp690
g88
g89
ssg70
g680
sg63
(lp691
S':'
asbag56
(g77
g58
NtRp692
(dp693
g61
(dp694
sg70
g680
sg63
(lp695
g56
(g57
g58
NtRp696
(dp697
g61
(dp698
g69
I3
ssg70
g692
sg63
(lp699
S''
asbasbasbag56
(g72
g58
NtRp700
(dp701
g61
(dp702
sg70
g636
sg63
(lp703
g56
(g77
g58
NtRp704
(dp705
g61
(dp706
g81
g82
ssg70
g700
sg63
(lp707
g333
asbag56
(g77
g58
NtRp708
(dp709
g61
(dp710
g88
g89
ssg70
g700
sg63
(lp711
S':'
asbag56
(g77
g58
NtRp712
(dp713
g61
(dp714
sg70
g700
sg63
(lp715
g56
(g57
g58
NtRp716
(dp717
g61
(dp718
g69
I3
ssg70
g712
sg63
(lp719
S''
asbasbasbag56
(g72
g58
NtRp720
(dp721
g61
(dp722
sg70
g636
sg63
(lp723
g56
(g77
g58
NtRp724
(dp725
g61
(dp726
g81
g82
ssg70
g720
sg63
(lp727
g354
asbag56
(g77
g58
NtRp728
(dp729
g61
(dp730
g88
g89
ssg70
g720
sg63
(lp731
S':'
asbag56
(g77
g58
NtRp732
(dp733
g61
(dp734
sg70
g720
sg63
(lp735
g56
(g57
g58
NtRp736
(dp737
g61
(dp738
g69
I3
ssg70
g732
sg63
(lp739
S''
asbasbasbag56
(g72
g58
NtRp740
(dp741
g61
(dp742
sg70
g636
sg63
(lp743
g56
(g77
g58
NtRp744
(dp745
g61
(dp746
g81
g82
ssg70
g740
sg63
(lp747
g375
asbag56
(g77
g58
NtRp748
(dp749
g61
(dp750
g88
g89
ssg70
g740
sg63
(lp751
S':'
asbag56
(g77
g58
NtRp752
(dp753
g61
(dp754
sg70
g740
sg63
(lp755
g56
(g57
g58
NtRp756
(dp757
g61
(dp758
g69
I3
ssg70
g752
sg63
(lp759
S''
asbasbasbag56
(g72
g58
NtRp760
(dp761
g61
(dp762
sg70
g636
sg63
(lp763
g56
(g77
g58
NtRp764
(dp765
g61
(dp766
g81
g82
ssg70
g760
sg63
(lp767
g396
asbag56
(g77
g58
NtRp768
(dp769
g61
(dp770
g88
g89
ssg70
g760
sg63
(lp771
S':'
asbag56
(g77
g58
NtRp772
(dp773
g61
(dp774
sg70
g760
sg63
(lp775
g56
(g57
g58
NtRp776
(dp777
g61
(dp778
g69
I3
ssg70
g772
sg63
(lp779
S''
asbasbasbag56
(g72
g58
NtRp780
(dp781
g61
(dp782
sg70
g636
sg63
(lp783
g56
(g77
g58
NtRp784
(dp785
g61
(dp786
g81
g82
ssg70
g780
sg63
(lp787
g417
asbag56
(g77
g58
NtRp788
(dp789
g61
(dp790
g88
g89
ssg70
g780
sg63
(lp791
S':'
asbag56
(g77
g58
NtRp792
(dp793
g61
(dp794
sg70
g780
sg63
(lp795
g56
(g57
g58
NtRp796
(dp797
g61
(dp798
g69
I3
ssg70
g792
sg63
(lp799
S''
asbasbasbasbasbasbasbasbasbasbasbag56
(g72
g58
NtRp800
(dp801
g61
(dp802
sg70
g66
sg63
(lp803
g56
(g77
g58
NtRp804
(dp805
g61
(dp806
g81
g82
ssg70
g800
sg63
(lp807
S'env'
p808
asbag56
(g77
g58
NtRp809
(dp810
g61
(dp811
g88
g89
ssg70
g800
sg63
(lp812
S':'
asbag56
(g77
g58
NtRp813
(dp814
g61
(dp815
sg70
g800
sg63
(lp816
g56
(g57
g58
NtRp817
(dp818
g61
(dp819
g69
I5
ssg70
g813
sg63
(lp820
g56
(g65
g58
NtRp821
(dp822
g61
(dp823
g69
I4
ssg70
Nsg63
(lp824
g56
(g72
g58
NtRp825
(dp826
g61
(dp827
sg70
g821
sg63
(lp828
g56
(g77
g58
NtRp829
(dp830
g61
(dp831
g81
g82
ssg70
g825
sg63
(lp832
S'app_folders'
p833
asbag56
(g77
g58
NtRp834
(dp835
g61
(dp836
g88
g89
ssg70
g825
sg63
(lp837
S':'
asbag56
(g77
g58
NtRp838
(dp839
g61
(dp840
sg70
g825
sg63
(lp841
g56
(g57
g58
NtRp842
(dp843
g61
(dp844
g69
I4
ssg70
g838
sg63
(lp845
S"set(['/Users/ilustre/development/repo/jittest/web2py/applications/admin/', '/Users/ilustre/development/repo/jittest/web2py/applications/welcome/', '/Users/ilustre/development/repo/jittest/web2py/applications/infovis/'])"
p846
asbasbasbag56
(g72
g58
NtRp847
(dp848
g61
(dp849
sg70
g821
sg63
(lp850
g56
(g77
g58
NtRp851
(dp852
g61
(dp853
g81
g82
ssg70
g847
sg63
(lp854
S'applications_parent'
p855
asbag56
(g77
g58
NtRp856
(dp857
g61
(dp858
g88
g89
ssg70
g847
sg63
(lp859
S':'
asbag56
(g77
g58
NtRp860
(dp861
g61
(dp862
sg70
g847
sg63
(lp863
g56
(g57
g58
NtRp864
(dp865
g61
(dp866
g69
I4
ssg70
g860
sg63
(lp867
S'/Users/ilustre/development/repo/jittest/web2py'
p868
asbasbasbag56
(g72
g58
NtRp869
(dp870
g61
(dp871
sg70
g821
sg63
(lp872
g56
(g77
g58
NtRp873
(dp874
g61
(dp875
g81
g82
ssg70
g869
sg63
(lp876
S'cmd_args'
p877
asbag56
(g77
g58
NtRp878
(dp879
g61
(dp880
g88
g89
ssg70
g869
sg63
(lp881
S':'
asbag56
(g77
g58
NtRp882
(dp883
g61
(dp884
sg70
g869
sg63
(lp885
g56
(g57
g58
NtRp886
(dp887
g61
(dp888
g69
I4
ssg70
g882
sg63
(lp889
g56
(g65
g58
NtRp890
(dp891
g61
(dp892
g69
I3
ssg70
Nsg63
(lp893
sbasbasbasbag56
(g72
g58
NtRp894
(dp895
g61
(dp896
sg70
g821
sg63
(lp897
g56
(g77
g58
NtRp898
(dp899
g61
(dp900
g81
g82
ssg70
g894
sg63
(lp901
S'cmd_options'
p902
asbag56
(g77
g58
NtRp903
(dp904
g61
(dp905
g88
g89
ssg70
g894
sg63
(lp906
S':'
asbag56
(g77
g58
NtRp907
(dp908
g61
(dp909
sg70
g894
sg63
(lp910
g56
(g57
g58
NtRp911
(dp912
g61
(dp913
g69
I4
ssg70
g907
sg63
(lp914
S"<Values at 0x1014a8050: {'verbose': False, 'ip': '127.0.0.1', 'shutdown_timeout': 5, 'taskbar': False, 'port': 8000, 'maxthreads': None, 'softcron': False, 'server_name': 'ilustrepro.local', 'bpython': False, 'nogui': False, 'nocron': False, 'extcron': False, 'debuglevel': 30, 'test': None, 'folder': '/Users/ilustre/development/repo/jittest/web2py', 'config': '', 'import_models': False, 'winservice': '', 'shell': None, 'run': '', 'log_filename': 'httpserver.log', 'args': [''], 'profiler_filename': None, 'ssl_private_key': '', 'password': 'admin', 'request_queue_size': 5, 'ssl_certificate': '', 'cronjob': False, 'plain': False, 'quiet': False, 'interfaces': None, 'minthreads': None, 'timeout': 10, 'numthreads': None, 'nobanner': False, 'pid_filename': 'httpserver.pid'}>"
p915
asbasbasbag56
(g72
g58
NtRp916
(dp917
g61
(dp918
sg70
g821
sg63
(lp919
g56
(g77
g58
NtRp920
(dp921
g61
(dp922
g81
g82
ssg70
g916
sg63
(lp923
S'db_sessions'
p924
asbag56
(g77
g58
NtRp925
(dp926
g61
(dp927
g88
g89
ssg70
g916
sg63
(lp928
S':'
asbag56
(g77
g58
NtRp929
(dp930
g61
(dp931
sg70
g916
sg63
(lp932
g56
(g57
g58
NtRp933
(dp934
g61
(dp935
g69
I4
ssg70
g929
sg63
(lp936
S'set([])'
p937
asbasbasbag56
(g72
g58
NtRp938
(dp939
g61
(dp940
sg70
g821
sg63
(lp941
g56
(g77
g58
NtRp942
(dp943
g61
(dp944
g81
g82
ssg70
g938
sg63
(lp945
S'debugging'
p946
asbag56
(g77
g58
NtRp947
(dp948
g61
(dp949
g88
g89
ssg70
g938
sg63
(lp950
S':'
asbag56
(g77
g58
NtRp951
(dp952
g61
(dp953
sg70
g938
sg63
(lp954
g56
(g57
g58
NtRp955
(dp956
g61
(dp957
g69
I4
ssg70
g951
sg63
(lp958
g99
asbasbasbag56
(g72
g58
NtRp959
(dp960
g61
(dp961
sg70
g821
sg63
(lp962
g56
(g77
g58
NtRp963
(dp964
g61
(dp965
g81
g82
ssg70
g959
sg63
(lp966
S'gluon_parent'
p967
asbag56
(g77
g58
NtRp968
(dp969
g61
(dp970
g88
g89
ssg70
g959
sg63
(lp971
S':'
asbag56
(g77
g58
NtRp972
(dp973
g61
(dp974
sg70
g959
sg63
(lp975
g56
(g57
g58
NtRp976
(dp977
g61
(dp978
g69
I4
ssg70
g972
sg63
(lp979
S'/Users/ilustre/development/repo/jittest/web2py'
p980
asbasbasbag56
(g72
g58
NtRp981
(dp982
g61
(dp983
sg70
g821
sg63
(lp984
g56
(g77
g58
NtRp985
(dp986
g61
(dp987
g81
g82
ssg70
g981
sg63
(lp988
S'http_accept'
p989
asbag56
(g77
g58
NtRp990
(dp991
g61
(dp992
g88
g89
ssg70
g981
sg63
(lp993
S':'
asbag56
(g77
g58
NtRp994
(dp995
g61
(dp996
sg70
g981
sg63
(lp997
g56
(g57
g58
NtRp998
(dp999
g61
(dp1000
g69
I4
ssg70
g994
sg63
(lp1001
S'text/html,application/xhtml+xml,application/xml;q=0.9,*/*;q=0.8'
p1002
asbasbasbag56
(g72
g58
NtRp1003
(dp1004
g61
(dp1005
sg70
g821
sg63
(lp1006
g56
(g77
g58
NtRp1007
(dp1008
g61
(dp1009
g81
g82
ssg70
g1003
sg63
(lp1010
S'http_accept_charset'
p1011
asbag56
(g77
g58
NtRp1012
(dp1013
g61
(dp1014
g88
g89
ssg70
g1003
sg63
(lp1015
S':'
asbag56
(g77
g58
NtRp1016
(dp1017
g61
(dp1018
sg70
g1003
sg63
(lp1019
g56
(g57
g58
NtRp1020
(dp1021
g61
(dp1022
g69
I4
ssg70
g1016
sg63
(lp1023
S'ISO-8859-1,utf-8;q=0.7,*;q=0.7'
p1024
asbasbasbag56
(g72
g58
NtRp1025
(dp1026
g61
(dp1027
sg70
g821
sg63
(lp1028
g56
(g77
g58
NtRp1029
(dp1030
g61
(dp1031
g81
g82
ssg70
g1025
sg63
(lp1032
S'http_accept_encoding'
p1033
asbag56
(g77
g58
NtRp1034
(dp1035
g61
(dp1036
g88
g89
ssg70
g1025
sg63
(lp1037
S':'
asbag56
(g77
g58
NtRp1038
(dp1039
g61
(dp1040
sg70
g1025
sg63
(lp1041
g56
(g57
g58
NtRp1042
(dp1043
g61
(dp1044
g69
I4
ssg70
g1038
sg63
(lp1045
S'gzip, deflate'
p1046
asbasbasbag56
(g72
g58
NtRp1047
(dp1048
g61
(dp1049
sg70
g821
sg63
(lp1050
g56
(g77
g58
NtRp1051
(dp1052
g61
(dp1053
g81
g82
ssg70
g1047
sg63
(lp1054
S'http_accept_language'
p1055
asbag56
(g77
g58
NtRp1056
(dp1057
g61
(dp1058
g88
g89
ssg70
g1047
sg63
(lp1059
S':'
asbag56
(g77
g58
NtRp1060
(dp1061
g61
(dp1062
sg70
g1047
sg63
(lp1063
g56
(g57
g58
NtRp1064
(dp1065
g61
(dp1066
g69
I4
ssg70
g1060
sg63
(lp1067
S'en-us,en;q=0.5'
p1068
asbasbasbag56
(g72
g58
NtRp1069
(dp1070
g61
(dp1071
sg70
g821
sg63
(lp1072
g56
(g77
g58
NtRp1073
(dp1074
g61
(dp1075
g81
g82
ssg70
g1069
sg63
(lp1076
S'http_cache_control'
p1077
asbag56
(g77
g58
NtRp1078
(dp1079
g61
(dp1080
g88
g89
ssg70
g1069
sg63
(lp1081
S':'
asbag56
(g77
g58
NtRp1082
(dp1083
g61
(dp1084
sg70
g1069
sg63
(lp1085
g56
(g57
g58
NtRp1086
(dp1087
g61
(dp1088
g69
I4
ssg70
g1082
sg63
(lp1089
S'max-age=0'
p1090
asbasbasbag56
(g72
g58
NtRp1091
(dp1092
g61
(dp1093
sg70
g821
sg63
(lp1094
g56
(g77
g58
NtRp1095
(dp1096
g61
(dp1097
g81
g82
ssg70
g1091
sg63
(lp1098
S'http_connection'
p1099
asbag56
(g77
g58
NtRp1100
(dp1101
g61
(dp1102
g88
g89
ssg70
g1091
sg63
(lp1103
S':'
asbag56
(g77
g58
NtRp1104
(dp1105
g61
(dp1106
sg70
g1091
sg63
(lp1107
g56
(g57
g58
NtRp1108
(dp1109
g61
(dp1110
g69
I4
ssg70
g1104
sg63
(lp1111
S'keep-alive'
p1112
asbasbasbag56
(g72
g58
NtRp1113
(dp1114
g61
(dp1115
sg70
g821
sg63
(lp1116
g56
(g77
g58
NtRp1117
(dp1118
g61
(dp1119
g81
g82
ssg70
g1113
sg63
(lp1120
S'http_cookie'
p1121
asbag56
(g77
g58
NtRp1122
(dp1123
g61
(dp1124
g88
g89
ssg70
g1113
sg63
(lp1125
S':'
asbag56
(g77
g58
NtRp1126
(dp1127
g61
(dp1128
sg70
g1113
sg63
(lp1129
g56
(g57
g58
NtRp1130
(dp1131
g61
(dp1132
g69
I4
ssg70
g1126
sg63
(lp1133
S'session_id_welcome=127.0.0.1-9aeda16a-9148-4e24-9906-e1a2a41d3cea; session_id_infovis=127.0.0.1-8e83c2f8-1539-4892-a537-28670035bf15; session_id_admin=127.0.0.1-83de7fba-6337-4f38-aca7-cc035dd48f75'
p1134
asbasbasbag56
(g72
g58
NtRp1135
(dp1136
g61
(dp1137
sg70
g821
sg63
(lp1138
g56
(g77
g58
NtRp1139
(dp1140
g61
(dp1141
g81
g82
ssg70
g1135
sg63
(lp1142
S'http_host'
p1143
asbag56
(g77
g58
NtRp1144
(dp1145
g61
(dp1146
g88
g89
ssg70
g1135
sg63
(lp1147
S':'
asbag56
(g77
g58
NtRp1148
(dp1149
g61
(dp1150
sg70
g1135
sg63
(lp1151
g56
(g57
g58
NtRp1152
(dp1153
g61
(dp1154
g69
I4
ssg70
g1148
sg63
(lp1155
S'localhost:8000'
p1156
asbasbasbag56
(g72
g58
NtRp1157
(dp1158
g61
(dp1159
sg70
g821
sg63
(lp1160
g56
(g77
g58
NtRp1161
(dp1162
g61
(dp1163
g81
g82
ssg70
g1157
sg63
(lp1164
S'http_user_agent'
p1165
asbag56
(g77
g58
NtRp1166
(dp1167
g61
(dp1168
g88
g89
ssg70
g1157
sg63
(lp1169
S':'
asbag56
(g77
g58
NtRp1170
(dp1171
g61
(dp1172
sg70
g1157
sg63
(lp1173
g56
(g57
g58
NtRp1174
(dp1175
g61
(dp1176
g69
I4
ssg70
g1170
sg63
(lp1177
S'Mozilla/5.0 (Macintosh; Intel Mac OS X 10.6; rv:5.0.1) Gecko/20100101 Firefox/5.0.1'
p1178
asbasbasbag56
(g72
g58
NtRp1179
(dp1180
g61
(dp1181
sg70
g821
sg63
(lp1182
g56
(g77
g58
NtRp1183
(dp1184
g61
(dp1185
g81
g82
ssg70
g1179
sg63
(lp1186
S'is_jython'
p1187
asbag56
(g77
g58
NtRp1188
(dp1189
g61
(dp1190
g88
g89
ssg70
g1179
sg63
(lp1191
S':'
asbag56
(g77
g58
NtRp1192
(dp1193
g61
(dp1194
sg70
g1179
sg63
(lp1195
g56
(g57
g58
NtRp1196
(dp1197
g61
(dp1198
g69
I4
ssg70
g1192
sg63
(lp1199
g99
asbasbasbag56
(g72
g58
NtRp1200
(dp1201
g61
(dp1202
sg70
g821
sg63
(lp1203
g56
(g77
g58
NtRp1204
(dp1205
g61
(dp1206
g81
g82
ssg70
g1200
sg63
(lp1207
S'path_info'
p1208
asbag56
(g77
g58
NtRp1209
(dp1210
g61
(dp1211
g88
g89
ssg70
g1200
sg63
(lp1212
S':'
asbag56
(g77
g58
NtRp1213
(dp1214
g61
(dp1215
sg70
g1200
sg63
(lp1216
g56
(g57
g58
NtRp1217
(dp1218
g61
(dp1219
g69
I4
ssg70
g1213
sg63
(lp1220
S'/infovis/visual/treemap'
p1221
asbasbasbag56
(g72
g58
NtRp1222
(dp1223
g61
(dp1224
sg70
g821
sg63
(lp1225
g56
(g77
g58
NtRp1226
(dp1227
g61
(dp1228
g81
g82
ssg70
g1222
sg63
(lp1229
S'query_string'
p1230
asbag56
(g77
g58
NtRp1231
(dp1232
g61
(dp1233
g88
g89
ssg70
g1222
sg63
(lp1234
S':'
asbag56
(g77
g58
NtRp1235
(dp1236
g61
(dp1237
sg70
g1222
sg63
(lp1238
g56
(g57
g58
NtRp1239
(dp1240
g61
(dp1241
g69
I4
ssg70
g1235
sg63
(lp1242
S''
asbasbasbag56
(g72
g58
NtRp1243
(dp1244
g61
(dp1245
sg70
g821
sg63
(lp1246
g56
(g77
g58
NtRp1247
(dp1248
g61
(dp1249
g81
g82
ssg70
g1243
sg63
(lp1250
S'remote_addr'
p1251
asbag56
(g77
g58
NtRp1252
(dp1253
g61
(dp1254
g88
g89
ssg70
g1243
sg63
(lp1255
S':'
asbag56
(g77
g58
NtRp1256
(dp1257
g61
(dp1258
sg70
g1243
sg63
(lp1259
g56
(g57
g58
NtRp1260
(dp1261
g61
(dp1262
g69
I4
ssg70
g1256
sg63
(lp1263
g189
asbasbasbag56
(g72
g58
NtRp1264
(dp1265
g61
(dp1266
sg70
g821
sg63
(lp1267
g56
(g77
g58
NtRp1268
(dp1269
g61
(dp1270
g81
g82
ssg70
g1264
sg63
(lp1271
S'remote_port'
p1272
asbag56
(g77
g58
NtRp1273
(dp1274
g61
(dp1275
g88
g89
ssg70
g1264
sg63
(lp1276
S':'
asbag56
(g77
g58
NtRp1277
(dp1278
g61
(dp1279
sg70
g1264
sg63
(lp1280
g56
(g57
g58
NtRp1281
(dp1282
g61
(dp1283
g69
I4
ssg70
g1277
sg63
(lp1284
S'50135'
p1285
asbasbasbag56
(g72
g58
NtRp1286
(dp1287
g61
(dp1288
sg70
g821
sg63
(lp1289
g56
(g77
g58
NtRp1290
(dp1291
g61
(dp1292
g81
g82
ssg70
g1286
sg63
(lp1293
S'request_method'
p1294
asbag56
(g77
g58
NtRp1295
(dp1296
g61
(dp1297
g88
g89
ssg70
g1286
sg63
(lp1298
S':'
asbag56
(g77
g58
NtRp1299
(dp1300
g61
(dp1301
sg70
g1286
sg63
(lp1302
g56
(g57
g58
NtRp1303
(dp1304
g61
(dp1305
g69
I4
ssg70
g1299
sg63
(lp1306
S'GET'
p1307
asbasbasbag56
(g72
g58
NtRp1308
(dp1309
g61
(dp1310
sg70
g821
sg63
(lp1311
g56
(g77
g58
NtRp1312
(dp1313
g61
(dp1314
g81
g82
ssg70
g1308
sg63
(lp1315
S'script_name'
p1316
asbag56
(g77
g58
NtRp1317
(dp1318
g61
(dp1319
g88
g89
ssg70
g1308
sg63
(lp1320
S':'
asbag56
(g77
g58
NtRp1321
(dp1322
g61
(dp1323
sg70
g1308
sg63
(lp1324
g56
(g57
g58
NtRp1325
(dp1326
g61
(dp1327
g69
I4
ssg70
g1321
sg63
(lp1328
S''
asbasbasbag56
(g72
g58
NtRp1329
(dp1330
g61
(dp1331
sg70
g821
sg63
(lp1332
g56
(g77
g58
NtRp1333
(dp1334
g61
(dp1335
g81
g82
ssg70
g1329
sg63
(lp1336
S'server_name'
p1337
asbag56
(g77
g58
NtRp1338
(dp1339
g61
(dp1340
g88
g89
ssg70
g1329
sg63
(lp1341
S':'
asbag56
(g77
g58
NtRp1342
(dp1343
g61
(dp1344
sg70
g1329
sg63
(lp1345
g56
(g57
g58
NtRp1346
(dp1347
g61
(dp1348
g69
I4
ssg70
g1342
sg63
(lp1349
S'ilustrepro.local'
p1350
asbasbasbag56
(g72
g58
NtRp1351
(dp1352
g61
(dp1353
sg70
g821
sg63
(lp1354
g56
(g77
g58
NtRp1355
(dp1356
g61
(dp1357
g81
g82
ssg70
g1351
sg63
(lp1358
S'server_port'
p1359
asbag56
(g77
g58
NtRp1360
(dp1361
g61
(dp1362
g88
g89
ssg70
g1351
sg63
(lp1363
S':'
asbag56
(g77
g58
NtRp1364
(dp1365
g61
(dp1366
sg70
g1351
sg63
(lp1367
g56
(g57
g58
NtRp1368
(dp1369
g61
(dp1370
g69
I4
ssg70
g1364
sg63
(lp1371
S'8000'
p1372
asbasbasbag56
(g72
g58
NtRp1373
(dp1374
g61
(dp1375
sg70
g821
sg63
(lp1376
g56
(g77
g58
NtRp1377
(dp1378
g61
(dp1379
g81
g82
ssg70
g1373
sg63
(lp1380
S'server_protocol'
p1381
asbag56
(g77
g58
NtRp1382
(dp1383
g61
(dp1384
g88
g89
ssg70
g1373
sg63
(lp1385
S':'
asbag56
(g77
g58
NtRp1386
(dp1387
g61
(dp1388
sg70
g1373
sg63
(lp1389
g56
(g57
g58
NtRp1390
(dp1391
g61
(dp1392
g69
I4
ssg70
g1386
sg63
(lp1393
S'HTTP/1.1'
p1394
asbasbasbag56
(g72
g58
NtRp1395
(dp1396
g61
(dp1397
sg70
g821
sg63
(lp1398
g56
(g77
g58
NtRp1399
(dp1400
g61
(dp1401
g81
g82
ssg70
g1395
sg63
(lp1402
S'server_software'
p1403
asbag56
(g77
g58
NtRp1404
(dp1405
g61
(dp1406
g88
g89
ssg70
g1395
sg63
(lp1407
S':'
asbag56
(g77
g58
NtRp1408
(dp1409
g61
(dp1410
sg70
g1395
sg63
(lp1411
g56
(g57
g58
NtRp1412
(dp1413
g61
(dp1414
g69
I4
ssg70
g1408
sg63
(lp1415
S'Rocket 1.2.2'
p1416
asbasbasbag56
(g72
g58
NtRp1417
(dp1418
g61
(dp1419
sg70
g821
sg63
(lp1420
g56
(g77
g58
NtRp1421
(dp1422
g61
(dp1423
g81
g82
ssg70
g1417
sg63
(lp1424
S'web2py_crontype'
p1425
asbag56
(g77
g58
NtRp1426
(dp1427
g61
(dp1428
g88
g89
ssg70
g1417
sg63
(lp1429
S':'
asbag56
(g77
g58
NtRp1430
(dp1431
g61
(dp1432
sg70
g1417
sg63
(lp1433
g56
(g57
g58
NtRp1434
(dp1435
g61
(dp1436
g69
I4
ssg70
g1430
sg63
(lp1437
S'hard'
p1438
asbasbasbag56
(g72
g58
NtRp1439
(dp1440
g61
(dp1441
sg70
g821
sg63
(lp1442
g56
(g77
g58
NtRp1443
(dp1444
g61
(dp1445
g81
g82
ssg70
g1439
sg63
(lp1446
S'web2py_path'
p1447
asbag56
(g77
g58
NtRp1448
(dp1449
g61
(dp1450
g88
g89
ssg70
g1439
sg63
(lp1451
S':'
asbag56
(g77
g58
NtRp1452
(dp1453
g61
(dp1454
sg70
g1439
sg63
(lp1455
g56
(g57
g58
NtRp1456
(dp1457
g61
(dp1458
g69
I4
ssg70
g1452
sg63
(lp1459
g868
asbasbasbag56
(g72
g58
NtRp1460
(dp1461
g61
(dp1462
sg70
g821
sg63
(lp1463
g56
(g77
g58
NtRp1464
(dp1465
g61
(dp1466
g81
g82
ssg70
g1460
sg63
(lp1467
S'web2py_version'
p1468
asbag56
(g77
g58
NtRp1469
(dp1470
g61
(dp1471
g88
g89
ssg70
g1460
sg63
(lp1472
S':'
asbag56
(g77
g58
NtRp1473
(dp1474
g61
(dp1475
sg70
g1460
sg63
(lp1476
g56
(g57
g58
NtRp1477
(dp1478
g61
(dp1479
g69
I4
ssg70
g1473
sg63
(lp1480
S'Version 1.98.2 (2011-08-04 00:47:09)\n'
p1481
asbasbasbag56
(g72
g58
NtRp1482
(dp1483
g61
(dp1484
sg70
g821
sg63
(lp1485
g56
(g77
g58
NtRp1486
(dp1487
g61
(dp1488
g81
g82
ssg70
g1482
sg63
(lp1489
S'wsgi_errors'
p1490
asbag56
(g77
g58
NtRp1491
(dp1492
g61
(dp1493
g88
g89
ssg70
g1482
sg63
(lp1494
S':'
asbag56
(g77
g58
NtRp1495
(dp1496
g61
(dp1497
sg70
g1482
sg63
(lp1498
g56
(g57
g58
NtRp1499
(dp1500
g61
(dp1501
g69
I4
ssg70
g1495
sg63
(lp1502
S"<open file '<stderr>', mode 'w' at 0x100283270>"
p1503
asbasbasbag56
(g72
g58
NtRp1504
(dp1505
g61
(dp1506
sg70
g821
sg63
(lp1507
g56
(g77
g58
NtRp1508
(dp1509
g61
(dp1510
g81
g82
ssg70
g1504
sg63
(lp1511
S'wsgi_file_wrapper'
p1512
asbag56
(g77
g58
NtRp1513
(dp1514
g61
(dp1515
g88
g89
ssg70
g1504
sg63
(lp1516
S':'
asbag56
(g77
g58
NtRp1517
(dp1518
g61
(dp1519
sg70
g1504
sg63
(lp1520
g56
(g57
g58
NtRp1521
(dp1522
g61
(dp1523
g69
I4
ssg70
g1517
sg63
(lp1524
S'<class gluon.rocket.FileWrapper at 0x101503738>'
p1525
asbasbasbag56
(g72
g58
NtRp1526
(dp1527
g61
(dp1528
sg70
g821
sg63
(lp1529
g56
(g77
g58
NtRp1530
(dp1531
g61
(dp1532
g81
g82
ssg70
g1526
sg63
(lp1533
S'wsgi_input'
p1534
asbag56
(g77
g58
NtRp1535
(dp1536
g61
(dp1537
g88
g89
ssg70
g1526
sg63
(lp1538
S':'
asbag56
(g77
g58
NtRp1539
(dp1540
g61
(dp1541
sg70
g1526
sg63
(lp1542
g56
(g57
g58
NtRp1543
(dp1544
g61
(dp1545
g69
I4
ssg70
g1539
sg63
(lp1546
S'<socket._fileobject object at 0x1027ec0d0>'
p1547
asbasbasbag56
(g72
g58
NtRp1548
(dp1549
g61
(dp1550
sg70
g821
sg63
(lp1551
g56
(g77
g58
NtRp1552
(dp1553
g61
(dp1554
g81
g82
ssg70
g1548
sg63
(lp1555
S'wsgi_multiprocess'
p1556
asbag56
(g77
g58
NtRp1557
(dp1558
g61
(dp1559
g88
g89
ssg70
g1548
sg63
(lp1560
S':'
asbag56
(g77
g58
NtRp1561
(dp1562
g61
(dp1563
sg70
g1548
sg63
(lp1564
g56
(g57
g58
NtRp1565
(dp1566
g61
(dp1567
g69
I4
ssg70
g1561
sg63
(lp1568
g99
asbasbasbag56
(g72
g58
NtRp1569
(dp1570
g61
(dp1571
sg70
g821
sg63
(lp1572
g56
(g77
g58
NtRp1573
(dp1574
g61
(dp1575
g81
g82
ssg70
g1569
sg63
(lp1576
S'wsgi_multithread'
p1577
asbag56
(g77
g58
NtRp1578
(dp1579
g61
(dp1580
g88
g89
ssg70
g1569
sg63
(lp1581
S':'
asbag56
(g77
g58
NtRp1582
(dp1583
g61
(dp1584
sg70
g1569
sg63
(lp1585
g56
(g57
g58
NtRp1586
(dp1587
g61
(dp1588
g69
I4
ssg70
g1582
sg63
(lp1589
S'True'
p1590
asbasbasbag56
(g72
g58
NtRp1591
(dp1592
g61
(dp1593
sg70
g821
sg63
(lp1594
g56
(g77
g58
NtRp1595
(dp1596
g61
(dp1597
g81
g82
ssg70
g1591
sg63
(lp1598
S'wsgi_run_once'
p1599
asbag56
(g77
g58
NtRp1600
(dp1601
g61
(dp1602
g88
g89
ssg70
g1591
sg63
(lp1603
S':'
asbag56
(g77
g58
NtRp1604
(dp1605
g61
(dp1606
sg70
g1591
sg63
(lp1607
g56
(g57
g58
NtRp1608
(dp1609
g61
(dp1610
g69
I4
ssg70
g1604
sg63
(lp1611
g99
asbasbasbag56
(g72
g58
NtRp1612
(dp1613
g61
(dp1614
sg70
g821
sg63
(lp1615
g56
(g77
g58
NtRp1616
(dp1617
g61
(dp1618
g81
g82
ssg70
g1612
sg63
(lp1619
S'wsgi_url_scheme'
p1620
asbag56
(g77
g58
NtRp1621
(dp1622
g61
(dp1623
g88
g89
ssg70
g1612
sg63
(lp1624
S':'
asbag56
(g77
g58
NtRp1625
(dp1626
g61
(dp1627
sg70
g1612
sg63
(lp1628
g56
(g57
g58
NtRp1629
(dp1630
g61
(dp1631
g69
I4
ssg70
g1625
sg63
(lp1632
S'http'
p1633
asbasbasbag56
(g72
g58
NtRp1634
(dp1635
g61
(dp1636
sg70
g821
sg63
(lp1637
g56
(g77
g58
NtRp1638
(dp1639
g61
(dp1640
g81
g82
ssg70
g1634
sg63
(lp1641
S'wsgi_version'
p1642
asbag56
(g77
g58
NtRp1643
(dp1644
g61
(dp1645
g88
g89
ssg70
g1634
sg63
(lp1646
S':'
asbag56
(g77
g58
NtRp1647
(dp1648
g61
(dp1649
sg70
g1634
sg63
(lp1650
g56
(g57
g58
NtRp1651
(dp1652
g61
(dp1653
g69
I4
ssg70
g1647
sg63
(lp1654
g56
(g65
g58
NtRp1655
(dp1656
g61
(dp1657
g69
I3
ssg70
Nsg63
(lp1658
g56
(g72
g58
NtRp1659
(dp1660
g61
(dp1661
sg70
g1655
sg63
(lp1662
g56
(g77
g58
NtRp1663
(dp1664
g61
(dp1665
sg70
g1659
sg63
(lp1666
g56
(g57
g58
NtRp1667
(dp1668
g61
(dp1669
g69
I3
ssg70
g1663
sg63
(lp1670
S'1'
asbasbasbag56
(g72
g58
NtRp1671
(dp1672
g61
(dp1673
sg70
g1655
sg63
(lp1674
g56
(g77
g58
NtRp1675
(dp1676
g61
(dp1677
sg70
g1671
sg63
(lp1678
g56
(g57
g58
NtRp1679
(dp1680
g61
(dp1681
g69
I3
ssg70
g1675
sg63
(lp1682
S'0'
asbasbasbasbasbasbasbasbasbasbasbag56
(g72
g58
NtRp1683
(dp1684
g61
(dp1685
sg70
g66
sg63
(lp1686
g56
(g77
g58
NtRp1687
(dp1688
g61
(dp1689
g81
g82
ssg70
g1683
sg63
(lp1690
S'extension'
p1691
asbag56
(g77
g58
NtRp1692
(dp1693
g61
(dp1694
g88
g89
ssg70
g1683
sg63
(lp1695
S':'
asbag56
(g77
g58
NtRp1696
(dp1697
g61
(dp1698
sg70
g1683
sg63
(lp1699
g56
(g57
g58
NtRp1700
(dp1701
g61
(dp1702
g69
I5
ssg70
g1696
sg63
(lp1703
S'html'
p1704
asbasbasbag56
(g72
g58
NtRp1705
(dp1706
g61
(dp1707
sg70
g66
sg63
(lp1708
g56
(g77
g58
NtRp1709
(dp1710
g61
(dp1711
g81
g82
ssg70
g1705
sg63
(lp1712
S'folder'
p1713
asbag56
(g77
g58
NtRp1714
(dp1715
g61
(dp1716
g88
g89
ssg70
g1705
sg63
(lp1717
S':'
asbag56
(g77
g58
NtRp1718
(dp1719
g61
(dp1720
sg70
g1705
sg63
(lp1721
g56
(g57
g58
NtRp1722
(dp1723
g61
(dp1724
g69
I5
ssg70
g1718
sg63
(lp1725
S'/Users/ilustre/development/repo/jittest/web2py/applications/infovis/'
p1726
asbasbasbag56
(g72
g58
NtRp1727
(dp1728
g61
(dp1729
sg70
g66
sg63
(lp1730
g56
(g77
g58
NtRp1731
(dp1732
g61
(dp1733
g81
g82
ssg70
g1727
sg63
(lp1734
S'function'
p1735
asbag56
(g77
g58
NtRp1736
(dp1737
g61
(dp1738
g88
g89
ssg70
g1727
sg63
(lp1739
S':'
asbag56
(g77
g58
NtRp1740
(dp1741
g61
(dp1742
sg70
g1727
sg63
(lp1743
g56
(g57
g58
NtRp1744
(dp1745
g61
(dp1746
g69
I5
ssg70
g1740
sg63
(lp1747
S'treemap'
p1748
asbasbasbag56
(g72
g58
NtRp1749
(dp1750
g61
(dp1751
sg70
g66
sg63
(lp1752
g56
(g77
g58
NtRp1753
(dp1754
g61
(dp1755
g81
g82
ssg70
g1749
sg63
(lp1756
S'get_vars'
p1757
asbag56
(g77
g58
NtRp1758
(dp1759
g61
(dp1760
g88
g89
ssg70
g1749
sg63
(lp1761
S':'
asbag56
(g77
g58
NtRp1762
(dp1763
g61
(dp1764
sg70
g1749
sg63
(lp1765
g56
(g57
g58
NtRp1766
(dp1767
g61
(dp1768
g69
I5
ssg70
g1762
sg63
(lp1769
g56
(g65
g58
NtRp1770
(dp1771
g61
(dp1772
g69
I4
ssg70
Nsg63
(lp1773
sbasbasbasbag56
(g72
g58
NtRp1774
(dp1775
g61
(dp1776
sg70
g66
sg63
(lp1777
g56
(g77
g58
NtRp1778
(dp1779
g61
(dp1780
g81
g82
ssg70
g1774
sg63
(lp1781
S'is_https'
p1782
asbag56
(g77
g58
NtRp1783
(dp1784
g61
(dp1785
g88
g89
ssg70
g1774
sg63
(lp1786
S':'
asbag56
(g77
g58
NtRp1787
(dp1788
g61
(dp1789
sg70
g1774
sg63
(lp1790
g56
(g57
g58
NtRp1791
(dp1792
g61
(dp1793
g69
I5
ssg70
g1787
sg63
(lp1794
g99
asbasbasbag56
(g72
g58
NtRp1795
(dp1796
g61
(dp1797
sg70
g66
sg63
(lp1798
g56
(g77
g58
NtRp1799
(dp1800
g61
(dp1801
g81
g82
ssg70
g1795
sg63
(lp1802
S'is_local'
p1803
asbag56
(g77
g58
NtRp1804
(dp1805
g61
(dp1806
g88
g89
ssg70
g1795
sg63
(lp1807
S':'
asbag56
(g77
g58
NtRp1808
(dp1809
g61
(dp1810
sg70
g1795
sg63
(lp1811
g56
(g57
g58
NtRp1812
(dp1813
g61
(dp1814
g69
I5
ssg70
g1808
sg63
(lp1815
g1590
asbasbasbag56
(g72
g58
NtRp1816
(dp1817
g61
(dp1818
sg70
g66
sg63
(lp1819
g56
(g77
g58
NtRp1820
(dp1821
g61
(dp1822
g81
g82
ssg70
g1816
sg63
(lp1823
S'is_restful'
p1824
asbag56
(g77
g58
NtRp1825
(dp1826
g61
(dp1827
g88
g89
ssg70
g1816
sg63
(lp1828
S':'
asbag56
(g77
g58
NtRp1829
(dp1830
g61
(dp1831
sg70
g1816
sg63
(lp1832
g56
(g57
g58
NtRp1833
(dp1834
g61
(dp1835
g69
I5
ssg70
g1829
sg63
(lp1836
g99
asbasbasbag56
(g72
g58
NtRp1837
(dp1838
g61
(dp1839
sg70
g66
sg63
(lp1840
g56
(g77
g58
NtRp1841
(dp1842
g61
(dp1843
g81
g82
ssg70
g1837
sg63
(lp1844
S'now'
p1845
asbag56
(g77
g58
NtRp1846
(dp1847
g61
(dp1848
g88
g89
ssg70
g1837
sg63
(lp1849
S':'
asbag56
(g77
g58
NtRp1850
(dp1851
g61
(dp1852
sg70
g1837
sg63
(lp1853
g56
(g57
g58
NtRp1854
(dp1855
g61
(dp1856
g69
I5
ssg70
g1850
sg63
(lp1857
S'datetime.datetime(2011, 8, 15, 0, 11, 21, 936739)'
p1858
asbasbasbag56
(g72
g58
NtRp1859
(dp1860
g61
(dp1861
sg70
g66
sg63
(lp1862
g56
(g77
g58
NtRp1863
(dp1864
g61
(dp1865
g81
g82
ssg70
g1859
sg63
(lp1866
S'post_vars'
p1867
asbag56
(g77
g58
NtRp1868
(dp1869
g61
(dp1870
g88
g89
ssg70
g1859
sg63
(lp1871
S':'
asbag56
(g77
g58
NtRp1872
(dp1873
g61
(dp1874
sg70
g1859
sg63
(lp1875
g56
(g57
g58
NtRp1876
(dp1877
g61
(dp1878
g69
I5
ssg70
g1872
sg63
(lp1879
g56
(g65
g58
NtRp1880
(dp1881
g61
(dp1882
g69
I4
ssg70
Nsg63
(lp1883
sbasbasbasbag56
(g72
g58
NtRp1884
(dp1885
g61
(dp1886
sg70
g66
sg63
(lp1887
g56
(g77
g58
NtRp1888
(dp1889
g61
(dp1890
g81
g82
ssg70
g1884
sg63
(lp1891
S'url'
p1892
asbag56
(g77
g58
NtRp1893
(dp1894
g61
(dp1895
g88
g89
ssg70
g1884
sg63
(lp1896
S':'
asbag56
(g77
g58
NtRp1897
(dp1898
g61
(dp1899
sg70
g1884
sg63
(lp1900
g56
(g57
g58
NtRp1901
(dp1902
g61
(dp1903
g69
I5
ssg70
g1897
sg63
(lp1904
S'/infovis/visual/treemap'
p1905
asbasbasbag56
(g72
g58
NtRp1906
(dp1907
g61
(dp1908
sg70
g66
sg63
(lp1909
g56
(g77
g58
NtRp1910
(dp1911
g61
(dp1912
g81
g82
ssg70
g1906
sg63
(lp1913
S'uuid'
p1914
asbag56
(g77
g58
NtRp1915
(dp1916
g61
(dp1917
g88
g89
ssg70
g1906
sg63
(lp1918
S':'
asbag56
(g77
g58
NtRp1919
(dp1920
g61
(dp1921
sg70
g1906
sg63
(lp1922
g56
(g57
g58
NtRp1923
(dp1924
g61
(dp1925
g69
I5
ssg70
g1919
sg63
(lp1926
S'infovis/127.0.0.1.2011-08-15.00-11-21.1399730e-a23a-497b-b8f9-d54798b71fef'
p1927
asbasbasbag56
(g72
g58
NtRp1928
(dp1929
g61
(dp1930
sg70
g66
sg63
(lp1931
g56
(g77
g58
NtRp1932
(dp1933
g61
(dp1934
g81
g82
ssg70
g1928
sg63
(lp1935
S'vars'
p1936
asbag56
(g77
g58
NtRp1937
(dp1938
g61
(dp1939
g88
g89
ssg70
g1928
sg63
(lp1940
S':'
asbag56
(g77
g58
NtRp1941
(dp1942
g61
(dp1943
sg70
g1928
sg63
(lp1944
g56
(g57
g58
NtRp1945
(dp1946
g61
(dp1947
g69
I5
ssg70
g1941
sg63
(lp1948
g56
(g65
g58
NtRp1949
(dp1950
g61
(dp1951
g69
I4
ssg70
Nsg63
(lp1952
sbasbasbasbag56
(g72
g58
NtRp1953
(dp1954
g61
(dp1955
sg70
g66
sg63
(lp1956
g56
(g77
g58
NtRp1957
(dp1958
g61
(dp1959
g81
g82
ssg70
g1953
sg63
(lp1960
S'wsgi'
p1961
asbag56
(g77
g58
NtRp1962
(dp1963
g61
(dp1964
g88
g89
ssg70
g1953
sg63
(lp1965
S':'
asbag56
(g77
g58
NtRp1966
(dp1967
g61
(dp1968
sg70
g1953
sg63
(lp1969
g56
(g57
g58
NtRp1970
(dp1971
g61
(dp1972
g69
I5
ssg70
g1966
sg63
(lp1973
g56
(g65
g58
NtRp1974
(dp1975
g61
(dp1976
g69
I4
ssg70
Nsg63
(lp1977
g56
(g72
g58
NtRp1978
(dp1979
g61
(dp1980
sg70
g1974
sg63
(lp1981
g56
(g77
g58
NtRp1982
(dp1983
g61
(dp1984
g81
g82
ssg70
g1978
sg63
(lp1985
S'environ'
p1986
asbag56
(g77
g58
NtRp1987
(dp1988
g61
(dp1989
g88
g89
ssg70
g1978
sg63
(lp1990
S':'
asbag56
(g77
g58
NtRp1991
(dp1992
g61
(dp1993
sg70
g1978
sg63
(lp1994
g56
(g57
g58
NtRp1995
(dp1996
g61
(dp1997
g69
I4
ssg70
g1991
sg63
(lp1998
g56
(g65
g58
NtRp1999
(dp2000
g61
(dp2001
g69
I3
ssg70
Nsg63
(lp2002
g56
(g72
g58
NtRp2003
(dp2004
g61
(dp2005
sg70
g1999
sg63
(lp2006
g56
(g77
g58
NtRp2007
(dp2008
g61
(dp2009
g81
g82
ssg70
g2003
sg63
(lp2010
S'HTTP_ACCEPT'
p2011
asbag56
(g77
g58
NtRp2012
(dp2013
g61
(dp2014
g88
g89
ssg70
g2003
sg63
(lp2015
S':'
asbag56
(g77
g58
NtRp2016
(dp2017
g61
(dp2018
sg70
g2003
sg63
(lp2019
g56
(g57
g58
NtRp2020
(dp2021
g61
(dp2022
g69
I3
ssg70
g2016
sg63
(lp2023
g1002
asbasbasbag56
(g72
g58
NtRp2024
(dp2025
g61
(dp2026
sg70
g1999
sg63
(lp2027
g56
(g77
g58
NtRp2028
(dp2029
g61
(dp2030
g81
g82
ssg70
g2024
sg63
(lp2031
S'HTTP_ACCEPT_CHARSET'
p2032
asbag56
(g77
g58
NtRp2033
(dp2034
g61
(dp2035
g88
g89
ssg70
g2024
sg63
(lp2036
S':'
asbag56
(g77
g58
NtRp2037
(dp2038
g61
(dp2039
sg70
g2024
sg63
(lp2040
g56
(g57
g58
NtRp2041
(dp2042
g61
(dp2043
g69
I3
ssg70
g2037
sg63
(lp2044
g1024
asbasbasbag56
(g72
g58
NtRp2045
(dp2046
g61
(dp2047
sg70
g1999
sg63
(lp2048
g56
(g77
g58
NtRp2049
(dp2050
g61
(dp2051
g81
g82
ssg70
g2045
sg63
(lp2052
S'HTTP_ACCEPT_ENCODING'
p2053
asbag56
(g77
g58
NtRp2054
(dp2055
g61
(dp2056
g88
g89
ssg70
g2045
sg63
(lp2057
S':'
asbag56
(g77
g58
NtRp2058
(dp2059
g61
(dp2060
sg70
g2045
sg63
(lp2061
g56
(g57
g58
NtRp2062
(dp2063
g61
(dp2064
g69
I3
ssg70
g2058
sg63
(lp2065
g1046
asbasbasbag56
(g72
g58
NtRp2066
(dp2067
g61
(dp2068
sg70
g1999
sg63
(lp2069
g56
(g77
g58
NtRp2070
(dp2071
g61
(dp2072
g81
g82
ssg70
g2066
sg63
(lp2073
S'HTTP_ACCEPT_LANGUAGE'
p2074
asbag56
(g77
g58
NtRp2075
(dp2076
g61
(dp2077
g88
g89
ssg70
g2066
sg63
(lp2078
S':'
asbag56
(g77
g58
NtRp2079
(dp2080
g61
(dp2081
sg70
g2066
sg63
(lp2082
g56
(g57
g58
NtRp2083
(dp2084
g61
(dp2085
g69
I3
ssg70
g2079
sg63
(lp2086
g1068
asbasbasbag56
(g72
g58
NtRp2087
(dp2088
g61
(dp2089
sg70
g1999
sg63
(lp2090
g56
(g77
g58
NtRp2091
(dp2092
g61
(dp2093
g81
g82
ssg70
g2087
sg63
(lp2094
S'HTTP_CACHE_CONTROL'
p2095
asbag56
(g77
g58
NtRp2096
(dp2097
g61
(dp2098
g88
g89
ssg70
g2087
sg63
(lp2099
S':'
asbag56
(g77
g58
NtRp2100
(dp2101
g61
(dp2102
sg70
g2087
sg63
(lp2103
g56
(g57
g58
NtRp2104
(dp2105
g61
(dp2106
g69
I3
ssg70
g2100
sg63
(lp2107
g1090
asbasbasbag56
(g72
g58
NtRp2108
(dp2109
g61
(dp2110
sg70
g1999
sg63
(lp2111
g56
(g77
g58
NtRp2112
(dp2113
g61
(dp2114
g81
g82
ssg70
g2108
sg63
(lp2115
S'HTTP_CONNECTION'
p2116
asbag56
(g77
g58
NtRp2117
(dp2118
g61
(dp2119
g88
g89
ssg70
g2108
sg63
(lp2120
S':'
asbag56
(g77
g58
NtRp2121
(dp2122
g61
(dp2123
sg70
g2108
sg63
(lp2124
g56
(g57
g58
NtRp2125
(dp2126
g61
(dp2127
g69
I3
ssg70
g2121
sg63
(lp2128
g1112
asbasbasbag56
(g72
g58
NtRp2129
(dp2130
g61
(dp2131
sg70
g1999
sg63
(lp2132
g56
(g77
g58
NtRp2133
(dp2134
g61
(dp2135
g81
g82
ssg70
g2129
sg63
(lp2136
S'HTTP_COOKIE'
p2137
asbag56
(g77
g58
NtRp2138
(dp2139
g61
(dp2140
g88
g89
ssg70
g2129
sg63
(lp2141
S':'
asbag56
(g77
g58
NtRp2142
(dp2143
g61
(dp2144
sg70
g2129
sg63
(lp2145
g56
(g57
g58
NtRp2146
(dp2147
g61
(dp2148
g69
I3
ssg70
g2142
sg63
(lp2149
g1134
asbasbasbag56
(g72
g58
NtRp2150
(dp2151
g61
(dp2152
sg70
g1999
sg63
(lp2153
g56
(g77
g58
NtRp2154
(dp2155
g61
(dp2156
g81
g82
ssg70
g2150
sg63
(lp2157
S'HTTP_HOST'
p2158
asbag56
(g77
g58
NtRp2159
(dp2160
g61
(dp2161
g88
g89
ssg70
g2150
sg63
(lp2162
S':'
asbag56
(g77
g58
NtRp2163
(dp2164
g61
(dp2165
sg70
g2150
sg63
(lp2166
g56
(g57
g58
NtRp2167
(dp2168
g61
(dp2169
g69
I3
ssg70
g2163
sg63
(lp2170
g1156
asbasbasbag56
(g72
g58
NtRp2171
(dp2172
g61
(dp2173
sg70
g1999
sg63
(lp2174
g56
(g77
g58
NtRp2175
(dp2176
g61
(dp2177
g81
g82
ssg70
g2171
sg63
(lp2178
S'HTTP_USER_AGENT'
p2179
asbag56
(g77
g58
NtRp2180
(dp2181
g61
(dp2182
g88
g89
ssg70
g2171
sg63
(lp2183
S':'
asbag56
(g77
g58
NtRp2184
(dp2185
g61
(dp2186
sg70
g2171
sg63
(lp2187
g56
(g57
g58
NtRp2188
(dp2189
g61
(dp2190
g69
I3
ssg70
g2184
sg63
(lp2191
g1178
asbasbasbag56
(g72
g58
NtRp2192
(dp2193
g61
(dp2194
sg70
g1999
sg63
(lp2195
g56
(g77
g58
NtRp2196
(dp2197
g61
(dp2198
g81
g82
ssg70
g2192
sg63
(lp2199
S'PATH_INFO'
p2200
asbag56
(g77
g58
NtRp2201
(dp2202
g61
(dp2203
g88
g89
ssg70
g2192
sg63
(lp2204
S':'
asbag56
(g77
g58
NtRp2205
(dp2206
g61
(dp2207
sg70
g2192
sg63
(lp2208
g56
(g57
g58
NtRp2209
(dp2210
g61
(dp2211
g69
I3
ssg70
g2205
sg63
(lp2212
g1221
asbasbasbag56
(g72
g58
NtRp2213
(dp2214
g61
(dp2215
sg70
g1999
sg63
(lp2216
g56
(g77
g58
NtRp2217
(dp2218
g61
(dp2219
g81
g82
ssg70
g2213
sg63
(lp2220
S'QUERY_STRING'
p2221
asbag56
(g77
g58
NtRp2222
(dp2223
g61
(dp2224
g88
g89
ssg70
g2213
sg63
(lp2225
S':'
asbag56
(g77
g58
NtRp2226
(dp2227
g61
(dp2228
sg70
g2213
sg63
(lp2229
g56
(g57
g58
NtRp2230
(dp2231
g61
(dp2232
g69
I3
ssg70
g2226
sg63
(lp2233
S''
asbasbasbag56
(g72
g58
NtRp2234
(dp2235
g61
(dp2236
sg70
g1999
sg63
(lp2237
g56
(g77
g58
NtRp2238
(dp2239
g61
(dp2240
g81
g82
ssg70
g2234
sg63
(lp2241
S'REMOTE_ADDR'
p2242
asbag56
(g77
g58
NtRp2243
(dp2244
g61
(dp2245
g88
g89
ssg70
g2234
sg63
(lp2246
S':'
asbag56
(g77
g58
NtRp2247
(dp2248
g61
(dp2249
sg70
g2234
sg63
(lp2250
g56
(g57
g58
NtRp2251
(dp2252
g61
(dp2253
g69
I3
ssg70
g2247
sg63
(lp2254
g189
asbasbasbag56
(g72
g58
NtRp2255
(dp2256
g61
(dp2257
sg70
g1999
sg63
(lp2258
g56
(g77
g58
NtRp2259
(dp2260
g61
(dp2261
g81
g82
ssg70
g2255
sg63
(lp2262
S'REMOTE_PORT'
p2263
asbag56
(g77
g58
NtRp2264
(dp2265
g61
(dp2266
g88
g89
ssg70
g2255
sg63
(lp2267
S':'
asbag56
(g77
g58
NtRp2268
(dp2269
g61
(dp2270
sg70
g2255
sg63
(lp2271
g56
(g57
g58
NtRp2272
(dp2273
g61
(dp2274
g69
I3
ssg70
g2268
sg63
(lp2275
g1285
asbasbasbag56
(g72
g58
NtRp2276
(dp2277
g61
(dp2278
sg70
g1999
sg63
(lp2279
g56
(g77
g58
NtRp2280
(dp2281
g61
(dp2282
g81
g82
ssg70
g2276
sg63
(lp2283
S'REQUEST_METHOD'
p2284
asbag56
(g77
g58
NtRp2285
(dp2286
g61
(dp2287
g88
g89
ssg70
g2276
sg63
(lp2288
S':'
asbag56
(g77
g58
NtRp2289
(dp2290
g61
(dp2291
sg70
g2276
sg63
(lp2292
g56
(g57
g58
NtRp2293
(dp2294
g61
(dp2295
g69
I3
ssg70
g2289
sg63
(lp2296
g1307
asbasbasbag56
(g72
g58
NtRp2297
(dp2298
g61
(dp2299
sg70
g1999
sg63
(lp2300
g56
(g77
g58
NtRp2301
(dp2302
g61
(dp2303
g81
g82
ssg70
g2297
sg63
(lp2304
S'SCRIPT_NAME'
p2305
asbag56
(g77
g58
NtRp2306
(dp2307
g61
(dp2308
g88
g89
ssg70
g2297
sg63
(lp2309
S':'
asbag56
(g77
g58
NtRp2310
(dp2311
g61
(dp2312
sg70
g2297
sg63
(lp2313
g56
(g57
g58
NtRp2314
(dp2315
g61
(dp2316
g69
I3
ssg70
g2310
sg63
(lp2317
S''
asbasbasbag56
(g72
g58
NtRp2318
(dp2319
g61
(dp2320
sg70
g1999
sg63
(lp2321
g56
(g77
g58
NtRp2322
(dp2323
g61
(dp2324
g81
g82
ssg70
g2318
sg63
(lp2325
S'SERVER_NAME'
p2326
asbag56
(g77
g58
NtRp2327
(dp2328
g61
(dp2329
g88
g89
ssg70
g2318
sg63
(lp2330
S':'
asbag56
(g77
g58
NtRp2331
(dp2332
g61
(dp2333
sg70
g2318
sg63
(lp2334
g56
(g57
g58
NtRp2335
(dp2336
g61
(dp2337
g69
I3
ssg70
g2331
sg63
(lp2338
g1350
asbasbasbag56
(g72
g58
NtRp2339
(dp2340
g61
(dp2341
sg70
g1999
sg63
(lp2342
g56
(g77
g58
NtRp2343
(dp2344
g61
(dp2345
g81
g82
ssg70
g2339
sg63
(lp2346
S'SERVER_PORT'
p2347
asbag56
(g77
g58
NtRp2348
(dp2349
g61
(dp2350
g88
g89
ssg70
g2339
sg63
(lp2351
S':'
asbag56
(g77
g58
NtRp2352
(dp2353
g61
(dp2354
sg70
g2339
sg63
(lp2355
g56
(g57
g58
NtRp2356
(dp2357
g61
(dp2358
g69
I3
ssg70
g2352
sg63
(lp2359
g1372
asbasbasbag56
(g72
g58
NtRp2360
(dp2361
g61
(dp2362
sg70
g1999
sg63
(lp2363
g56
(g77
g58
NtRp2364
(dp2365
g61
(dp2366
g81
g82
ssg70
g2360
sg63
(lp2367
S'SERVER_PROTOCOL'
p2368
asbag56
(g77
g58
NtRp2369
(dp2370
g61
(dp2371
g88
g89
ssg70
g2360
sg63
(lp2372
S':'
asbag56
(g77
g58
NtRp2373
(dp2374
g61
(dp2375
sg70
g2360
sg63
(lp2376
g56
(g57
g58
NtRp2377
(dp2378
g61
(dp2379
g69
I3
ssg70
g2373
sg63
(lp2380
g1394
asbasbasbag56
(g72
g58
NtRp2381
(dp2382
g61
(dp2383
sg70
g1999
sg63
(lp2384
g56
(g77
g58
NtRp2385
(dp2386
g61
(dp2387
g81
g82
ssg70
g2381
sg63
(lp2388
S'SERVER_SOFTWARE'
p2389
asbag56
(g77
g58
NtRp2390
(dp2391
g61
(dp2392
g88
g89
ssg70
g2381
sg63
(lp2393
S':'
asbag56
(g77
g58
NtRp2394
(dp2395
g61
(dp2396
sg70
g2381
sg63
(lp2397
g56
(g57
g58
NtRp2398
(dp2399
g61
(dp2400
g69
I3
ssg70
g2394
sg63
(lp2401
g1416
asbasbasbag56
(g72
g58
NtRp2402
(dp2403
g61
(dp2404
sg70
g1999
sg63
(lp2405
g56
(g77
g58
NtRp2406
(dp2407
g61
(dp2408
g81
g82
ssg70
g2402
sg63
(lp2409
S'wsgi.errors'
p2410
asbag56
(g77
g58
NtRp2411
(dp2412
g61
(dp2413
g88
g89
ssg70
g2402
sg63
(lp2414
S':'
asbag56
(g77
g58
NtRp2415
(dp2416
g61
(dp2417
sg70
g2402
sg63
(lp2418
g56
(g57
g58
NtRp2419
(dp2420
g61
(dp2421
g69
I3
ssg70
g2415
sg63
(lp2422
S"<open file '<stderr>', mode 'w' at 0x100283270>"
p2423
asbasbasbag56
(g72
g58
NtRp2424
(dp2425
g61
(dp2426
sg70
g1999
sg63
(lp2427
g56
(g77
g58
NtRp2428
(dp2429
g61
(dp2430
g81
g82
ssg70
g2424
sg63
(lp2431
S'wsgi.file_wrapper'
p2432
asbag56
(g77
g58
NtRp2433
(dp2434
g61
(dp2435
g88
g89
ssg70
g2424
sg63
(lp2436
S':'
asbag56
(g77
g58
NtRp2437
(dp2438
g61
(dp2439
sg70
g2424
sg63
(lp2440
g56
(g57
g58
NtRp2441
(dp2442
g61
(dp2443
g69
I3
ssg70
g2437
sg63
(lp2444
S'<class gluon.rocket.FileWrapper at 0x101503738>'
p2445
asbasbasbag56
(g72
g58
NtRp2446
(dp2447
g61
(dp2448
sg70
g1999
sg63
(lp2449
g56
(g77
g58
NtRp2450
(dp2451
g61
(dp2452
g81
g82
ssg70
g2446
sg63
(lp2453
S'wsgi.input'
p2454
asbag56
(g77
g58
NtRp2455
(dp2456
g61
(dp2457
g88
g89
ssg70
g2446
sg63
(lp2458
S':'
asbag56
(g77
g58
NtRp2459
(dp2460
g61
(dp2461
sg70
g2446
sg63
(lp2462
g56
(g57
g58
NtRp2463
(dp2464
g61
(dp2465
g69
I3
ssg70
g2459
sg63
(lp2466
S'<cStringIO.StringO object at 0x1018baea0>'
p2467
asbasbasbag56
(g72
g58
NtRp2468
(dp2469
g61
(dp2470
sg70
g1999
sg63
(lp2471
g56
(g77
g58
NtRp2472
(dp2473
g61
(dp2474
g81
g82
ssg70
g2468
sg63
(lp2475
S'wsgi.multiprocess'
p2476
asbag56
(g77
g58
NtRp2477
(dp2478
g61
(dp2479
g88
g89
ssg70
g2468
sg63
(lp2480
S':'
asbag56
(g77
g58
NtRp2481
(dp2482
g61
(dp2483
sg70
g2468
sg63
(lp2484
g56
(g57
g58
NtRp2485
(dp2486
g61
(dp2487
g69
I3
ssg70
g2481
sg63
(lp2488
g99
asbasbasbag56
(g72
g58
NtRp2489
(dp2490
g61
(dp2491
sg70
g1999
sg63
(lp2492
g56
(g77
g58
NtRp2493
(dp2494
g61
(dp2495
g81
g82
ssg70
g2489
sg63
(lp2496
S'wsgi.multithread'
p2497
asbag56
(g77
g58
NtRp2498
(dp2499
g61
(dp2500
g88
g89
ssg70
g2489
sg63
(lp2501
S':'
asbag56
(g77
g58
NtRp2502
(dp2503
g61
(dp2504
sg70
g2489
sg63
(lp2505
g56
(g57
g58
NtRp2506
(dp2507
g61
(dp2508
g69
I3
ssg70
g2502
sg63
(lp2509
g1590
asbasbasbag56
(g72
g58
NtRp2510
(dp2511
g61
(dp2512
sg70
g1999
sg63
(lp2513
g56
(g77
g58
NtRp2514
(dp2515
g61
(dp2516
g81
g82
ssg70
g2510
sg63
(lp2517
S'wsgi.run_once'
p2518
asbag56
(g77
g58
NtRp2519
(dp2520
g61
(dp2521
g88
g89
ssg70
g2510
sg63
(lp2522
S':'
asbag56
(g77
g58
NtRp2523
(dp2524
g61
(dp2525
sg70
g2510
sg63
(lp2526
g56
(g57
g58
NtRp2527
(dp2528
g61
(dp2529
g69
I3
ssg70
g2523
sg63
(lp2530
g99
asbasbasbag56
(g72
g58
NtRp2531
(dp2532
g61
(dp2533
sg70
g1999
sg63
(lp2534
g56
(g77
g58
NtRp2535
(dp2536
g61
(dp2537
g81
g82
ssg70
g2531
sg63
(lp2538
S'wsgi.url_scheme'
p2539
asbag56
(g77
g58
NtRp2540
(dp2541
g61
(dp2542
g88
g89
ssg70
g2531
sg63
(lp2543
S':'
asbag56
(g77
g58
NtRp2544
(dp2545
g61
(dp2546
sg70
g2531
sg63
(lp2547
g56
(g57
g58
NtRp2548
(dp2549
g61
(dp2550
g69
I3
ssg70
g2544
sg63
(lp2551
g1633
asbasbasbag56
(g72
g58
NtRp2552
(dp2553
g61
(dp2554
sg70
g1999
sg63
(lp2555
g56
(g77
g58
NtRp2556
(dp2557
g61
(dp2558
g81
g82
ssg70
g2552
sg63
(lp2559
S'wsgi.version'
p2560
asbag56
(g77
g58
NtRp2561
(dp2562
g61
(dp2563
g88
g89
ssg70
g2552
sg63
(lp2564
S':'
asbag56
(g77
g58
NtRp2565
(dp2566
g61
(dp2567
sg70
g2552
sg63
(lp2568
g56
(g57
g58
NtRp2569
(dp2570
g61
(dp2571
g69
I3
ssg70
g2565
sg63
(lp2572
S'1'
asbasbasbasbasbasbasbasbasbasbasbasbasbsS'frames'
p2573
(lp2574
(dp2575
S'file'
p2576
S'/Users/ilustre/development/repo/jittest/web2py/gluon/restricted.py'
p2577
sS'dump'
p2578
(dp2579
S'environment'
p2580
S"{'A': <class 'gluon.html.A'>, 'Auth': <class 'gluon.tools.Auth'>, 'B': <class 'gluon.html.B'>, 'BEAUTIFY': <class 'gluon.html.BEAUTIFY'>, 'BODY': <class 'gluon.html.BODY'>, 'BR': <class 'gluon.html.BR'>, 'BUTTON': <class 'gluon.html.BUTTON'>, 'CAT': <class 'gluon.html.CAT'>, 'CENTER': <class 'gluon.html.CENTER'>, 'CLEANUP': <class 'gluon.validators.CLEANUP'>, ...}"
p2581
sS'ccode'
p2582
S'<code object <module> at 0x1012b88b0, file "/Use...ications/infovis/controllers/visual.py", line 11>'
p2583
ssS'lnum'
p2584
I192
sS'lines'
p2585
(dp2586
I192
S'        exec ccode in environment'
p2587
sI193
S'    except HTTP:'
p2588
sI194
S'        raise'
p2589
sI195
S'    except Exception, error:'
p2590
sI196
S'        # XXX Show exception in Wing IDE if running in debugger'
p2591
sI187
S'    try:'
p2592
sI188
S'        if type(code) == types.CodeType:'
p2593
sI189
S'            ccode = code'
p2594
sI190
S'        else:'
p2595
sI191
S'            ccode = compile2(code,layer)'
p2596
ssS'call'
p2597
S"(code='# -*- coding: utf-8 -*-\\n# this file is released ...\\n\\n\\n\\n\\n\\n\\n\\nresponse._vars=response._caller(treemap)\\n', environment={'A': <class 'gluon.html.A'>, 'Auth': <class 'gluon.tools.Auth'>, 'B': <class 'gluon.html.B'>, 'BEAUTIFY': <class 'gluon.html.BEAUTIFY'>, 'BODY': <class 'gluon.html.BODY'>, 'BR': <class 'gluon.html.BR'>, 'BUTTON': <class 'gluon.html.BUTTON'>, 'CAT': <class 'gluon.html.CAT'>, 'CENTER': <class 'gluon.html.CENTER'>, 'CLEANUP': <class 'gluon.validators.CLEANUP'>, ...}, layer='/Users/ilustre/development/repo/jittest/web2py/applications/infovis/controllers/visual.py')"
p2598
sS'func'
p2599
S'restricted'
p2600
sa(dp2601
g2576
S'/Users/ilustre/development/repo/jittest/web2py/applications/infovis/controllers/visual.py'
p2602
sg2578
(dp2603
sg2584
I976
sg2585
(dp2604
I965
S'    or with the signed load operator'
p2605
sI966
S"      LOAD('default','data.load',args='tables',ajax=True,user_signature=True)"
p2606
sI967
S'    """'
p2607
sI968
S'    return dict(form=crud())'
p2608
sI969
S''
sI970
S''
sI971
S''
sI972
S''
sI973
S''
sI974
S''
ssg2597
S'()'
p2609
sg2599
S'<module>'
p2610
sa(dp2611
g2576
S'/Users/ilustre/development/repo/jittest/web2py/gluon/globals.py'
p2612
sg2578
(dp2613
S'self'
p2614
S'undefined'
p2615
sS'f'
S'<function treemap>'
p2616
ssg2584
I145
sg2585
(dp2617
I140
S'        self.meta = Storage()      # used by web2py_ajax.html'
p2618
sI141
S'        self.menu = []             # used by the default view layout'
p2619
sI142
S'        self.files = []            # used by web2py_ajax.html'
p2620
sI143
S'        self.generic_patterns = [] # patterns to allow generic views'
p2621
sI144
S'        self._vars = None'
p2622
sI145
S'        self._caller = lambda f: f()'
p2623
sI146
S'        self._view_environment = None'
p2624
sI147
S'        self._custom_commit = None'
p2625
sI148
S'        self._custom_rollback = None'
p2626
sI149
S''
ssg2597
S'(f=<function treemap>)'
p2627
sg2599
S'<lambda>'
p2628
sa(dp2629
g2576
S'/Users/ilustre/development/repo/jittest/web2py/applications/infovis/controllers/visual.py'
p2630
sg2578
(dp2631
S'x'
g2615
sS'message'
p2632
g2615
sS'builtindict'
p2633
S"<type 'dict'>"
p2634
ssg2584
I908
sg2585
(dp2635
I903
S'def treemap():'
p2636
sI904
S'    import json'
p2637
sI905
S'    t = example(EXAMPLE)'
p2638
sI906
S'    r = json.dumps(t, sort_keys=True, indent=4)'
p2639
sI907
S'    print type(r)'
p2640
sI908
S'    return dict(message=x)'
p2641
sI909
S''
sI910
S''
sI911
S'def index():'
p2642
sI912
S'    """'
p2643
ssg2597
S'()'
p2644
sg2599
S'treemap'
p2645
sasS'pyver'
p2646
S'Python 2.7.2: /Users/ilustre/virtual_pythons/python27_gold/bin/python'
p2647
sS'session'
p2648
g56
(g57
g58
NtRp2649
(dp2650
g61
(dp2651
sg63
(lp2652
g56
(g65
g58
NtRp2653
(dp2654
g61
(dp2655
g69
I5
ssg70
Nsg63
(lp2656
sbasbsS'etype'
p2657
S"<type 'exceptions.NameError'>"
p2658
sS'date'
p2659
S'Mon Aug 15 00:11:21 2011'
p2660
sS'response'
p2661
g56
(g57
g58
NtRp2662
(dp2663
g61
(dp2664
sg63
(lp2665
g56
(g65
g58
NtRp2666
(dp2667
g61
(dp2668
g69
I5
ssg70
Nsg63
(lp2669
g56
(g72
g58
NtRp2670
(dp2671
g61
(dp2672
sg70
g2666
sg63
(lp2673
g56
(g77
g58
NtRp2674
(dp2675
g61
(dp2676
g81
g82
ssg70
g2670
sg63
(lp2677
g154
asbag56
(g77
g58
NtRp2678
(dp2679
g61
(dp2680
g88
g89
ssg70
g2670
sg63
(lp2681
S':'
asbag56
(g77
g58
NtRp2682
(dp2683
g61
(dp2684
sg70
g2670
sg63
(lp2685
g56
(g57
g58
NtRp2686
(dp2687
g61
(dp2688
g69
I5
ssg70
g2682
sg63
(lp2689
S'<cStringIO.StringO object at 0x10147fca8>'
p2690
asbasbasbag56
(g72
g58
NtRp2691
(dp2692
g61
(dp2693
sg70
g2666
sg63
(lp2694
g56
(g77
g58
NtRp2695
(dp2696
g61
(dp2697
g81
g82
ssg70
g2691
sg63
(lp2698
g220
asbag56
(g77
g58
NtRp2699
(dp2700
g61
(dp2701
g88
g89
ssg70
g2691
sg63
(lp2702
S':'
asbag56
(g77
g58
NtRp2703
(dp2704
g61
(dp2705
sg70
g2691
sg63
(lp2706
g56
(g57
g58
NtRp2707
(dp2708
g61
(dp2709
g69
I5
ssg70
g2703
sg63
(lp2710
g56
(g65
g58
NtRp2711
(dp2712
g61
(dp2713
g69
I4
ssg70
Nsg63
(lp2714
g56
(g72
g58
NtRp2715
(dp2716
g61
(dp2717
sg70
g2711
sg63
(lp2718
g56
(g77
g58
NtRp2719
(dp2720
g61
(dp2721
g81
g82
ssg70
g2715
sg63
(lp2722
S'session_id_infovis'
p2723
asbag56
(g77
g58
NtRp2724
(dp2725
g61
(dp2726
g88
g89
ssg70
g2715
sg63
(lp2727
S':'
asbag56
(g77
g58
NtRp2728
(dp2729
g61
(dp2730
sg70
g2715
sg63
(lp2731
g56
(g57
g58
NtRp2732
(dp2733
g61
(dp2734
g69
I4
ssg70
g2728
sg63
(lp2735
g56
(g65
g58
NtRp2736
(dp2737
g61
(dp2738
g69
I3
ssg70
Nsg63
(lp2739
g56
(g72
g58
NtRp2740
(dp2741
g61
(dp2742
sg70
g2736
sg63
(lp2743
g56
(g77
g58
NtRp2744
(dp2745
g61
(dp2746
g81
g82
ssg70
g2740
sg63
(lp2747
g270
asbag56
(g77
g58
NtRp2748
(dp2749
g61
(dp2750
g88
g89
ssg70
g2740
sg63
(lp2751
S':'
asbag56
(g77
g58
NtRp2752
(dp2753
g61
(dp2754
sg70
g2740
sg63
(lp2755
g56
(g57
g58
NtRp2756
(dp2757
g61
(dp2758
g69
I3
ssg70
g2752
sg63
(lp2759
S''
asbasbasbag56
(g72
g58
NtRp2760
(dp2761
g61
(dp2762
sg70
g2736
sg63
(lp2763
g56
(g77
g58
NtRp2764
(dp2765
g61
(dp2766
g81
g82
ssg70
g2760
sg63
(lp2767
g291
asbag56
(g77
g58
NtRp2768
(dp2769
g61
(dp2770
g88
g89
ssg70
g2760
sg63
(lp2771
S':'
asbag56
(g77
g58
NtRp2772
(dp2773
g61
(dp2774
sg70
g2760
sg63
(lp2775
g56
(g57
g58
NtRp2776
(dp2777
g61
(dp2778
g69
I3
ssg70
g2772
sg63
(lp2779
S''
asbasbasbag56
(g72
g58
NtRp2780
(dp2781
g61
(dp2782
sg70
g2736
sg63
(lp2783
g56
(g77
g58
NtRp2784
(dp2785
g61
(dp2786
g81
g82
ssg70
g2780
sg63
(lp2787
g312
asbag56
(g77
g58
NtRp2788
(dp2789
g61
(dp2790
g88
g89
ssg70
g2780
sg63
(lp2791
S':'
asbag56
(g77
g58
NtRp2792
(dp2793
g61
(dp2794
sg70
g2780
sg63
(lp2795
g56
(g57
g58
NtRp2796
(dp2797
g61
(dp2798
g69
I3
ssg70
g2792
sg63
(lp2799
S''
asbasbasbag56
(g72
g58
NtRp2800
(dp2801
g61
(dp2802
sg70
g2736
sg63
(lp2803
g56
(g77
g58
NtRp2804
(dp2805
g61
(dp2806
g81
g82
ssg70
g2800
sg63
(lp2807
g333
asbag56
(g77
g58
NtRp2808
(dp2809
g61
(dp2810
g88
g89
ssg70
g2800
sg63
(lp2811
S':'
asbag56
(g77
g58
NtRp2812
(dp2813
g61
(dp2814
sg70
g2800
sg63
(lp2815
g56
(g57
g58
NtRp2816
(dp2817
g61
(dp2818
g69
I3
ssg70
g2812
sg63
(lp2819
S''
asbasbasbag56
(g72
g58
NtRp2820
(dp2821
g61
(dp2822
sg70
g2736
sg63
(lp2823
g56
(g77
g58
NtRp2824
(dp2825
g61
(dp2826
g81
g82
ssg70
g2820
sg63
(lp2827
g354
asbag56
(g77
g58
NtRp2828
(dp2829
g61
(dp2830
g88
g89
ssg70
g2820
sg63
(lp2831
S':'
asbag56
(g77
g58
NtRp2832
(dp2833
g61
(dp2834
sg70
g2820
sg63
(lp2835
g56
(g57
g58
NtRp2836
(dp2837
g61
(dp2838
g69
I3
ssg70
g2832
sg63
(lp2839
S''
asbasbasbag56
(g72
g58
NtRp2840
(dp2841
g61
(dp2842
sg70
g2736
sg63
(lp2843
g56
(g77
g58
NtRp2844
(dp2845
g61
(dp2846
g81
g82
ssg70
g2840
sg63
(lp2847
g375
asbag56
(g77
g58
NtRp2848
(dp2849
g61
(dp2850
g88
g89
ssg70
g2840
sg63
(lp2851
S':'
asbag56
(g77
g58
NtRp2852
(dp2853
g61
(dp2854
sg70
g2840
sg63
(lp2855
g56
(g57
g58
NtRp2856
(dp2857
g61
(dp2858
g69
I3
ssg70
g2852
sg63
(lp2859
S'/'
asbasbasbag56
(g72
g58
NtRp2860
(dp2861
g61
(dp2862
sg70
g2736
sg63
(lp2863
g56
(g77
g58
NtRp2864
(dp2865
g61
(dp2866
g81
g82
ssg70
g2860
sg63
(lp2867
g396
asbag56
(g77
g58
NtRp2868
(dp2869
g61
(dp2870
g88
g89
ssg70
g2860
sg63
(lp2871
S':'
asbag56
(g77
g58
NtRp2872
(dp2873
g61
(dp2874
sg70
g2860
sg63
(lp2875
g56
(g57
g58
NtRp2876
(dp2877
g61
(dp2878
g69
I3
ssg70
g2872
sg63
(lp2879
S''
asbasbasbag56
(g72
g58
NtRp2880
(dp2881
g61
(dp2882
sg70
g2736
sg63
(lp2883
g56
(g77
g58
NtRp2884
(dp2885
g61
(dp2886
g81
g82
ssg70
g2880
sg63
(lp2887
g417
asbag56
(g77
g58
NtRp2888
(dp2889
g61
(dp2890
g88
g89
ssg70
g2880
sg63
(lp2891
S':'
asbag56
(g77
g58
NtRp2892
(dp2893
g61
(dp2894
sg70
g2880
sg63
(lp2895
g56
(g57
g58
NtRp2896
(dp2897
g61
(dp2898
g69
I3
ssg70
g2892
sg63
(lp2899
S''
asbasbasbasbasbasbasbasbasbasbasbag56
(g72
g58
NtRp2900
(dp2901
g61
(dp2902
sg70
g2666
sg63
(lp2903
g56
(g77
g58
NtRp2904
(dp2905
g61
(dp2906
g81
g82
ssg70
g2900
sg63
(lp2907
S'files'
p2908
asbag56
(g77
g58
NtRp2909
(dp2910
g61
(dp2911
g88
g89
ssg70
g2900
sg63
(lp2912
S':'
asbag56
(g77
g58
NtRp2913
(dp2914
g61
(dp2915
sg70
g2900
sg63
(lp2916
g56
(g57
g58
NtRp2917
(dp2918
g61
(dp2919
g69
I5
ssg70
g2913
sg63
(lp2920
g56
(g65
g58
NtRp2921
(dp2922
g61
(dp2923
g69
I4
ssg70
Nsg63
(lp2924
sbasbasbasbag56
(g72
g58
NtRp2925
(dp2926
g61
(dp2927
sg70
g2666
sg63
(lp2928
g56
(g77
g58
NtRp2929
(dp2930
g61
(dp2931
g81
g82
ssg70
g2925
sg63
(lp2932
S'flash'
p2933
asbag56
(g77
g58
NtRp2934
(dp2935
g61
(dp2936
g88
g89
ssg70
g2925
sg63
(lp2937
S':'
asbag56
(g77
g58
NtRp2938
(dp2939
g61
(dp2940
sg70
g2925
sg63
(lp2941
g56
(g57
g58
NtRp2942
(dp2943
g61
(dp2944
g69
I5
ssg70
g2938
sg63
(lp2945
S''
asbasbasbag56
(g72
g58
NtRp2946
(dp2947
g61
(dp2948
sg70
g2666
sg63
(lp2949
g56
(g77
g58
NtRp2950
(dp2951
g61
(dp2952
g81
g82
ssg70
g2946
sg63
(lp2953
S'generic_patterns'
p2954
asbag56
(g77
g58
NtRp2955
(dp2956
g61
(dp2957
g88
g89
ssg70
g2946
sg63
(lp2958
S':'
asbag56
(g77
g58
NtRp2959
(dp2960
g61
(dp2961
sg70
g2946
sg63
(lp2962
g56
(g57
g58
NtRp2963
(dp2964
g61
(dp2965
g69
I5
ssg70
g2959
sg63
(lp2966
g56
(g65
g58
NtRp2967
(dp2968
g61
(dp2969
g69
I4
ssg70
Nsg63
(lp2970
g56
(g72
g58
NtRp2971
(dp2972
g61
(dp2973
sg70
g2967
sg63
(lp2974
g56
(g77
g58
NtRp2975
(dp2976
g61
(dp2977
sg70
g2971
sg63
(lp2978
g56
(g57
g58
NtRp2979
(dp2980
g61
(dp2981
g69
I4
ssg70
g2975
sg63
(lp2982
S'*'
asbasbasbasbasbasbasbag56
(g72
g58
NtRp2983
(dp2984
g61
(dp2985
sg70
g2666
sg63
(lp2986
g56
(g77
g58
NtRp2987
(dp2988
g61
(dp2989
g81
g82
ssg70
g2983
sg63
(lp2990
S'headers'
p2991
asbag56
(g77
g58
NtRp2992
(dp2993
g61
(dp2994
g88
g89
ssg70
g2983
sg63
(lp2995
S':'
asbag56
(g77
g58
NtRp2996
(dp2997
g61
(dp2998
sg70
g2983
sg63
(lp2999
g56
(g57
g58
NtRp3000
(dp3001
g61
(dp3002
g69
I5
ssg70
g2996
sg63
(lp3003
g56
(g65
g58
NtRp3004
(dp3005
g61
(dp3006
g69
I4
ssg70
Nsg63
(lp3007
g56
(g72
g58
NtRp3008
(dp3009
g61
(dp3010
sg70
g3004
sg63
(lp3011
g56
(g77
g58
NtRp3012
(dp3013
g61
(dp3014
g81
g82
ssg70
g3008
sg63
(lp3015
S'Cache-Control'
p3016
asbag56
(g77
g58
NtRp3017
(dp3018
g61
(dp3019
g88
g89
ssg70
g3008
sg63
(lp3020
S':'
asbag56
(g77
g58
NtRp3021
(dp3022
g61
(dp3023
sg70
g3008
sg63
(lp3024
g56
(g57
g58
NtRp3025
(dp3026
g61
(dp3027
g69
I4
ssg70
g3021
sg63
(lp3028
S'no-store, no-cache, must-revalidate, post-check=0, pre-check=0'
p3029
asbasbasbag56
(g72
g58
NtRp3030
(dp3031
g61
(dp3032
sg70
g3004
sg63
(lp3033
g56
(g77
g58
NtRp3034
(dp3035
g61
(dp3036
g81
g82
ssg70
g3030
sg63
(lp3037
S'Content-Type'
p3038
asbag56
(g77
g58
NtRp3039
(dp3040
g61
(dp3041
g88
g89
ssg70
g3030
sg63
(lp3042
S':'
asbag56
(g77
g58
NtRp3043
(dp3044
g61
(dp3045
sg70
g3030
sg63
(lp3046
g56
(g57
g58
NtRp3047
(dp3048
g61
(dp3049
g69
I4
ssg70
g3043
sg63
(lp3050
S'text/html; charset=utf-8'
p3051
asbasbasbag56
(g72
g58
NtRp3052
(dp3053
g61
(dp3054
sg70
g3004
sg63
(lp3055
g56
(g77
g58
NtRp3056
(dp3057
g61
(dp3058
g81
g82
ssg70
g3052
sg63
(lp3059
S'Expires'
p3060
asbag56
(g77
g58
NtRp3061
(dp3062
g61
(dp3063
g88
g89
ssg70
g3052
sg63
(lp3064
S':'
asbag56
(g77
g58
NtRp3065
(dp3066
g61
(dp3067
sg70
g3052
sg63
(lp3068
g56
(g57
g58
NtRp3069
(dp3070
g61
(dp3071
g69
I4
ssg70
g3065
sg63
(lp3072
S'Mon, 15 Aug 2011 04:11:21 GMT'
p3073
asbasbasbag56
(g72
g58
NtRp3074
(dp3075
g61
(dp3076
sg70
g3004
sg63
(lp3077
g56
(g77
g58
NtRp3078
(dp3079
g61
(dp3080
g81
g82
ssg70
g3074
sg63
(lp3081
S'Pragma'
p3082
asbag56
(g77
g58
NtRp3083
(dp3084
g61
(dp3085
g88
g89
ssg70
g3074
sg63
(lp3086
S':'
asbag56
(g77
g58
NtRp3087
(dp3088
g61
(dp3089
sg70
g3074
sg63
(lp3090
g56
(g57
g58
NtRp3091
(dp3092
g61
(dp3093
g69
I4
ssg70
g3087
sg63
(lp3094
S'no-cache'
p3095
asbasbasbag56
(g72
g58
NtRp3096
(dp3097
g61
(dp3098
sg70
g3004
sg63
(lp3099
g56
(g77
g58
NtRp3100
(dp3101
g61
(dp3102
g81
g82
ssg70
g3096
sg63
(lp3103
S'X-Powered-By'
p3104
asbag56
(g77
g58
NtRp3105
(dp3106
g61
(dp3107
g88
g89
ssg70
g3096
sg63
(lp3108
S':'
asbag56
(g77
g58
NtRp3109
(dp3110
g61
(dp3111
sg70
g3096
sg63
(lp3112
g56
(g57
g58
NtRp3113
(dp3114
g61
(dp3115
g69
I4
ssg70
g3109
sg63
(lp3116
S'web2py'
p3117
asbasbasbasbasbasbasbag56
(g72
g58
NtRp3118
(dp3119
g61
(dp3120
sg70
g2666
sg63
(lp3121
g56
(g77
g58
NtRp3122
(dp3123
g61
(dp3124
g81
g82
ssg70
g3118
sg63
(lp3125
S'menu'
p3126
asbag56
(g77
g58
NtRp3127
(dp3128
g61
(dp3129
g88
g89
ssg70
g3118
sg63
(lp3130
S':'
asbag56
(g77
g58
NtRp3131
(dp3132
g61
(dp3133
sg70
g3118
sg63
(lp3134
g56
(g57
g58
NtRp3135
(dp3136
g61
(dp3137
g69
I5
ssg70
g3131
sg63
(lp3138
g56
(g65
g58
NtRp3139
(dp3140
g61
(dp3141
g69
I4
ssg70
Nsg63
(lp3142
g56
(g72
g58
NtRp3143
(dp3144
g61
(dp3145
sg70
g3139
sg63
(lp3146
g56
(g77
g58
NtRp3147
(dp3148
g61
(dp3149
sg70
g3143
sg63
(lp3150
g56
(g57
g58
NtRp3151
(dp3152
g61
(dp3153
g69
I4
ssg70
g3147
sg63
(lp3154
g56
(g65
g58
NtRp3155
(dp3156
g61
(dp3157
g69
I3
ssg70
Nsg63
(lp3158
g56
(g72
g58
NtRp3159
(dp3160
g61
(dp3161
sg70
g3155
sg63
(lp3162
g56
(g77
g58
NtRp3163
(dp3164
g61
(dp3165
sg70
g3159
sg63
(lp3166
g56
(g57
g58
NtRp3167
(dp3168
g61
(dp3169
g69
I3
ssg70
g3163
sg63
(lp3170
cgluon.languages
lazyT_unpickle
p3171
(S't\x04\x00\x00\x00Home'
tRp3172
asbasbasbag56
(g72
g58
NtRp3173
(dp3174
g61
(dp3175
sg70
g3155
sg63
(lp3176
g56
(g77
g58
NtRp3177
(dp3178
g61
(dp3179
sg70
g3173
sg63
(lp3180
g56
(g57
g58
NtRp3181
(dp3182
g61
(dp3183
g69
I3
ssg70
g3177
sg63
(lp3184
g99
asbasbasbag56
(g72
g58
NtRp3185
(dp3186
g61
(dp3187
sg70
g3155
sg63
(lp3188
g56
(g77
g58
NtRp3189
(dp3190
g61
(dp3191
sg70
g3185
sg63
(lp3192
g56
(g57
g58
NtRp3193
(dp3194
g61
(dp3195
g69
I3
ssg70
g3189
sg63
(lp3196
S'/infovis/default/index'
p3197
asbasbasbag56
(g72
g58
NtRp3198
(dp3199
g61
(dp3200
sg70
g3155
sg63
(lp3201
g56
(g77
g58
NtRp3202
(dp3203
g61
(dp3204
sg70
g3198
sg63
(lp3205
g56
(g57
g58
NtRp3206
(dp3207
g61
(dp3208
g69
I3
ssg70
g3202
sg63
(lp3209
g56
(g65
g58
NtRp3210
(dp3211
g61
(dp3212
g69
I2
ssg70
Nsg63
(lp3213
sbasbasbasbasbasbasbasbag56
(g72
g58
NtRp3214
(dp3215
g61
(dp3216
sg70
g3139
sg63
(lp3217
g56
(g77
g58
NtRp3218
(dp3219
g61
(dp3220
sg70
g3214
sg63
(lp3221
g56
(g57
g58
NtRp3222
(dp3223
g61
(dp3224
g69
I4
ssg70
g3218
sg63
(lp3225
g56
(g65
g58
NtRp3226
(dp3227
g61
(dp3228
g69
I3
ssg70
Nsg63
(lp3229
g56
(g72
g58
NtRp3230
(dp3231
g61
(dp3232
sg70
g3226
sg63
(lp3233
g56
(g77
g58
NtRp3234
(dp3235
g61
(dp3236
sg70
g3230
sg63
(lp3237
g56
(g57
g58
NtRp3238
(dp3239
g61
(dp3240
g69
I3
ssg70
g3234
sg63
(lp3241
g3171
(S's\x08\x00\x00\x00This App'
tRp3242
asbasbasbag56
(g72
g58
NtRp3243
(dp3244
g61
(dp3245
sg70
g3226
sg63
(lp3246
g56
(g77
g58
NtRp3247
(dp3248
g61
(dp3249
sg70
g3243
sg63
(lp3250
g56
(g57
g58
NtRp3251
(dp3252
g61
(dp3253
g69
I3
ssg70
g3247
sg63
(lp3254
g99
asbasbasbag56
(g72
g58
NtRp3255
(dp3256
g61
(dp3257
sg70
g3226
sg63
(lp3258
g56
(g77
g58
NtRp3259
(dp3260
g61
(dp3261
sg70
g3255
sg63
(lp3262
g56
(g57
g58
NtRp3263
(dp3264
g61
(dp3265
g69
I3
ssg70
g3259
sg63
(lp3266
S'/admin/default/design/infovis'
p3267
asbasbasbag56
(g72
g58
NtRp3268
(dp3269
g61
(dp3270
sg70
g3226
sg63
(lp3271
g56
(g77
g58
NtRp3272
(dp3273
g61
(dp3274
sg70
g3268
sg63
(lp3275
g56
(g57
g58
NtRp3276
(dp3277
g61
(dp3278
g69
I3
ssg70
g3272
sg63
(lp3279
g56
(g65
g58
NtRp3280
(dp3281
g61
(dp3282
g69
I2
ssg70
Nsg63
(lp3283
g56
(g72
g58
NtRp3284
(dp3285
g61
(dp3286
sg70
g3280
sg63
(lp3287
g56
(g77
g58
NtRp3288
(dp3289
g61
(dp3290
sg70
g3284
sg63
(lp3291
g56
(g57
g58
NtRp3292
(dp3293
g61
(dp3294
g69
I2
ssg70
g3288
sg63
(lp3295
g56
(g65
g58
NtRp3296
(dp3297
g61
(dp3298
g69
I1
ssg70
Nsg63
(lp3299
g56
(g72
g58
NtRp3300
(dp3301
g61
(dp3302
sg70
g3296
sg63
(lp3303
g56
(g77
g58
NtRp3304
(dp3305
g61
(dp3306
sg70
g3300
sg63
(lp3307
g56
(g57
g58
NtRp3308
(dp3309
g61
(dp3310
g69
I1
ssg70
g3304
sg63
(lp3311
g3171
(S't\n\x00\x00\x00Controller'
tRp3312
asbasbasbag56
(g72
g58
NtRp3313
(dp3314
g61
(dp3315
sg70
g3296
sg63
(lp3316
g56
(g77
g58
NtRp3317
(dp3318
g61
(dp3319
sg70
g3313
sg63
(lp3320
g56
(g57
g58
NtRp3321
(dp3322
g61
(dp3323
g69
I1
ssg70
g3317
sg63
(lp3324
I00
asbasbasbag56
(g72
g58
NtRp3325
(dp3326
g61
(dp3327
sg70
g3296
sg63
(lp3328
g56
(g77
g58
NtRp3329
(dp3330
g61
(dp3331
sg70
g3325
sg63
(lp3332
g56
(g57
g58
NtRp3333
(dp3334
g61
(dp3335
g69
I1
ssg70
g3329
sg63
(lp3336
S'/admin/default/edit/infovis/controllers/visual.py'
p3337
asbasbasbasbasbasbasbag56
(g72
g58
NtRp3338
(dp3339
g61
(dp3340
sg70
g3280
sg63
(lp3341
g56
(g77
g58
NtRp3342
(dp3343
g61
(dp3344
sg70
g3338
sg63
(lp3345
g56
(g57
g58
NtRp3346
(dp3347
g61
(dp3348
g69
I2
ssg70
g3342
sg63
(lp3349
g56
(g65
g58
NtRp3350
(dp3351
g61
(dp3352
g69
I1
ssg70
Nsg63
(lp3353
g56
(g72
g58
NtRp3354
(dp3355
g61
(dp3356
sg70
g3350
sg63
(lp3357
g56
(g77
g58
NtRp3358
(dp3359
g61
(dp3360
sg70
g3354
sg63
(lp3361
g56
(g57
g58
NtRp3362
(dp3363
g61
(dp3364
g69
I1
ssg70
g3358
sg63
(lp3365
g3171
(S't\x04\x00\x00\x00View'
tRp3366
asbasbasbag56
(g72
g58
NtRp3367
(dp3368
g61
(dp3369
sg70
g3350
sg63
(lp3370
g56
(g77
g58
NtRp3371
(dp3372
g61
(dp3373
sg70
g3367
sg63
(lp3374
g56
(g57
g58
NtRp3375
(dp3376
g61
(dp3377
g69
I1
ssg70
g3371
sg63
(lp3378
I00
asbasbasbag56
(g72
g58
NtRp3379
(dp3380
g61
(dp3381
sg70
g3350
sg63
(lp3382
g56
(g77
g58
NtRp3383
(dp3384
g61
(dp3385
sg70
g3379
sg63
(lp3386
g56
(g57
g58
NtRp3387
(dp3388
g61
(dp3389
g69
I1
ssg70
g3383
sg63
(lp3390
S'/admin/default/edit/infovis/views/visual/treemap.html'
p3391
asbasbasbasbasbasbasbag56
(g72
g58
NtRp3392
(dp3393
g61
(dp3394
sg70
g3280
sg63
(lp3395
g56
(g77
g58
NtRp3396
(dp3397
g61
(dp3398
sg70
g3392
sg63
(lp3399
g56
(g57
g58
NtRp3400
(dp3401
g61
(dp3402
g69
I2
ssg70
g3396
sg63
(lp3403
g56
(g65
g58
NtRp3404
(dp3405
g61
(dp3406
g69
I1
ssg70
Nsg63
(lp3407
g56
(g72
g58
NtRp3408
(dp3409
g61
(dp3410
sg70
g3404
sg63
(lp3411
g56
(g77
g58
NtRp3412
(dp3413
g61
(dp3414
sg70
g3408
sg63
(lp3415
g56
(g57
g58
NtRp3416
(dp3417
g61
(dp3418
g69
I1
ssg70
g3412
sg63
(lp3419
g3171
(S't\x06\x00\x00\x00Layout'
tRp3420
asbasbasbag56
(g72
g58
NtRp3421
(dp3422
g61
(dp3423
sg70
g3404
sg63
(lp3424
g56
(g77
g58
NtRp3425
(dp3426
g61
(dp3427
sg70
g3421
sg63
(lp3428
g56
(g57
g58
NtRp3429
(dp3430
g61
(dp3431
g69
I1
ssg70
g3425
sg63
(lp3432
I00
asbasbasbag56
(g72
g58
NtRp3433
(dp3434
g61
(dp3435
sg70
g3404
sg63
(lp3436
g56
(g77
g58
NtRp3437
(dp3438
g61
(dp3439
sg70
g3433
sg63
(lp3440
g56
(g57
g58
NtRp3441
(dp3442
g61
(dp3443
g69
I1
ssg70
g3437
sg63
(lp3444
S'/admin/default/edit/infovis/views/layout.html'
p3445
asbasbasbasbasbasbasbag56
(g72
g58
NtRp3446
(dp3447
g61
(dp3448
sg70
g3280
sg63
(lp3449
g56
(g77
g58
NtRp3450
(dp3451
g61
(dp3452
sg70
g3446
sg63
(lp3453
g56
(g57
g58
NtRp3454
(dp3455
g61
(dp3456
g69
I2
ssg70
g3450
sg63
(lp3457
g56
(g65
g58
NtRp3458
(dp3459
g61
(dp3460
g69
I1
ssg70
Nsg63
(lp3461
g56
(g72
g58
NtRp3462
(dp3463
g61
(dp3464
sg70
g3458
sg63
(lp3465
g56
(g77
g58
NtRp3466
(dp3467
g61
(dp3468
sg70
g3462
sg63
(lp3469
g56
(g57
g58
NtRp3470
(dp3471
g61
(dp3472
g69
I1
ssg70
g3466
sg63
(lp3473
g3171
(S't\n\x00\x00\x00Stylesheet'
tRp3474
asbasbasbag56
(g72
g58
NtRp3475
(dp3476
g61
(dp3477
sg70
g3458
sg63
(lp3478
g56
(g77
g58
NtRp3479
(dp3480
g61
(dp3481
sg70
g3475
sg63
(lp3482
g56
(g57
g58
NtRp3483
(dp3484
g61
(dp3485
g69
I1
ssg70
g3479
sg63
(lp3486
I00
asbasbasbag56
(g72
g58
NtRp3487
(dp3488
g61
(dp3489
sg70
g3458
sg63
(lp3490
g56
(g77
g58
NtRp3491
(dp3492
g61
(dp3493
sg70
g3487
sg63
(lp3494
g56
(g57
g58
NtRp3495
(dp3496
g61
(dp3497
g69
I1
ssg70
g3491
sg63
(lp3498
S'/admin/default/edit/infovis/static/base.css'
p3499
asbasbasbasbasbasbasbag56
(g72
g58
NtRp3500
(dp3501
g61
(dp3502
sg70
g3280
sg63
(lp3503
g56
(g77
g58
NtRp3504
(dp3505
g61
(dp3506
sg70
g3500
sg63
(lp3507
g56
(g57
g58
NtRp3508
(dp3509
g61
(dp3510
g69
I2
ssg70
g3504
sg63
(lp3511
g56
(g65
g58
NtRp3512
(dp3513
g61
(dp3514
g69
I1
ssg70
Nsg63
(lp3515
g56
(g72
g58
NtRp3516
(dp3517
g61
(dp3518
sg70
g3512
sg63
(lp3519
g56
(g77
g58
NtRp3520
(dp3521
g61
(dp3522
sg70
g3516
sg63
(lp3523
g56
(g57
g58
NtRp3524
(dp3525
g61
(dp3526
g69
I1
ssg70
g3520
sg63
(lp3527
g3171
(S's\x08\x00\x00\x00DB Model'
tRp3528
asbasbasbag56
(g72
g58
NtRp3529
(dp3530
g61
(dp3531
sg70
g3512
sg63
(lp3532
g56
(g77
g58
NtRp3533
(dp3534
g61
(dp3535
sg70
g3529
sg63
(lp3536
g56
(g57
g58
NtRp3537
(dp3538
g61
(dp3539
g69
I1
ssg70
g3533
sg63
(lp3540
I00
asbasbasbag56
(g72
g58
NtRp3541
(dp3542
g61
(dp3543
sg70
g3512
sg63
(lp3544
g56
(g77
g58
NtRp3545
(dp3546
g61
(dp3547
sg70
g3541
sg63
(lp3548
g56
(g57
g58
NtRp3549
(dp3550
g61
(dp3551
g69
I1
ssg70
g3545
sg63
(lp3552
S'/admin/default/edit/infovis/models/db.py'
p3553
asbasbasbasbasbasbasbag56
(g72
g58
NtRp3554
(dp3555
g61
(dp3556
sg70
g3280
sg63
(lp3557
g56
(g77
g58
NtRp3558
(dp3559
g61
(dp3560
sg70
g3554
sg63
(lp3561
g56
(g57
g58
NtRp3562
(dp3563
g61
(dp3564
g69
I2
ssg70
g3558
sg63
(lp3565
g56
(g65
g58
NtRp3566
(dp3567
g61
(dp3568
g69
I1
ssg70
Nsg63
(lp3569
g56
(g72
g58
NtRp3570
(dp3571
g61
(dp3572
sg70
g3566
sg63
(lp3573
g56
(g77
g58
NtRp3574
(dp3575
g61
(dp3576
sg70
g3570
sg63
(lp3577
g56
(g57
g58
NtRp3578
(dp3579
g61
(dp3580
g69
I1
ssg70
g3574
sg63
(lp3581
g3171
(S's\n\x00\x00\x00Menu Model'
tRp3582
asbasbasbag56
(g72
g58
NtRp3583
(dp3584
g61
(dp3585
sg70
g3566
sg63
(lp3586
g56
(g77
g58
NtRp3587
(dp3588
g61
(dp3589
sg70
g3583
sg63
(lp3590
g56
(g57
g58
NtRp3591
(dp3592
g61
(dp3593
g69
I1
ssg70
g3587
sg63
(lp3594
I00
asbasbasbag56
(g72
g58
NtRp3595
(dp3596
g61
(dp3597
sg70
g3566
sg63
(lp3598
g56
(g77
g58
NtRp3599
(dp3600
g61
(dp3601
sg70
g3595
sg63
(lp3602
g56
(g57
g58
NtRp3603
(dp3604
g61
(dp3605
g69
I1
ssg70
g3599
sg63
(lp3606
S'/admin/default/edit/infovis/models/menu.py'
p3607
asbasbasbasbasbasbasbag56
(g72
g58
NtRp3608
(dp3609
g61
(dp3610
sg70
g3280
sg63
(lp3611
g56
(g77
g58
NtRp3612
(dp3613
g61
(dp3614
sg70
g3608
sg63
(lp3615
g56
(g57
g58
NtRp3616
(dp3617
g61
(dp3618
g69
I2
ssg70
g3612
sg63
(lp3619
g56
(g65
g58
NtRp3620
(dp3621
g61
(dp3622
g69
I1
ssg70
Nsg63
(lp3623
g56
(g72
g58
NtRp3624
(dp3625
g61
(dp3626
sg70
g3620
sg63
(lp3627
g56
(g77
g58
NtRp3628
(dp3629
g61
(dp3630
sg70
g3624
sg63
(lp3631
g56
(g57
g58
NtRp3632
(dp3633
g61
(dp3634
g69
I1
ssg70
g3628
sg63
(lp3635
g3171
(S't\x08\x00\x00\x00Database'
tRp3636
asbasbasbag56
(g72
g58
NtRp3637
(dp3638
g61
(dp3639
sg70
g3620
sg63
(lp3640
g56
(g77
g58
NtRp3641
(dp3642
g61
(dp3643
sg70
g3637
sg63
(lp3644
g56
(g57
g58
NtRp3645
(dp3646
g61
(dp3647
g69
I1
ssg70
g3641
sg63
(lp3648
I00
asbasbasbag56
(g72
g58
NtRp3649
(dp3650
g61
(dp3651
sg70
g3620
sg63
(lp3652
g56
(g77
g58
NtRp3653
(dp3654
g61
(dp3655
sg70
g3649
sg63
(lp3656
g56
(g57
g58
NtRp3657
(dp3658
g61
(dp3659
g69
I1
ssg70
g3653
sg63
(lp3660
S'/infovis/appadmin/index'
p3661
asbasbasbasbasbasbasbag56
(g72
g58
NtRp3662
(dp3663
g61
(dp3664
sg70
g3280
sg63
(lp3665
g56
(g77
g58
NtRp3666
(dp3667
g61
(dp3668
sg70
g3662
sg63
(lp3669
g56
(g57
g58
NtRp3670
(dp3671
g61
(dp3672
g69
I2
ssg70
g3666
sg63
(lp3673
g56
(g65
g58
NtRp3674
(dp3675
g61
(dp3676
g69
I1
ssg70
Nsg63
(lp3677
g56
(g72
g58
NtRp3678
(dp3679
g61
(dp3680
sg70
g3674
sg63
(lp3681
g56
(g77
g58
NtRp3682
(dp3683
g61
(dp3684
sg70
g3678
sg63
(lp3685
g56
(g57
g58
NtRp3686
(dp3687
g61
(dp3688
g69
I1
ssg70
g3682
sg63
(lp3689
g3171
(S't\x06\x00\x00\x00Errors'
tRp3690
asbasbasbag56
(g72
g58
NtRp3691
(dp3692
g61
(dp3693
sg70
g3674
sg63
(lp3694
g56
(g77
g58
NtRp3695
(dp3696
g61
(dp3697
sg70
g3691
sg63
(lp3698
g56
(g57
g58
NtRp3699
(dp3700
g61
(dp3701
g69
I1
ssg70
g3695
sg63
(lp3702
I00
asbasbasbag56
(g72
g58
NtRp3703
(dp3704
g61
(dp3705
sg70
g3674
sg63
(lp3706
g56
(g77
g58
NtRp3707
(dp3708
g61
(dp3709
sg70
g3703
sg63
(lp3710
g56
(g57
g58
NtRp3711
(dp3712
g61
(dp3713
g69
I1
ssg70
g3707
sg63
(lp3714
S'/admin/default/errors/infovis'
p3715
asbasbasbasbasbasbasbag56
(g72
g58
NtRp3716
(dp3717
g61
(dp3718
sg70
g3280
sg63
(lp3719
g56
(g77
g58
NtRp3720
(dp3721
g61
(dp3722
sg70
g3716
sg63
(lp3723
g56
(g57
g58
NtRp3724
(dp3725
g61
(dp3726
g69
I2
ssg70
g3720
sg63
(lp3727
g56
(g65
g58
NtRp3728
(dp3729
g61
(dp3730
g69
I1
ssg70
Nsg63
(lp3731
g56
(g72
g58
NtRp3732
(dp3733
g61
(dp3734
sg70
g3728
sg63
(lp3735
g56
(g77
g58
NtRp3736
(dp3737
g61
(dp3738
sg70
g3732
sg63
(lp3739
g56
(g57
g58
NtRp3740
(dp3741
g61
(dp3742
g69
I1
ssg70
g3736
sg63
(lp3743
g3171
(S't\x05\x00\x00\x00About'
tRp3744
asbasbasbag56
(g72
g58
NtRp3745
(dp3746
g61
(dp3747
sg70
g3728
sg63
(lp3748
g56
(g77
g58
NtRp3749
(dp3750
g61
(dp3751
sg70
g3745
sg63
(lp3752
g56
(g57
g58
NtRp3753
(dp3754
g61
(dp3755
g69
I1
ssg70
g3749
sg63
(lp3756
I00
asbasbasbag56
(g72
g58
NtRp3757
(dp3758
g61
(dp3759
sg70
g3728
sg63
(lp3760
g56
(g77
g58
NtRp3761
(dp3762
g61
(dp3763
sg70
g3757
sg63
(lp3764
g56
(g57
g58
NtRp3765
(dp3766
g61
(dp3767
g69
I1
ssg70
g3761
sg63
(lp3768
S'/admin/default/about/infovis'
p3769
asbasbasbasbasbasbasbasbasbasbasbasbasbasbasbag56
(g72
g58
NtRp3770
(dp3771
g61
(dp3772
sg70
g3139
sg63
(lp3773
g56
(g77
g58
NtRp3774
(dp3775
g61
(dp3776
sg70
g3770
sg63
(lp3777
g56
(g57
g58
NtRp3778
(dp3779
g61
(dp3780
g69
I4
ssg70
g3774
sg63
(lp3781
g56
(g65
g58
NtRp3782
(dp3783
g61
(dp3784
g69
I3
ssg70
Nsg63
(lp3785
g56
(g72
g58
NtRp3786
(dp3787
g61
(dp3788
sg70
g3782
sg63
(lp3789
g56
(g77
g58
NtRp3790
(dp3791
g61
(dp3792
sg70
g3786
sg63
(lp3793
g56
(g57
g58
NtRp3794
(dp3795
g61
(dp3796
g69
I3
ssg70
g3790
sg63
(lp3797
g3171
(S't\t\x00\x00\x00Resources'
tRp3798
asbasbasbag56
(g72
g58
NtRp3799
(dp3800
g61
(dp3801
sg70
g3782
sg63
(lp3802
g56
(g77
g58
NtRp3803
(dp3804
g61
(dp3805
sg70
g3799
sg63
(lp3806
g56
(g57
g58
NtRp3807
(dp3808
g61
(dp3809
g69
I3
ssg70
g3803
sg63
(lp3810
g99
asbasbasbag56
(g72
g58
NtRp3811
(dp3812
g61
(dp3813
sg70
g3782
sg63
(lp3814
g56
(g77
g58
NtRp3815
(dp3816
g61
(dp3817
sg70
g3811
sg63
(lp3818
g56
(g57
g58
NtRp3819
(dp3820
g61
(dp3821
g69
I3
ssg70
g3815
sg63
(lp3822
S'None'
p3823
asbasbasbag56
(g72
g58
NtRp3824
(dp3825
g61
(dp3826
sg70
g3782
sg63
(lp3827
g56
(g77
g58
NtRp3828
(dp3829
g61
(dp3830
sg70
g3824
sg63
(lp3831
g56
(g57
g58
NtRp3832
(dp3833
g61
(dp3834
g69
I3
ssg70
g3828
sg63
(lp3835
g56
(g65
g58
NtRp3836
(dp3837
g61
(dp3838
g69
I2
ssg70
Nsg63
(lp3839
g56
(g72
g58
NtRp3840
(dp3841
g61
(dp3842
sg70
g3836
sg63
(lp3843
g56
(g77
g58
NtRp3844
(dp3845
g61
(dp3846
sg70
g3840
sg63
(lp3847
g56
(g57
g58
NtRp3848
(dp3849
g61
(dp3850
g69
I2
ssg70
g3844
sg63
(lp3851
g56
(g65
g58
NtRp3852
(dp3853
g61
(dp3854
g69
I1
ssg70
Nsg63
(lp3855
g56
(g72
g58
NtRp3856
(dp3857
g61
(dp3858
sg70
g3852
sg63
(lp3859
g56
(g77
g58
NtRp3860
(dp3861
g61
(dp3862
sg70
g3856
sg63
(lp3863
g56
(g57
g58
NtRp3864
(dp3865
g61
(dp3866
g69
I1
ssg70
g3860
sg63
(lp3867
g3171
(S't\r\x00\x00\x00Documentation'
tRp3868
asbasbasbag56
(g72
g58
NtRp3869
(dp3870
g61
(dp3871
sg70
g3852
sg63
(lp3872
g56
(g77
g58
NtRp3873
(dp3874
g61
(dp3875
sg70
g3869
sg63
(lp3876
g56
(g57
g58
NtRp3877
(dp3878
g61
(dp3879
g69
I1
ssg70
g3873
sg63
(lp3880
I00
asbasbasbag56
(g72
g58
NtRp3881
(dp3882
g61
(dp3883
sg70
g3852
sg63
(lp3884
g56
(g77
g58
NtRp3885
(dp3886
g61
(dp3887
sg70
g3881
sg63
(lp3888
g56
(g57
g58
NtRp3889
(dp3890
g61
(dp3891
g69
I1
ssg70
g3885
sg63
(lp3892
S'http://www.web2py.com/book'
p3893
asbasbasbag56
(g72
g58
NtRp3894
(dp3895
g61
(dp3896
sg70
g3852
sg63
(lp3897
g56
(g77
g58
NtRp3898
(dp3899
g61
(dp3900
sg70
g3894
sg63
(lp3901
g56
(g57
g58
NtRp3902
(dp3903
g61
(dp3904
g69
I1
ssg70
g3898
sg63
(lp3905
(lp3906
(g3171
(S't\x07\x00\x00\x00Preface'
tRp3907
I00
S'http://www.web2py.com/book/default/chapter/00'
tp3908
a(g3171
(S't\x0c\x00\x00\x00Introduction'
tRp3909
I00
S'http://www.web2py.com/book/default/chapter/01'
tp3910
a(g3171
(S't\x06\x00\x00\x00Python'
tRp3911
I00
S'http://www.web2py.com/book/default/chapter/02'
tp3912
a(g3171
(S't\x08\x00\x00\x00Overview'
tRp3913
I00
S'http://www.web2py.com/book/default/chapter/03'
tp3914
a(g3171
(S's\x08\x00\x00\x00The Core'
tRp3915
I00
S'http://www.web2py.com/book/default/chapter/04'
tp3916
a(g3171
(S's\t\x00\x00\x00The Views'
tRp3917
I00
S'http://www.web2py.com/book/default/chapter/05'
tp3918
a(g3171
(S't\x08\x00\x00\x00Database'
tRp3919
I00
S'http://www.web2py.com/book/default/chapter/06'
tp3920
a(g3171
(S's\x14\x00\x00\x00Forms and Validators'
tRp3921
I00
S'http://www.web2py.com/book/default/chapter/07'
tp3922
a(g3171
(S's\x0e\x00\x00\x00Access Control'
tRp3923
I00
S'http://www.web2py.com/book/default/chapter/08'
tp3924
a(g3171
(S't\x08\x00\x00\x00Services'
tRp3925
I00
S'http://www.web2py.com/book/default/chapter/09'
tp3926
a(g3171
(S's\x0c\x00\x00\x00Ajax Recipes'
tRp3927
I00
S'http://www.web2py.com/book/default/chapter/10'
tp3928
a(g3171
(S's\x12\x00\x00\x00Deployment Recipes'
tRp3929
I00
S'http://www.web2py.com/book/default/chapter/11'
tp3930
a(g3171
(S's\r\x00\x00\x00Other Recipes'
tRp3931
I00
S'http://www.web2py.com/book/default/chapter/12'
tp3932
a(g3171
(S's\r\x00\x00\x00Buy this book'
tRp3933
I00
S'http://stores.lulu.com/web2py'
tp3934
aasbasbasbasbasbasbasbag56
(g72
g58
NtRp3935
(dp3936
g61
(dp3937
sg70
g3836
sg63
(lp3938
g56
(g77
g58
NtRp3939
(dp3940
g61
(dp3941
sg70
g3935
sg63
(lp3942
g56
(g57
g58
NtRp3943
(dp3944
g61
(dp3945
g69
I2
ssg70
g3939
sg63
(lp3946
g56
(g65
g58
NtRp3947
(dp3948
g61
(dp3949
g69
I1
ssg70
Nsg63
(lp3950
g56
(g72
g58
NtRp3951
(dp3952
g61
(dp3953
sg70
g3947
sg63
(lp3954
g56
(g77
g58
NtRp3955
(dp3956
g61
(dp3957
sg70
g3951
sg63
(lp3958
g56
(g57
g58
NtRp3959
(dp3960
g61
(dp3961
g69
I1
ssg70
g3955
sg63
(lp3962
g3171
(S't\t\x00\x00\x00Community'
tRp3963
asbasbasbag56
(g72
g58
NtRp3964
(dp3965
g61
(dp3966
sg70
g3947
sg63
(lp3967
g56
(g77
g58
NtRp3968
(dp3969
g61
(dp3970
sg70
g3964
sg63
(lp3971
g56
(g57
g58
NtRp3972
(dp3973
g61
(dp3974
g69
I1
ssg70
g3968
sg63
(lp3975
I00
asbasbasbag56
(g72
g58
NtRp3976
(dp3977
g61
(dp3978
sg70
g3947
sg63
(lp3979
g56
(g77
g58
NtRp3980
(dp3981
g61
(dp3982
sg70
g3976
sg63
(lp3983
g56
(g57
g58
NtRp3984
(dp3985
g61
(dp3986
g69
I1
ssg70
g3980
sg63
(lp3987
Nasbasbasbag56
(g72
g58
NtRp3988
(dp3989
g61
(dp3990
sg70
g3947
sg63
(lp3991
g56
(g77
g58
NtRp3992
(dp3993
g61
(dp3994
sg70
g3988
sg63
(lp3995
g56
(g57
g58
NtRp3996
(dp3997
g61
(dp3998
g69
I1
ssg70
g3992
sg63
(lp3999
(lp4000
(g3171
(S't\x06\x00\x00\x00Groups'
tRp4001
I00
S'http://www.web2py.com/examples/default/usergroups'
tp4002
a(g3171
(S't\x07\x00\x00\x00Twitter'
tRp4003
I00
S'http://twitter.com/web2py'
tp4004
a(g3171
(S's\t\x00\x00\x00Live chat'
tRp4005
I00
S'http://mibbit.com/?channel=%23web2py&server=irc.mibbit.net'
tp4006
a(g3171
(S's\n\x00\x00\x00User Voice'
tRp4007
I00
S'http://web2py.uservoice.com/'
tp4008
aasbasbasbasbasbasbasbag56
(g72
g58
NtRp4009
(dp4010
g61
(dp4011
sg70
g3836
sg63
(lp4012
g56
(g77
g58
NtRp4013
(dp4014
g61
(dp4015
sg70
g4009
sg63
(lp4016
g56
(g57
g58
NtRp4017
(dp4018
g61
(dp4019
g69
I2
ssg70
g4013
sg63
(lp4020
g56
(g65
g58
NtRp4021
(dp4022
g61
(dp4023
g69
I1
ssg70
Nsg63
(lp4024
g56
(g72
g58
NtRp4025
(dp4026
g61
(dp4027
sg70
g4021
sg63
(lp4028
g56
(g77
g58
NtRp4029
(dp4030
g61
(dp4031
sg70
g4025
sg63
(lp4032
g56
(g57
g58
NtRp4033
(dp4034
g61
(dp4035
g69
I1
ssg70
g4029
sg63
(lp4036
g3171
(S't\x06\x00\x00\x00Web2py'
tRp4037
asbasbasbag56
(g72
g58
NtRp4038
(dp4039
g61
(dp4040
sg70
g4021
sg63
(lp4041
g56
(g77
g58
NtRp4042
(dp4043
g61
(dp4044
sg70
g4038
sg63
(lp4045
g56
(g57
g58
NtRp4046
(dp4047
g61
(dp4048
g69
I1
ssg70
g4042
sg63
(lp4049
I00
asbasbasbag56
(g72
g58
NtRp4050
(dp4051
g61
(dp4052
sg70
g4021
sg63
(lp4053
g56
(g77
g58
NtRp4054
(dp4055
g61
(dp4056
sg70
g4050
sg63
(lp4057
g56
(g57
g58
NtRp4058
(dp4059
g61
(dp4060
g69
I1
ssg70
g4054
sg63
(lp4061
S'http://www.web2py.com'
p4062
asbasbasbag56
(g72
g58
NtRp4063
(dp4064
g61
(dp4065
sg70
g4021
sg63
(lp4066
g56
(g77
g58
NtRp4067
(dp4068
g61
(dp4069
sg70
g4063
sg63
(lp4070
g56
(g57
g58
NtRp4071
(dp4072
g61
(dp4073
g69
I1
ssg70
g4067
sg63
(lp4074
(lp4075
(g3171
(S't\x08\x00\x00\x00Download'
tRp4076
I00
S'http://www.web2py.com/examples/default/download'
tp4077
a(g3171
(S't\x07\x00\x00\x00Support'
tRp4078
I00
S'http://www.web2py.com/examples/default/support'
tp4079
a(g3171
(S's\x0e\x00\x00\x00Quick Examples'
tRp4080
I00
S'http://web2py.com/examples/default/examples'
tp4081
a(g3171
(S't\x03\x00\x00\x00FAQ'
tRp4082
I00
S'http://web2py.com/AlterEgo'
tp4083
a(g3171
(S's\x11\x00\x00\x00Free Applications'
tRp4084
I00
S'http://web2py.com/appliances'
tp4085
a(g3171
(S't\x07\x00\x00\x00Plugins'
tRp4086
I00
S'http://web2py.com/plugins'
tp4087
a(g3171
(S't\x07\x00\x00\x00Recipes'
tRp4088
I00
S'http://web2pyslices.com/'
tp4089
a(g3171
(S't\x04\x00\x00\x00Demo'
tRp4090
I00
S'http://web2py.com/demo_admin'
tp4091
a(g3171
(S't\x08\x00\x00\x00Semantic'
tRp4092
I00
S'http://web2py.com/semantic'
tp4093
a(g3171
(S't\x07\x00\x00\x00Layouts'
tRp4094
I00
S'http://web2py.com/layouts'
tp4095
a(g3171
(S't\x06\x00\x00\x00Videos'
tRp4096
I00
S'http://www.web2py.com/examples/default/videos/'
tp4097
aasbasbasbasbasbasbasbasbasbasbasbasbasbasbasbasbasbasbasbag56
(g72
g58
NtRp4098
(dp4099
g61
(dp4100
sg70
g2666
sg63
(lp4101
g56
(g77
g58
NtRp4102
(dp4103
g61
(dp4104
g81
g82
ssg70
g4098
sg63
(lp4105
S'meta'
p4106
asbag56
(g77
g58
NtRp4107
(dp4108
g61
(dp4109
g88
g89
ssg70
g4098
sg63
(lp4110
S':'
asbag56
(g77
g58
NtRp4111
(dp4112
g61
(dp4113
sg70
g4098
sg63
(lp4114
g56
(g57
g58
NtRp4115
(dp4116
g61
(dp4117
g69
I5
ssg70
g4111
sg63
(lp4118
g56
(g65
g58
NtRp4119
(dp4120
g61
(dp4121
g69
I4
ssg70
Nsg63
(lp4122
g56
(g72
g58
NtRp4123
(dp4124
g61
(dp4125
sg70
g4119
sg63
(lp4126
g56
(g77
g58
NtRp4127
(dp4128
g61
(dp4129
g81
g82
ssg70
g4123
sg63
(lp4130
S'author'
p4131
asbag56
(g77
g58
NtRp4132
(dp4133
g61
(dp4134
g88
g89
ssg70
g4123
sg63
(lp4135
S':'
asbag56
(g77
g58
NtRp4136
(dp4137
g61
(dp4138
sg70
g4123
sg63
(lp4139
g56
(g57
g58
NtRp4140
(dp4141
g61
(dp4142
g69
I4
ssg70
g4136
sg63
(lp4143
S'you'
p4144
asbasbasbag56
(g72
g58
NtRp4145
(dp4146
g61
(dp4147
sg70
g4119
sg63
(lp4148
g56
(g77
g58
NtRp4149
(dp4150
g61
(dp4151
g81
g82
ssg70
g4145
sg63
(lp4152
S'copyright'
p4153
asbag56
(g77
g58
NtRp4154
(dp4155
g61
(dp4156
g88
g89
ssg70
g4145
sg63
(lp4157
S':'
asbag56
(g77
g58
NtRp4158
(dp4159
g61
(dp4160
sg70
g4145
sg63
(lp4161
g56
(g57
g58
NtRp4162
(dp4163
g61
(dp4164
g69
I4
ssg70
g4158
sg63
(lp4165
S'Copyright 2007-2010'
p4166
asbasbasbag56
(g72
g58
NtRp4167
(dp4168
g61
(dp4169
sg70
g4119
sg63
(lp4170
g56
(g77
g58
NtRp4171
(dp4172
g61
(dp4173
g81
g82
ssg70
g4167
sg63
(lp4174
S'description'
p4175
asbag56
(g77
g58
NtRp4176
(dp4177
g61
(dp4178
g88
g89
ssg70
g4167
sg63
(lp4179
S':'
asbag56
(g77
g58
NtRp4180
(dp4181
g61
(dp4182
sg70
g4167
sg63
(lp4183
g56
(g57
g58
NtRp4184
(dp4185
g61
(dp4186
g69
I4
ssg70
g4180
sg63
(lp4187
S'Free and open source full-stack enterprise framework for agile development of fast, scalable, secure and portable database-driven web-based applications. Written and programmable in Python'
p4188
asbasbasbag56
(g72
g58
NtRp4189
(dp4190
g61
(dp4191
sg70
g4119
sg63
(lp4192
g56
(g77
g58
NtRp4193
(dp4194
g61
(dp4195
g81
g82
ssg70
g4189
sg63
(lp4196
S'generator'
p4197
asbag56
(g77
g58
NtRp4198
(dp4199
g61
(dp4200
g88
g89
ssg70
g4189
sg63
(lp4201
S':'
asbag56
(g77
g58
NtRp4202
(dp4203
g61
(dp4204
sg70
g4189
sg63
(lp4205
g56
(g57
g58
NtRp4206
(dp4207
g61
(dp4208
g69
I4
ssg70
g4202
sg63
(lp4209
S'Web2py Enterprise Framework'
p4210
asbasbasbag56
(g72
g58
NtRp4211
(dp4212
g61
(dp4213
sg70
g4119
sg63
(lp4214
g56
(g77
g58
NtRp4215
(dp4216
g61
(dp4217
g81
g82
ssg70
g4211
sg63
(lp4218
S'keywords'
p4219
asbag56
(g77
g58
NtRp4220
(dp4221
g61
(dp4222
g88
g89
ssg70
g4211
sg63
(lp4223
S':'
asbag56
(g77
g58
NtRp4224
(dp4225
g61
(dp4226
sg70
g4211
sg63
(lp4227
g56
(g57
g58
NtRp4228
(dp4229
g61
(dp4230
g69
I4
ssg70
g4224
sg63
(lp4231
S'web2py, python, framework'
p4232
asbasbasbasbasbasbasbag56
(g72
g58
NtRp4233
(dp4234
g61
(dp4235
sg70
g2666
sg63
(lp4236
g56
(g77
g58
NtRp4237
(dp4238
g61
(dp4239
g81
g82
ssg70
g4233
sg63
(lp4240
S'postprocessing'
p4241
asbag56
(g77
g58
NtRp4242
(dp4243
g61
(dp4244
g88
g89
ssg70
g4233
sg63
(lp4245
S':'
asbag56
(g77
g58
NtRp4246
(dp4247
g61
(dp4248
sg70
g4233
sg63
(lp4249
g56
(g57
g58
NtRp4250
(dp4251
g61
(dp4252
g69
I5
ssg70
g4246
sg63
(lp4253
g56
(g65
g58
NtRp4254
(dp4255
g61
(dp4256
g69
I4
ssg70
Nsg63
(lp4257
sbasbasbasbag56
(g72
g58
NtRp4258
(dp4259
g61
(dp4260
sg70
g2666
sg63
(lp4261
g56
(g77
g58
NtRp4262
(dp4263
g61
(dp4264
g81
g82
ssg70
g4258
sg63
(lp4265
S'session_filename'
p4266
asbag56
(g77
g58
NtRp4267
(dp4268
g61
(dp4269
g88
g89
ssg70
g4258
sg63
(lp4270
S':'
asbag56
(g77
g58
NtRp4271
(dp4272
g61
(dp4273
sg70
g4258
sg63
(lp4274
g56
(g57
g58
NtRp4275
(dp4276
g61
(dp4277
g69
I5
ssg70
g4271
sg63
(lp4278
S'/Users/ilustre/development/repo/jittest/web2py/applications/infovis/sessions/127.0.0.1-86795d9e-a9bd-43d9-b75d-7a9dedf3eaf9'
p4279
asbasbasbag56
(g72
g58
NtRp4280
(dp4281
g61
(dp4282
sg70
g2666
sg63
(lp4283
g56
(g77
g58
NtRp4284
(dp4285
g61
(dp4286
g81
g82
ssg70
g4280
sg63
(lp4287
S'session_id'
p4288
asbag56
(g77
g58
NtRp4289
(dp4290
g61
(dp4291
g88
g89
ssg70
g4280
sg63
(lp4292
S':'
asbag56
(g77
g58
NtRp4293
(dp4294
g61
(dp4295
sg70
g4280
sg63
(lp4296
g56
(g57
g58
NtRp4297
(dp4298
g61
(dp4299
g69
I5
ssg70
g4293
sg63
(lp4300
S'127.0.0.1-86795d9e-a9bd-43d9-b75d-7a9dedf3eaf9'
p4301
asbasbasbag56
(g72
g58
NtRp4302
(dp4303
g61
(dp4304
sg70
g2666
sg63
(lp4305
g56
(g77
g58
NtRp4306
(dp4307
g61
(dp4308
g81
g82
ssg70
g4302
sg63
(lp4309
S'session_id_name'
p4310
asbag56
(g77
g58
NtRp4311
(dp4312
g61
(dp4313
g88
g89
ssg70
g4302
sg63
(lp4314
S':'
asbag56
(g77
g58
NtRp4315
(dp4316
g61
(dp4317
sg70
g4302
sg63
(lp4318
g56
(g57
g58
NtRp4319
(dp4320
g61
(dp4321
g69
I5
ssg70
g4315
sg63
(lp4322
g2723
asbasbasbag56
(g72
g58
NtRp4323
(dp4324
g61
(dp4325
sg70
g2666
sg63
(lp4326
g56
(g77
g58
NtRp4327
(dp4328
g61
(dp4329
g81
g82
ssg70
g4323
sg63
(lp4330
S'session_new'
p4331
asbag56
(g77
g58
NtRp4332
(dp4333
g61
(dp4334
g88
g89
ssg70
g4323
sg63
(lp4335
S':'
asbag56
(g77
g58
NtRp4336
(dp4337
g61
(dp4338
sg70
g4323
sg63
(lp4339
g56
(g57
g58
NtRp4340
(dp4341
g61
(dp4342
g69
I5
ssg70
g4336
sg63
(lp4343
g1590
asbasbasbag56
(g72
g58
NtRp4344
(dp4345
g61
(dp4346
sg70
g2666
sg63
(lp4347
g56
(g77
g58
NtRp4348
(dp4349
g61
(dp4350
g81
g82
ssg70
g4344
sg63
(lp4351
S'status'
p4352
asbag56
(g77
g58
NtRp4353
(dp4354
g61
(dp4355
g88
g89
ssg70
g4344
sg63
(lp4356
S':'
asbag56
(g77
g58
NtRp4357
(dp4358
g61
(dp4359
sg70
g4344
sg63
(lp4360
g56
(g57
g58
NtRp4361
(dp4362
g61
(dp4363
g69
I5
ssg70
g4357
sg63
(lp4364
S'200'
p4365
asbasbasbag56
(g72
g58
NtRp4366
(dp4367
g61
(dp4368
sg70
g2666
sg63
(lp4369
g56
(g77
g58
NtRp4370
(dp4371
g61
(dp4372
g81
g82
ssg70
g4366
sg63
(lp4373
S'subtitle'
p4374
asbag56
(g77
g58
NtRp4375
(dp4376
g61
(dp4377
g88
g89
ssg70
g4366
sg63
(lp4378
S':'
asbag56
(g77
g58
NtRp4379
(dp4380
g61
(dp4381
sg70
g4366
sg63
(lp4382
g56
(g57
g58
NtRp4383
(dp4384
g61
(dp4385
g69
I5
ssg70
g4379
sg63
(lp4386
g3171
(S's\r\x00\x00\x00customize me!'
tRp4387
asbasbasbag56
(g72
g58
NtRp4388
(dp4389
g61
(dp4390
sg70
g2666
sg63
(lp4391
g56
(g77
g58
NtRp4392
(dp4393
g61
(dp4394
g81
g82
ssg70
g4388
sg63
(lp4395
S'title'
p4396
asbag56
(g77
g58
NtRp4397
(dp4398
g61
(dp4399
g88
g89
ssg70
g4388
sg63
(lp4400
S':'
asbag56
(g77
g58
NtRp4401
(dp4402
g61
(dp4403
sg70
g4388
sg63
(lp4404
g56
(g57
g58
NtRp4405
(dp4406
g61
(dp4407
g69
I5
ssg70
g4401
sg63
(lp4408
g121
asbasbasbag56
(g72
g58
NtRp4409
(dp4410
g61
(dp4411
sg70
g2666
sg63
(lp4412
g56
(g77
g58
NtRp4413
(dp4414
g61
(dp4415
g81
g82
ssg70
g4409
sg63
(lp4416
g1914
asbag56
(g77
g58
NtRp4417
(dp4418
g61
(dp4419
g88
g89
ssg70
g4409
sg63
(lp4420
S':'
asbag56
(g77
g58
NtRp4421
(dp4422
g61
(dp4423
sg70
g4409
sg63
(lp4424
g56
(g57
g58
NtRp4425
(dp4426
g61
(dp4427
g69
I5
ssg70
g4421
sg63
(lp4428
g1927
asbasbasbag56
(g72
g58
NtRp4429
(dp4430
g61
(dp4431
sg70
g2666
sg63
(lp4432
g56
(g77
g58
NtRp4433
(dp4434
g61
(dp4435
g81
g82
ssg70
g4429
sg63
(lp4436
S'view'
p4437
asbag56
(g77
g58
NtRp4438
(dp4439
g61
(dp4440
g88
g89
ssg70
g4429
sg63
(lp4441
S':'
asbag56
(g77
g58
NtRp4442
(dp4443
g61
(dp4444
sg70
g4429
sg63
(lp4445
g56
(g57
g58
NtRp4446
(dp4447
g61
(dp4448
g69
I5
ssg70
g4442
sg63
(lp4449
S'visual/treemap.html'
p4450
asbasbasbasbasbsS'locals'
p4451
(dp4452
S'json'
p4453
S"<module 'json' from '/Library/Frameworks/Python....rk/Versions/2.7/lib/python2.7/json/__init__.pyc'>"
p4454
sS'r'
S'\'{\\n    "children": [\\n        {\\n            "child..."ilustreWebTest", \\n    "name": "ilustreWebTest"\\n}\''
p4455
sS't'
S"{'children': [{'children': [{'children': [{...}], 'data': {'$area': 50, '$color': '#906E32'}, 'id': 'ilustreWebTest.20110805.soqrates', 'name': 'soqrates'}], 'data': {'$area': 50, '$color': '#906E32'}, 'id': 'ilustreWebTest.20110805', 'name': '20110805'}], 'data': {'$area': 50, '$color': '#906E32'}, 'id': 'ilustreWebTest', 'name': 'ilustreWebTest'}"
p4456
sssS'traceback'
p4457
S'Traceback (most recent call last):\n  File "/Users/ilustre/development/repo/jittest/web2py/gluon/restricted.py", line 192, in restricted\n    exec ccode in environment\n  File "/Users/ilustre/development/repo/jittest/web2py/applications/infovis/controllers/visual.py", line 976, in <module>\n  File "/Users/ilustre/development/repo/jittest/web2py/gluon/globals.py", line 145, in <lambda>\n    self._caller = lambda f: f()\n  File "/Users/ilustre/development/repo/jittest/web2py/applications/infovis/controllers/visual.py", line 908, in treemap\n    return dict(message=x)\nNameError: global name \'x\' is not defined\n'
p4458
s.