(dp1
S'output'
p2
S''
sS'layer'
p3
S'/Users/ilustre/development/repo/jittest/web2py/applications/infovis/views/visual/treemap.html'
p4
sS'code'
p5
S"response.write('<h1>', escape=False)\nresponse.write(message)\nresponse.write('</h1>\\n\\n\\n', escape=False)"
p6
sS'snapshot'
p7
(dp8
S'exception'
p9
(dp10
S'__hash__'
p11
S"<method-wrapper '__hash__' of exceptions.NameError object>"
p12
sS'__setattr__'
p13
S"<method-wrapper '__setattr__' of exceptions.NameError object>"
p14
sS'__reduce_ex__'
p15
S'<built-in method __reduce_ex__ of exceptions.NameError object>'
p16
sS'__getslice__'
p17
S"<method-wrapper '__getslice__' of exceptions.NameError object>"
p18
sS'__getitem__'
p19
S"<method-wrapper '__getitem__' of exceptions.NameError object>"
p20
sS'__setstate__'
p21
S'<built-in method __setstate__ of exceptions.NameError object>'
p22
sS'args'
p23
S'("name \'message\' is not defined",)'
p24
sS'__reduce__'
p25
S'<built-in method __reduce__ of exceptions.NameError object>'
p26
sS'__str__'
p27
S"<method-wrapper '__str__' of exceptions.NameError object>"
p28
sS'__format__'
p29
S'<built-in method __format__ of exceptions.NameError object>'
p30
sS'__getattribute__'
p31
S"<method-wrapper '__getattribute__' of exceptions.NameError object>"
p32
sS'__class__'
p33
S"<type 'exceptions.NameError'>"
p34
sS'__unicode__'
p35
S'<built-in method __unicode__ of exceptions.NameError object>'
p36
sS'__delattr__'
p37
S"<method-wrapper '__delattr__' of exceptions.NameError object>"
p38
sS'__subclasshook__'
p39
S'<built-in method __subclasshook__ of type object>'
p40
sS'__repr__'
p41
S"<method-wrapper '__repr__' of exceptions.NameError object>"
p42
sS'__dict__'
p43
S'{}'
p44
sS'__sizeof__'
p45
S'<built-in method __sizeof__ of exceptions.NameError object>'
p46
sS'__doc__'
p47
S"'Name not found globally.'"
p48
sS'__init__'
p49
S"<method-wrapper '__init__' of exceptions.NameError object>"
p50
sS'__new__'
p51
S'<built-in method __new__ of type object>'
p52
ssS'evalue'
p53
S"name 'message' is not defined"
p54
sS'request'
p55
ccopy_reg
_reconstructor
p56
(cgluon.html
BEAUTIFY
p57
c__builtin__
object
p58
NtRp59
(dp60
S'attributes'
p61
(dp62
sS'components'
p63
(lp64
g56
(cgluon.html
TABLE
p65
g58
NtRp66
(dp67
g61
(dp68
S'level'
p69
I5
ssS'parent'
p70
Nsg63
(lp71
g56
(cgluon.html
TR
p72
g58
NtRp73
(dp74
g61
(dp75
sg70
g66
sg63
(lp76
g56
(cgluon.html
TD
p77
g58
NtRp78
(dp79
g61
(dp80
S'_style'
p81
S'font-weight:bold;'
p82
ssg70
g73
sg63
(lp83
S'ajax'
p84
asbag56
(g77
g58
NtRp85
(dp86
g61
(dp87
S'_valign'
p88
S'top'
p89
ssg70
g73
sg63
(lp90
S':'
asbag56
(g77
g58
NtRp91
(dp92
g61
(dp93
sg70
g73
sg63
(lp94
g56
(g57
g58
NtRp95
(dp96
g61
(dp97
g69
I5
ssg70
g91
sg63
(lp98
S'False'
p99
asbasbasbag56
(g72
g58
NtRp100
(dp101
g61
(dp102
sg70
g66
sg63
(lp103
g56
(g77
g58
NtRp104
(dp105
g61
(dp106
g81
g82
ssg70
g100
sg63
(lp107
S'application'
p108
asbag56
(g77
g58
NtRp109
(dp110
g61
(dp111
g88
g89
ssg70
g100
sg63
(lp112
S':'
asbag56
(g77
g58
NtRp113
(dp114
g61
(dp115
sg70
g100
sg63
(lp116
g56
(g57
g58
NtRp117
(dp118
g61
(dp119
g69
I5
ssg70
g113
sg63
(lp120
S'infovis'
p121
asbasbasbag56
(g72
g58
NtRp122
(dp123
g61
(dp124
sg70
g66
sg63
(lp125
g56
(g77
g58
NtRp126
(dp127
g61
(dp128
g81
g82
ssg70
g122
sg63
(lp129
g23
asbag56
(g77
g58
NtRp130
(dp131
g61
(dp132
g88
g89
ssg70
g122
sg63
(lp133
S':'
asbag56
(g77
g58
NtRp134
(dp135
g61
(dp136
sg70
g122
sg63
(lp137
g56
(g57
g58
NtRp138
(dp139
g61
(dp140
g69
I5
ssg70
g134
sg63
(lp141
g56
(g65
g58
NtRp142
(dp143
g61
(dp144
g69
I4
ssg70
Nsg63
(lp145
sbasbasbasbag56
(g72
g58
NtRp146
(dp147
g61
(dp148
sg70
g66
sg63
(lp149
g56
(g77
g58
NtRp150
(dp151
g61
(dp152
g81
g82
ssg70
g146
sg63
(lp153
S'body'
p154
asbag56
(g77
g58
NtRp155
(dp156
g61
(dp157
g88
g89
ssg70
g146
sg63
(lp158
S':'
asbag56
(g77
g58
NtRp159
(dp160
g61
(dp161
sg70
g146
sg63
(lp162
g56
(g57
g58
NtRp163
(dp164
g61
(dp165
g69
I5
ssg70
g159
sg63
(lp166
S'<cStringIO.StringO object at 0x101521bc8>'
p167
asbasbasbag56
(g72
g58
NtRp168
(dp169
g61
(dp170
sg70
g66
sg63
(lp171
g56
(g77
g58
NtRp172
(dp173
g61
(dp174
g81
g82
ssg70
g168
sg63
(lp175
S'client'
p176
asbag56
(g77
g58
NtRp177
(dp178
g61
(dp179
g88
g89
ssg70
g168
sg63
(lp180
S':'
asbag56
(g77
g58
NtRp181
(dp182
g61
(dp183
sg70
g168
sg63
(lp184
g56
(g57
g58
NtRp185
(dp186
g61
(dp187
g69
I5
ssg70
g181
sg63
(lp188
S'127.0.0.1'
p189
asbasbasbag56
(g72
g58
NtRp190
(dp191
g61
(dp192
sg70
g66
sg63
(lp193
g56
(g77
g58
NtRp194
(dp195
g61
(dp196
g81
g82
ssg70
g190
sg63
(lp197
S'controller'
p198
asbag56
(g77
g58
NtRp199
(dp200
g61
(dp201
g88
g89
ssg70
g190
sg63
(lp202
S':'
asbag56
(g77
g58
NtRp203
(dp204
g61
(dp205
sg70
g190
sg63
(lp206
g56
(g57
g58
NtRp207
(dp208
g61
(dp209
g69
I5
ssg70
g203
sg63
(lp210
S'visual'
p211
asbasbasbag56
(g72
g58
NtRp212
(dp213
g61
(dp214
sg70
g66
sg63
(lp215
g56
(g77
g58
NtRp216
(dp217
g61
(dp218
g81
g82
ssg70
g212
sg63
(lp219
S'cookies'
p220
asbag56
(g77
g58
NtRp221
(dp222
g61
(dp223
g88
g89
ssg70
g212
sg63
(lp224
S':'
asbag56
(g77
g58
NtRp225
(dp226
g61
(dp227
sg70
g212
sg63
(lp228
g56
(g57
g58
NtRp229
(dp230
g61
(dp231
g69
I5
ssg70
g225
sg63
(lp232
g56
(g65
g58
NtRp233
(dp234
g61
(dp235
g69
I4
ssg70
Nsg63
(lp236
g56
(g72
g58
NtRp237
(dp238
g61
(dp239
sg70
g233
sg63
(lp240
g56
(g77
g58
NtRp241
(dp242
g61
(dp243
g81
g82
ssg70
g237
sg63
(lp244
S'session_id_admin'
p245
asbag56
(g77
g58
NtRp246
(dp247
g61
(dp248
g88
g89
ssg70
g237
sg63
(lp249
S':'
asbag56
(g77
g58
NtRp250
(dp251
g61
(dp252
sg70
g237
sg63
(lp253
g56
(g57
g58
NtRp254
(dp255
g61
(dp256
g69
I4
ssg70
g250
sg63
(lp257
g56
(g65
g58
NtRp258
(dp259
g61
(dp260
g69
I3
ssg70
Nsg63
(lp261
g56
(g72
g58
NtRp262
(dp263
g61
(dp264
sg70
g258
sg63
(lp265
g56
(g77
g58
NtRp266
(dp267
g61
(dp268
g81
g82
ssg70
g262
sg63
(lp269
S'comment'
p270
asbag56
(g77
g58
NtRp271
(dp272
g61
(dp273
g88
g89
ssg70
g262
sg63
(lp274
S':'
asbag56
(g77
g58
NtRp275
(dp276
g61
(dp277
sg70
g262
sg63
(lp278
g56
(g57
g58
NtRp279
(dp280
g61
(dp281
g69
I3
ssg70
g275
sg63
(lp282
S''
asbasbasbag56
(g72
g58
NtRp283
(dp284
g61
(dp285
sg70
g258
sg63
(lp286
g56
(g77
g58
NtRp287
(dp288
g61
(dp289
g81
g82
ssg70
g283
sg63
(lp290
S'domain'
p291
asbag56
(g77
g58
NtRp292
(dp293
g61
(dp294
g88
g89
ssg70
g283
sg63
(lp295
S':'
asbag56
(g77
g58
NtRp296
(dp297
g61
(dp298
sg70
g283
sg63
(lp299
g56
(g57
g58
NtRp300
(dp301
g61
(dp302
g69
I3
ssg70
g296
sg63
(lp303
S''
asbasbasbag56
(g72
g58
NtRp304
(dp305
g61
(dp306
sg70
g258
sg63
(lp307
g56
(g77
g58
NtRp308
(dp309
g61
(dp310
g81
g82
ssg70
g304
sg63
(lp311
S'expires'
p312
asbag56
(g77
g58
NtRp313
(dp314
g61
(dp315
g88
g89
ssg70
g304
sg63
(lp316
S':'
asbag56
(g77
g58
NtRp317
(dp318
g61
(dp319
sg70
g304
sg63
(lp320
g56
(g57
g58
NtRp321
(dp322
g61
(dp323
g69
I3
ssg70
g317
sg63
(lp324
S''
asbasbasbag56
(g72
g58
NtRp325
(dp326
g61
(dp327
sg70
g258
sg63
(lp328
g56
(g77
g58
NtRp329
(dp330
g61
(dp331
g81
g82
ssg70
g325
sg63
(lp332
S'httponly'
p333
asbag56
(g77
g58
NtRp334
(dp335
g61
(dp336
g88
g89
ssg70
g325
sg63
(lp337
S':'
asbag56
(g77
g58
NtRp338
(dp339
g61
(dp340
sg70
g325
sg63
(lp341
g56
(g57
g58
NtRp342
(dp343
g61
(dp344
g69
I3
ssg70
g338
sg63
(lp345
S''
asbasbasbag56
(g72
g58
NtRp346
(dp347
g61
(dp348
sg70
g258
sg63
(lp349
g56
(g77
g58
NtRp350
(dp351
g61
(dp352
g81
g82
ssg70
g346
sg63
(lp353
S'max-age'
p354
asbag56
(g77
g58
NtRp355
(dp356
g61
(dp357
g88
g89
ssg70
g346
sg63
(lp358
S':'
asbag56
(g77
g58
NtRp359
(dp360
g61
(dp361
sg70
g346
sg63
(lp362
g56
(g57
g58
NtRp363
(dp364
g61
(dp365
g69
I3
ssg70
g359
sg63
(lp366
S''
asbasbasbag56
(g72
g58
NtRp367
(dp368
g61
(dp369
sg70
g258
sg63
(lp370
g56
(g77
g58
NtRp371
(dp372
g61
(dp373
g81
g82
ssg70
g367
sg63
(lp374
S'path'
p375
asbag56
(g77
g58
NtRp376
(dp377
g61
(dp378
g88
g89
ssg70
g367
sg63
(lp379
S':'
asbag56
(g77
g58
NtRp380
(dp381
g61
(dp382
sg70
g367
sg63
(lp383
g56
(g57
g58
NtRp384
(dp385
g61
(dp386
g69
I3
ssg70
g380
sg63
(lp387
S''
asbasbasbag56
(g72
g58
NtRp388
(dp389
g61
(dp390
sg70
g258
sg63
(lp391
g56
(g77
g58
NtRp392
(dp393
g61
(dp394
g81
g82
ssg70
g388
sg63
(lp395
S'secure'
p396
asbag56
(g77
g58
NtRp397
(dp398
g61
(dp399
g88
g89
ssg70
g388
sg63
(lp400
S':'
asbag56
(g77
g58
NtRp401
(dp402
g61
(dp403
sg70
g388
sg63
(lp404
g56
(g57
g58
NtRp405
(dp406
g61
(dp407
g69
I3
ssg70
g401
sg63
(lp408
S''
asbasbasbag56
(g72
g58
NtRp409
(dp410
g61
(dp411
sg70
g258
sg63
(lp412
g56
(g77
g58
NtRp413
(dp414
g61
(dp415
g81
g82
ssg70
g409
sg63
(lp416
S'version'
p417
asbag56
(g77
g58
NtRp418
(dp419
g61
(dp420
g88
g89
ssg70
g409
sg63
(lp421
S':'
asbag56
(g77
g58
NtRp422
(dp423
g61
(dp424
sg70
g409
sg63
(lp425
g56
(g57
g58
NtRp426
(dp427
g61
(dp428
g69
I3
ssg70
g422
sg63
(lp429
S''
asbasbasbasbasbasbasbag56
(g72
g58
NtRp430
(dp431
g61
(dp432
sg70
g233
sg63
(lp433
g56
(g77
g58
NtRp434
(dp435
g61
(dp436
g81
g82
ssg70
g430
sg63
(lp437
S'session_id_infovis'
p438
asbag56
(g77
g58
NtRp439
(dp440
g61
(dp441
g88
g89
ssg70
g430
sg63
(lp442
S':'
asbag56
(g77
g58
NtRp443
(dp444
g61
(dp445
sg70
g430
sg63
(lp446
g56
(g57
g58
NtRp447
(dp448
g61
(dp449
g69
I4
ssg70
g443
sg63
(lp450
g56
(g65
g58
NtRp451
(dp452
g61
(dp453
g69
I3
ssg70
Nsg63
(lp454
g56
(g72
g58
NtRp455
(dp456
g61
(dp457
sg70
g451
sg63
(lp458
g56
(g77
g58
NtRp459
(dp460
g61
(dp461
g81
g82
ssg70
g455
sg63
(lp462
g270
asbag56
(g77
g58
NtRp463
(dp464
g61
(dp465
g88
g89
ssg70
g455
sg63
(lp466
S':'
asbag56
(g77
g58
NtRp467
(dp468
g61
(dp469
sg70
g455
sg63
(lp470
g56
(g57
g58
NtRp471
(dp472
g61
(dp473
g69
I3
ssg70
g467
sg63
(lp474
S''
asbasbasbag56
(g72
g58
NtRp475
(dp476
g61
(dp477
sg70
g451
sg63
(lp478
g56
(g77
g58
NtRp479
(dp480
g61
(dp481
g81
g82
ssg70
g475
sg63
(lp482
g291
asbag56
(g77
g58
NtRp483
(dp484
g61
(dp485
g88
g89
ssg70
g475
sg63
(lp486
S':'
asbag56
(g77
g58
NtRp487
(dp488
g61
(dp489
sg70
g475
sg63
(lp490
g56
(g57
g58
NtRp491
(dp492
g61
(dp493
g69
I3
ssg70
g487
sg63
(lp494
S''
asbasbasbag56
(g72
g58
NtRp495
(dp496
g61
(dp497
sg70
g451
sg63
(lp498
g56
(g77
g58
NtRp499
(dp500
g61
(dp501
g81
g82
ssg70
g495
sg63
(lp502
g312
asbag56
(g77
g58
NtRp503
(dp504
g61
(dp505
g88
g89
ssg70
g495
sg63
(lp506
S':'
asbag56
(g77
g58
NtRp507
(dp508
g61
(dp509
sg70
g495
sg63
(lp510
g56
(g57
g58
NtRp511
(dp512
g61
(dp513
g69
I3
ssg70
g507
sg63
(lp514
S''
asbasbasbag56
(g72
g58
NtRp515
(dp516
g61
(dp517
sg70
g451
sg63
(lp518
g56
(g77
g58
NtRp519
(dp520
g61
(dp521
g81
g82
ssg70
g515
sg63
(lp522
g333
asbag56
(g77
g58
NtRp523
(dp524
g61
(dp525
g88
g89
ssg70
g515
sg63
(lp526
S':'
asbag56
(g77
g58
NtRp527
(dp528
g61
(dp529
sg70
g515
sg63
(lp530
g56
(g57
g58
NtRp531
(dp532
g61
(dp533
g69
I3
ssg70
g527
sg63
(lp534
S''
asbasbasbag56
(g72
g58
NtRp535
(dp536
g61
(dp537
sg70
g451
sg63
(lp538
g56
(g77
g58
NtRp539
(dp540
g61
(dp541
g81
g82
ssg70
g535
sg63
(lp542
g354
asbag56
(g77
g58
NtRp543
(dp544
g61
(dp545
g88
g89
ssg70
g535
sg63
(lp546
S':'
asbag56
(g77
g58
NtRp547
(dp548
g61
(dp549
sg70
g535
sg63
(lp550
g56
(g57
g58
NtRp551
(dp552
g61
(dp553
g69
I3
ssg70
g547
sg63
(lp554
S''
asbasbasbag56
(g72
g58
NtRp555
(dp556
g61
(dp557
sg70
g451
sg63
(lp558
g56
(g77
g58
NtRp559
(dp560
g61
(dp561
g81
g82
ssg70
g555
sg63
(lp562
g375
asbag56
(g77
g58
NtRp563
(dp564
g61
(dp565
g88
g89
ssg70
g555
sg63
(lp566
S':'
asbag56
(g77
g58
NtRp567
(dp568
g61
(dp569
sg70
g555
sg63
(lp570
g56
(g57
g58
NtRp571
(dp572
g61
(dp573
g69
I3
ssg70
g567
sg63
(lp574
S''
asbasbasbag56
(g72
g58
NtRp575
(dp576
g61
(dp577
sg70
g451
sg63
(lp578
g56
(g77
g58
NtRp579
(dp580
g61
(dp581
g81
g82
ssg70
g575
sg63
(lp582
g396
asbag56
(g77
g58
NtRp583
(dp584
g61
(dp585
g88
g89
ssg70
g575
sg63
(lp586
S':'
asbag56
(g77
g58
NtRp587
(dp588
g61
(dp589
sg70
g575
sg63
(lp590
g56
(g57
g58
NtRp591
(dp592
g61
(dp593
g69
I3
ssg70
g587
sg63
(lp594
S''
asbasbasbag56
(g72
g58
NtRp595
(dp596
g61
(dp597
sg70
g451
sg63
(lp598
g56
(g77
g58
NtRp599
(dp600
g61
(dp601
g81
g82
ssg70
g595
sg63
(lp602
g417
asbag56
(g77
g58
NtRp603
(dp604
g61
(dp605
g88
g89
ssg70
g595
sg63
(lp606
S':'
asbag56
(g77
g58
NtRp607
(dp608
g61
(dp609
sg70
g595
sg63
(lp610
g56
(g57
g58
NtRp611
(dp612
g61
(dp613
g69
I3
ssg70
g607
sg63
(lp614
S''
asbasbasbasbasbasbasbag56
(g72
g58
NtRp615
(dp616
g61
(dp617
sg70
g233
sg63
(lp618
g56
(g77
g58
NtRp619
(dp620
g61
(dp621
g81
g82
ssg70
g615
sg63
(lp622
S'session_id_welcome'
p623
asbag56
(g77
g58
NtRp624
(dp625
g61
(dp626
g88
g89
ssg70
g615
sg63
(lp627
S':'
asbag56
(g77
g58
NtRp628
(dp629
g61
(dp630
sg70
g615
sg63
(lp631
g56
(g57
g58
NtRp632
(dp633
g61
(dp634
g69
I4
ssg70
g628
sg63
(lp635
g56
(g65
g58
NtRp636
(dp637
g61
(dp638
g69
I3
ssg70
Nsg63
(lp639
g56
(g72
g58
NtRp640
(dp641
g61
(dp642
sg70
g636
sg63
(lp643
g56
(g77
g58
NtRp644
(dp645
g61
(dp646
g81
g82
ssg70
g640
sg63
(lp647
g270
asbag56
(g77
g58
NtRp648
(dp649
g61
(dp650
g88
g89
ssg70
g640
sg63
(lp651
S':'
asbag56
(g77
g58
NtRp652
(dp653
g61
(dp654
sg70
g640
sg63
(lp655
g56
(g57
g58
NtRp656
(dp657
g61
(dp658
g69
I3
ssg70
g652
sg63
(lp659
S''
asbasbasbag56
(g72
g58
NtRp660
(dp661
g61
(dp662
sg70
g636
sg63
(lp663
g56
(g77
g58
NtRp664
(dp665
g61
(dp666
g81
g82
ssg70
g660
sg63
(lp667
g291
asbag56
(g77
g58
NtRp668
(dp669
g61
(dp670
g88
g89
ssg70
g660
sg63
(lp671
S':'
asbag56
(g77
g58
NtRp672
(dp673
g61
(dp674
sg70
g660
sg63
(lp675
g56
(g57
g58
NtRp676
(dp677
g61
(dp678
g69
I3
ssg70
g672
sg63
(lp679
S''
asbasbasbag56
(g72
g58
NtRp680
(dp681
g61
(dp682
sg70
g636
sg63
(lp683
g56
(g77
g58
NtRp684
(dp685
g61
(dp686
g81
g82
ssg70
g680
sg63
(lp687
g312
asbag56
(g77
g58
NtRp688
(dp689
g61
(dp690
g88
g89
ssg70
g680
sg63
(lp691
S':'
asbag56
(g77
g58
NtRp692
(dp693
g61
(dp694
sg70
g680
sg63
(lp695
g56
(g57
g58
NtRp696
(dp697
g61
(dp698
g69
I3
ssg70
g692
sg63
(lp699
S''
asbasbasbag56
(g72
g58
NtRp700
(dp701
g61
(dp702
sg70
g636
sg63
(lp703
g56
(g77
g58
NtRp704
(dp705
g61
(dp706
g81
g82
ssg70
g700
sg63
(lp707
g333
asbag56
(g77
g58
NtRp708
(dp709
g61
(dp710
g88
g89
ssg70
g700
sg63
(lp711
S':'
asbag56
(g77
g58
NtRp712
(dp713
g61
(dp714
sg70
g700
sg63
(lp715
g56
(g57
g58
NtRp716
(dp717
g61
(dp718
g69
I3
ssg70
g712
sg63
(lp719
S''
asbasbasbag56
(g72
g58
NtRp720
(dp721
g61
(dp722
sg70
g636
sg63
(lp723
g56
(g77
g58
NtRp724
(dp725
g61
(dp726
g81
g82
ssg70
g720
sg63
(lp727
g354
asbag56
(g77
g58
NtRp728
(dp729
g61
(dp730
g88
g89
ssg70
g720
sg63
(lp731
S':'
asbag56
(g77
g58
NtRp732
(dp733
g61
(dp734
sg70
g720
sg63
(lp735
g56
(g57
g58
NtRp736
(dp737
g61
(dp738
g69
I3
ssg70
g732
sg63
(lp739
S''
asbasbasbag56
(g72
g58
NtRp740
(dp741
g61
(dp742
sg70
g636
sg63
(lp743
g56
(g77
g58
NtRp744
(dp745
g61
(dp746
g81
g82
ssg70
g740
sg63
(lp747
g375
asbag56
(g77
g58
NtRp748
(dp749
g61
(dp750
g88
g89
ssg70
g740
sg63
(lp751
S':'
asbag56
(g77
g58
NtRp752
(dp753
g61
(dp754
sg70
g740
sg63
(lp755
g56
(g57
g58
NtRp756
(dp757
g61
(dp758
g69
I3
ssg70
g752
sg63
(lp759
S''
asbasbasbag56
(g72
g58
NtRp760
(dp761
g61
(dp762
sg70
g636
sg63
(lp763
g56
(g77
g58
NtRp764
(dp765
g61
(dp766
g81
g82
ssg70
g760
sg63
(lp767
g396
asbag56
(g77
g58
NtRp768
(dp769
g61
(dp770
g88
g89
ssg70
g760
sg63
(lp771
S':'
asbag56
(g77
g58
NtRp772
(dp773
g61
(dp774
sg70
g760
sg63
(lp775
g56
(g57
g58
NtRp776
(dp777
g61
(dp778
g69
I3
ssg70
g772
sg63
(lp779
S''
asbasbasbag56
(g72
g58
NtRp780
(dp781
g61
(dp782
sg70
g636
sg63
(lp783
g56
(g77
g58
NtRp784
(dp785
g61
(dp786
g81
g82
ssg70
g780
sg63
(lp787
g417
asbag56
(g77
g58
NtRp788
(dp789
g61
(dp790
g88
g89
ssg70
g780
sg63
(lp791
S':'
asbag56
(g77
g58
NtRp792
(dp793
g61
(dp794
sg70
g780
sg63
(lp795
g56
(g57
g58
NtRp796
(dp797
g61
(dp798
g69
I3
ssg70
g792
sg63
(lp799
S''
asbasbasbasbasbasbasbasbasbasbasbag56
(g72
g58
NtRp800
(dp801
g61
(dp802
sg70
g66
sg63
(lp803
g56
(g77
g58
NtRp804
(dp805
g61
(dp806
g81
g82
ssg70
g800
sg63
(lp807
S'env'
p808
asbag56
(g77
g58
NtRp809
(dp810
g61
(dp811
g88
g89
ssg70
g800
sg63
(lp812
S':'
asbag56
(g77
g58
NtRp813
(dp814
g61
(dp815
sg70
g800
sg63
(lp816
g56
(g57
g58
NtRp817
(dp818
g61
(dp819
g69
I5
ssg70
g813
sg63
(lp820
g56
(g65
g58
NtRp821
(dp822
g61
(dp823
g69
I4
ssg70
Nsg63
(lp824
g56
(g72
g58
NtRp825
(dp826
g61
(dp827
sg70
g821
sg63
(lp828
g56
(g77
g58
NtRp829
(dp830
g61
(dp831
g81
g82
ssg70
g825
sg63
(lp832
S'app_folders'
p833
asbag56
(g77
g58
NtRp834
(dp835
g61
(dp836
g88
g89
ssg70
g825
sg63
(lp837
S':'
asbag56
(g77
g58
NtRp838
(dp839
g61
(dp840
sg70
g825
sg63
(lp841
g56
(g57
g58
NtRp842
(dp843
g61
(dp844
g69
I4
ssg70
g838
sg63
(lp845
S"set(['/Users/ilustre/development/repo/jittest/web2py/applications/admin/', '/Users/ilustre/development/repo/jittest/web2py/applications/welcome/', '/Users/ilustre/development/repo/jittest/web2py/applications/infovis/'])"
p846
asbasbasbag56
(g72
g58
NtRp847
(dp848
g61
(dp849
sg70
g821
sg63
(lp850
g56
(g77
g58
NtRp851
(dp852
g61
(dp853
g81
g82
ssg70
g847
sg63
(lp854
S'applications_parent'
p855
asbag56
(g77
g58
NtRp856
(dp857
g61
(dp858
g88
g89
ssg70
g847
sg63
(lp859
S':'
asbag56
(g77
g58
NtRp860
(dp861
g61
(dp862
sg70
g847
sg63
(lp863
g56
(g57
g58
NtRp864
(dp865
g61
(dp866
g69
I4
ssg70
g860
sg63
(lp867
S'/Users/ilustre/development/repo/jittest/web2py'
p868
asbasbasbag56
(g72
g58
NtRp869
(dp870
g61
(dp871
sg70
g821
sg63
(lp872
g56
(g77
g58
NtRp873
(dp874
g61
(dp875
g81
g82
ssg70
g869
sg63
(lp876
S'cmd_args'
p877
asbag56
(g77
g58
NtRp878
(dp879
g61
(dp880
g88
g89
ssg70
g869
sg63
(lp881
S':'
asbag56
(g77
g58
NtRp882
(dp883
g61
(dp884
sg70
g869
sg63
(lp885
g56
(g57
g58
NtRp886
(dp887
g61
(dp888
g69
I4
ssg70
g882
sg63
(lp889
g56
(g65
g58
NtRp890
(dp891
g61
(dp892
g69
I3
ssg70
Nsg63
(lp893
sbasbasbasbag56
(g72
g58
NtRp894
(dp895
g61
(dp896
sg70
g821
sg63
(lp897
g56
(g77
g58
NtRp898
(dp899
g61
(dp900
g81
g82
ssg70
g894
sg63
(lp901
S'cmd_options'
p902
asbag56
(g77
g58
NtRp903
(dp904
g61
(dp905
g88
g89
ssg70
g894
sg63
(lp906
S':'
asbag56
(g77
g58
NtRp907
(dp908
g61
(dp909
sg70
g894
sg63
(lp910
g56
(g57
g58
NtRp911
(dp912
g61
(dp913
g69
I4
ssg70
g907
sg63
(lp914
S"<Values at 0x1014a8050: {'verbose': False, 'ip': '127.0.0.1', 'shutdown_timeout': 5, 'taskbar': False, 'port': 8000, 'maxthreads': None, 'softcron': False, 'server_name': 'ilustrepro.local', 'bpython': False, 'nogui': False, 'nocron': False, 'extcron': False, 'debuglevel': 30, 'test': None, 'folder': '/Users/ilustre/development/repo/jittest/web2py', 'config': '', 'import_models': False, 'winservice': '', 'shell': None, 'run': '', 'log_filename': 'httpserver.log', 'args': [''], 'profiler_filename': None, 'ssl_private_key': '', 'password': 'admin', 'request_queue_size': 5, 'ssl_certificate': '', 'cronjob': False, 'plain': False, 'quiet': False, 'interfaces': None, 'minthreads': None, 'timeout': 10, 'numthreads': None, 'nobanner': False, 'pid_filename': 'httpserver.pid'}>"
p915
asbasbasbag56
(g72
g58
NtRp916
(dp917
g61
(dp918
sg70
g821
sg63
(lp919
g56
(g77
g58
NtRp920
(dp921
g61
(dp922
g81
g82
ssg70
g916
sg63
(lp923
S'db_sessions'
p924
asbag56
(g77
g58
NtRp925
(dp926
g61
(dp927
g88
g89
ssg70
g916
sg63
(lp928
S':'
asbag56
(g77
g58
NtRp929
(dp930
g61
(dp931
sg70
g916
sg63
(lp932
g56
(g57
g58
NtRp933
(dp934
g61
(dp935
g69
I4
ssg70
g929
sg63
(lp936
S'set([])'
p937
asbasbasbag56
(g72
g58
NtRp938
(dp939
g61
(dp940
sg70
g821
sg63
(lp941
g56
(g77
g58
NtRp942
(dp943
g61
(dp944
g81
g82
ssg70
g938
sg63
(lp945
S'debugging'
p946
asbag56
(g77
g58
NtRp947
(dp948
g61
(dp949
g88
g89
ssg70
g938
sg63
(lp950
S':'
asbag56
(g77
g58
NtRp951
(dp952
g61
(dp953
sg70
g938
sg63
(lp954
g56
(g57
g58
NtRp955
(dp956
g61
(dp957
g69
I4
ssg70
g951
sg63
(lp958
g99
asbasbasbag56
(g72
g58
NtRp959
(dp960
g61
(dp961
sg70
g821
sg63
(lp962
g56
(g77
g58
NtRp963
(dp964
g61
(dp965
g81
g82
ssg70
g959
sg63
(lp966
S'gluon_parent'
p967
asbag56
(g77
g58
NtRp968
(dp969
g61
(dp970
g88
g89
ssg70
g959
sg63
(lp971
S':'
asbag56
(g77
g58
NtRp972
(dp973
g61
(dp974
sg70
g959
sg63
(lp975
g56
(g57
g58
NtRp976
(dp977
g61
(dp978
g69
I4
ssg70
g972
sg63
(lp979
S'/Users/ilustre/development/repo/jittest/web2py'
p980
asbasbasbag56
(g72
g58
NtRp981
(dp982
g61
(dp983
sg70
g821
sg63
(lp984
g56
(g77
g58
NtRp985
(dp986
g61
(dp987
g81
g82
ssg70
g981
sg63
(lp988
S'http_accept'
p989
asbag56
(g77
g58
NtRp990
(dp991
g61
(dp992
g88
g89
ssg70
g981
sg63
(lp993
S':'
asbag56
(g77
g58
NtRp994
(dp995
g61
(dp996
sg70
g981
sg63
(lp997
g56
(g57
g58
NtRp998
(dp999
g61
(dp1000
g69
I4
ssg70
g994
sg63
(lp1001
S'application/xml,application/xhtml+xml,text/html;q=0.9,text/plain;q=0.8,image/png,*/*;q=0.5'
p1002
asbasbasbag56
(g72
g58
NtRp1003
(dp1004
g61
(dp1005
sg70
g821
sg63
(lp1006
g56
(g77
g58
NtRp1007
(dp1008
g61
(dp1009
g81
g82
ssg70
g1003
sg63
(lp1010
S'http_accept_encoding'
p1011
asbag56
(g77
g58
NtRp1012
(dp1013
g61
(dp1014
g88
g89
ssg70
g1003
sg63
(lp1015
S':'
asbag56
(g77
g58
NtRp1016
(dp1017
g61
(dp1018
sg70
g1003
sg63
(lp1019
g56
(g57
g58
NtRp1020
(dp1021
g61
(dp1022
g69
I4
ssg70
g1016
sg63
(lp1023
S'gzip, deflate'
p1024
asbasbasbag56
(g72
g58
NtRp1025
(dp1026
g61
(dp1027
sg70
g821
sg63
(lp1028
g56
(g77
g58
NtRp1029
(dp1030
g61
(dp1031
g81
g82
ssg70
g1025
sg63
(lp1032
S'http_accept_language'
p1033
asbag56
(g77
g58
NtRp1034
(dp1035
g61
(dp1036
g88
g89
ssg70
g1025
sg63
(lp1037
S':'
asbag56
(g77
g58
NtRp1038
(dp1039
g61
(dp1040
sg70
g1025
sg63
(lp1041
g56
(g57
g58
NtRp1042
(dp1043
g61
(dp1044
g69
I4
ssg70
g1038
sg63
(lp1045
S'en-us'
p1046
asbasbasbag56
(g72
g58
NtRp1047
(dp1048
g61
(dp1049
sg70
g821
sg63
(lp1050
g56
(g77
g58
NtRp1051
(dp1052
g61
(dp1053
g81
g82
ssg70
g1047
sg63
(lp1054
S'http_connection'
p1055
asbag56
(g77
g58
NtRp1056
(dp1057
g61
(dp1058
g88
g89
ssg70
g1047
sg63
(lp1059
S':'
asbag56
(g77
g58
NtRp1060
(dp1061
g61
(dp1062
sg70
g1047
sg63
(lp1063
g56
(g57
g58
NtRp1064
(dp1065
g61
(dp1066
g69
I4
ssg70
g1060
sg63
(lp1067
S'keep-alive'
p1068
asbasbasbag56
(g72
g58
NtRp1069
(dp1070
g61
(dp1071
sg70
g821
sg63
(lp1072
g56
(g77
g58
NtRp1073
(dp1074
g61
(dp1075
g81
g82
ssg70
g1069
sg63
(lp1076
S'http_cookie'
p1077
asbag56
(g77
g58
NtRp1078
(dp1079
g61
(dp1080
g88
g89
ssg70
g1069
sg63
(lp1081
S':'
asbag56
(g77
g58
NtRp1082
(dp1083
g61
(dp1084
sg70
g1069
sg63
(lp1085
g56
(g57
g58
NtRp1086
(dp1087
g61
(dp1088
g69
I4
ssg70
g1082
sg63
(lp1089
S'session_id_infovis=127.0.0.1-053e4ce5-f5fc-47c7-88c5-1b5ce3f2c7c1; session_id_welcome=127.0.0.1-0e8fcbea-bf06-4a8c-84a0-d018c3438ac1; session_id_admin=127.0.0.1-fd2cd27e-9800-4c04-9410-9b56f1dece75'
p1090
asbasbasbag56
(g72
g58
NtRp1091
(dp1092
g61
(dp1093
sg70
g821
sg63
(lp1094
g56
(g77
g58
NtRp1095
(dp1096
g61
(dp1097
g81
g82
ssg70
g1091
sg63
(lp1098
S'http_host'
p1099
asbag56
(g77
g58
NtRp1100
(dp1101
g61
(dp1102
g88
g89
ssg70
g1091
sg63
(lp1103
S':'
asbag56
(g77
g58
NtRp1104
(dp1105
g61
(dp1106
sg70
g1091
sg63
(lp1107
g56
(g57
g58
NtRp1108
(dp1109
g61
(dp1110
g69
I4
ssg70
g1104
sg63
(lp1111
S'localhost:8000'
p1112
asbasbasbag56
(g72
g58
NtRp1113
(dp1114
g61
(dp1115
sg70
g821
sg63
(lp1116
g56
(g77
g58
NtRp1117
(dp1118
g61
(dp1119
g81
g82
ssg70
g1113
sg63
(lp1120
S'http_user_agent'
p1121
asbag56
(g77
g58
NtRp1122
(dp1123
g61
(dp1124
g88
g89
ssg70
g1113
sg63
(lp1125
S':'
asbag56
(g77
g58
NtRp1126
(dp1127
g61
(dp1128
sg70
g1113
sg63
(lp1129
g56
(g57
g58
NtRp1130
(dp1131
g61
(dp1132
g69
I4
ssg70
g1126
sg63
(lp1133
S'Mozilla/5.0 (Macintosh; U; Intel Mac OS X 10_6_8; en-us) AppleWebKit/533.21.1 (KHTML, like Gecko) Version/5.0.5 Safari/533.21.1'
p1134
asbasbasbag56
(g72
g58
NtRp1135
(dp1136
g61
(dp1137
sg70
g821
sg63
(lp1138
g56
(g77
g58
NtRp1139
(dp1140
g61
(dp1141
g81
g82
ssg70
g1135
sg63
(lp1142
S'is_jython'
p1143
asbag56
(g77
g58
NtRp1144
(dp1145
g61
(dp1146
g88
g89
ssg70
g1135
sg63
(lp1147
S':'
asbag56
(g77
g58
NtRp1148
(dp1149
g61
(dp1150
sg70
g1135
sg63
(lp1151
g56
(g57
g58
NtRp1152
(dp1153
g61
(dp1154
g69
I4
ssg70
g1148
sg63
(lp1155
g99
asbasbasbag56
(g72
g58
NtRp1156
(dp1157
g61
(dp1158
sg70
g821
sg63
(lp1159
g56
(g77
g58
NtRp1160
(dp1161
g61
(dp1162
g81
g82
ssg70
g1156
sg63
(lp1163
S'path_info'
p1164
asbag56
(g77
g58
NtRp1165
(dp1166
g61
(dp1167
g88
g89
ssg70
g1156
sg63
(lp1168
S':'
asbag56
(g77
g58
NtRp1169
(dp1170
g61
(dp1171
sg70
g1156
sg63
(lp1172
g56
(g57
g58
NtRp1173
(dp1174
g61
(dp1175
g69
I4
ssg70
g1169
sg63
(lp1176
S'/infovis/visual/treemap.html'
p1177
asbasbasbag56
(g72
g58
NtRp1178
(dp1179
g61
(dp1180
sg70
g821
sg63
(lp1181
g56
(g77
g58
NtRp1182
(dp1183
g61
(dp1184
g81
g82
ssg70
g1178
sg63
(lp1185
S'query_string'
p1186
asbag56
(g77
g58
NtRp1187
(dp1188
g61
(dp1189
g88
g89
ssg70
g1178
sg63
(lp1190
S':'
asbag56
(g77
g58
NtRp1191
(dp1192
g61
(dp1193
sg70
g1178
sg63
(lp1194
g56
(g57
g58
NtRp1195
(dp1196
g61
(dp1197
g69
I4
ssg70
g1191
sg63
(lp1198
S''
asbasbasbag56
(g72
g58
NtRp1199
(dp1200
g61
(dp1201
sg70
g821
sg63
(lp1202
g56
(g77
g58
NtRp1203
(dp1204
g61
(dp1205
g81
g82
ssg70
g1199
sg63
(lp1206
S'remote_addr'
p1207
asbag56
(g77
g58
NtRp1208
(dp1209
g61
(dp1210
g88
g89
ssg70
g1199
sg63
(lp1211
S':'
asbag56
(g77
g58
NtRp1212
(dp1213
g61
(dp1214
sg70
g1199
sg63
(lp1215
g56
(g57
g58
NtRp1216
(dp1217
g61
(dp1218
g69
I4
ssg70
g1212
sg63
(lp1219
g189
asbasbasbag56
(g72
g58
NtRp1220
(dp1221
g61
(dp1222
sg70
g821
sg63
(lp1223
g56
(g77
g58
NtRp1224
(dp1225
g61
(dp1226
g81
g82
ssg70
g1220
sg63
(lp1227
S'remote_port'
p1228
asbag56
(g77
g58
NtRp1229
(dp1230
g61
(dp1231
g88
g89
ssg70
g1220
sg63
(lp1232
S':'
asbag56
(g77
g58
NtRp1233
(dp1234
g61
(dp1235
sg70
g1220
sg63
(lp1236
g56
(g57
g58
NtRp1237
(dp1238
g61
(dp1239
g69
I4
ssg70
g1233
sg63
(lp1240
S'64461'
p1241
asbasbasbag56
(g72
g58
NtRp1242
(dp1243
g61
(dp1244
sg70
g821
sg63
(lp1245
g56
(g77
g58
NtRp1246
(dp1247
g61
(dp1248
g81
g82
ssg70
g1242
sg63
(lp1249
S'request_method'
p1250
asbag56
(g77
g58
NtRp1251
(dp1252
g61
(dp1253
g88
g89
ssg70
g1242
sg63
(lp1254
S':'
asbag56
(g77
g58
NtRp1255
(dp1256
g61
(dp1257
sg70
g1242
sg63
(lp1258
g56
(g57
g58
NtRp1259
(dp1260
g61
(dp1261
g69
I4
ssg70
g1255
sg63
(lp1262
S'GET'
p1263
asbasbasbag56
(g72
g58
NtRp1264
(dp1265
g61
(dp1266
sg70
g821
sg63
(lp1267
g56
(g77
g58
NtRp1268
(dp1269
g61
(dp1270
g81
g82
ssg70
g1264
sg63
(lp1271
S'script_name'
p1272
asbag56
(g77
g58
NtRp1273
(dp1274
g61
(dp1275
g88
g89
ssg70
g1264
sg63
(lp1276
S':'
asbag56
(g77
g58
NtRp1277
(dp1278
g61
(dp1279
sg70
g1264
sg63
(lp1280
g56
(g57
g58
NtRp1281
(dp1282
g61
(dp1283
g69
I4
ssg70
g1277
sg63
(lp1284
S''
asbasbasbag56
(g72
g58
NtRp1285
(dp1286
g61
(dp1287
sg70
g821
sg63
(lp1288
g56
(g77
g58
NtRp1289
(dp1290
g61
(dp1291
g81
g82
ssg70
g1285
sg63
(lp1292
S'server_name'
p1293
asbag56
(g77
g58
NtRp1294
(dp1295
g61
(dp1296
g88
g89
ssg70
g1285
sg63
(lp1297
S':'
asbag56
(g77
g58
NtRp1298
(dp1299
g61
(dp1300
sg70
g1285
sg63
(lp1301
g56
(g57
g58
NtRp1302
(dp1303
g61
(dp1304
g69
I4
ssg70
g1298
sg63
(lp1305
S'ilustrepro.local'
p1306
asbasbasbag56
(g72
g58
NtRp1307
(dp1308
g61
(dp1309
sg70
g821
sg63
(lp1310
g56
(g77
g58
NtRp1311
(dp1312
g61
(dp1313
g81
g82
ssg70
g1307
sg63
(lp1314
S'server_port'
p1315
asbag56
(g77
g58
NtRp1316
(dp1317
g61
(dp1318
g88
g89
ssg70
g1307
sg63
(lp1319
S':'
asbag56
(g77
g58
NtRp1320
(dp1321
g61
(dp1322
sg70
g1307
sg63
(lp1323
g56
(g57
g58
NtRp1324
(dp1325
g61
(dp1326
g69
I4
ssg70
g1320
sg63
(lp1327
S'8000'
p1328
asbasbasbag56
(g72
g58
NtRp1329
(dp1330
g61
(dp1331
sg70
g821
sg63
(lp1332
g56
(g77
g58
NtRp1333
(dp1334
g61
(dp1335
g81
g82
ssg70
g1329
sg63
(lp1336
S'server_protocol'
p1337
asbag56
(g77
g58
NtRp1338
(dp1339
g61
(dp1340
g88
g89
ssg70
g1329
sg63
(lp1341
S':'
asbag56
(g77
g58
NtRp1342
(dp1343
g61
(dp1344
sg70
g1329
sg63
(lp1345
g56
(g57
g58
NtRp1346
(dp1347
g61
(dp1348
g69
I4
ssg70
g1342
sg63
(lp1349
S'HTTP/1.1'
p1350
asbasbasbag56
(g72
g58
NtRp1351
(dp1352
g61
(dp1353
sg70
g821
sg63
(lp1354
g56
(g77
g58
NtRp1355
(dp1356
g61
(dp1357
g81
g82
ssg70
g1351
sg63
(lp1358
S'server_software'
p1359
asbag56
(g77
g58
NtRp1360
(dp1361
g61
(dp1362
g88
g89
ssg70
g1351
sg63
(lp1363
S':'
asbag56
(g77
g58
NtRp1364
(dp1365
g61
(dp1366
sg70
g1351
sg63
(lp1367
g56
(g57
g58
NtRp1368
(dp1369
g61
(dp1370
g69
I4
ssg70
g1364
sg63
(lp1371
S'Rocket 1.2.2'
p1372
asbasbasbag56
(g72
g58
NtRp1373
(dp1374
g61
(dp1375
sg70
g821
sg63
(lp1376
g56
(g77
g58
NtRp1377
(dp1378
g61
(dp1379
g81
g82
ssg70
g1373
sg63
(lp1380
S'web2py_crontype'
p1381
asbag56
(g77
g58
NtRp1382
(dp1383
g61
(dp1384
g88
g89
ssg70
g1373
sg63
(lp1385
S':'
asbag56
(g77
g58
NtRp1386
(dp1387
g61
(dp1388
sg70
g1373
sg63
(lp1389
g56
(g57
g58
NtRp1390
(dp1391
g61
(dp1392
g69
I4
ssg70
g1386
sg63
(lp1393
S'hard'
p1394
asbasbasbag56
(g72
g58
NtRp1395
(dp1396
g61
(dp1397
sg70
g821
sg63
(lp1398
g56
(g77
g58
NtRp1399
(dp1400
g61
(dp1401
g81
g82
ssg70
g1395
sg63
(lp1402
S'web2py_path'
p1403
asbag56
(g77
g58
NtRp1404
(dp1405
g61
(dp1406
g88
g89
ssg70
g1395
sg63
(lp1407
S':'
asbag56
(g77
g58
NtRp1408
(dp1409
g61
(dp1410
sg70
g1395
sg63
(lp1411
g56
(g57
g58
NtRp1412
(dp1413
g61
(dp1414
g69
I4
ssg70
g1408
sg63
(lp1415
g868
asbasbasbag56
(g72
g58
NtRp1416
(dp1417
g61
(dp1418
sg70
g821
sg63
(lp1419
g56
(g77
g58
NtRp1420
(dp1421
g61
(dp1422
g81
g82
ssg70
g1416
sg63
(lp1423
S'web2py_version'
p1424
asbag56
(g77
g58
NtRp1425
(dp1426
g61
(dp1427
g88
g89
ssg70
g1416
sg63
(lp1428
S':'
asbag56
(g77
g58
NtRp1429
(dp1430
g61
(dp1431
sg70
g1416
sg63
(lp1432
g56
(g57
g58
NtRp1433
(dp1434
g61
(dp1435
g69
I4
ssg70
g1429
sg63
(lp1436
S'Version 1.98.2 (2011-08-04 00:47:09)\n'
p1437
asbasbasbag56
(g72
g58
NtRp1438
(dp1439
g61
(dp1440
sg70
g821
sg63
(lp1441
g56
(g77
g58
NtRp1442
(dp1443
g61
(dp1444
g81
g82
ssg70
g1438
sg63
(lp1445
S'wsgi_errors'
p1446
asbag56
(g77
g58
NtRp1447
(dp1448
g61
(dp1449
g88
g89
ssg70
g1438
sg63
(lp1450
S':'
asbag56
(g77
g58
NtRp1451
(dp1452
g61
(dp1453
sg70
g1438
sg63
(lp1454
g56
(g57
g58
NtRp1455
(dp1456
g61
(dp1457
g69
I4
ssg70
g1451
sg63
(lp1458
S"<open file '<stderr>', mode 'w' at 0x100283270>"
p1459
asbasbasbag56
(g72
g58
NtRp1460
(dp1461
g61
(dp1462
sg70
g821
sg63
(lp1463
g56
(g77
g58
NtRp1464
(dp1465
g61
(dp1466
g81
g82
ssg70
g1460
sg63
(lp1467
S'wsgi_file_wrapper'
p1468
asbag56
(g77
g58
NtRp1469
(dp1470
g61
(dp1471
g88
g89
ssg70
g1460
sg63
(lp1472
S':'
asbag56
(g77
g58
NtRp1473
(dp1474
g61
(dp1475
sg70
g1460
sg63
(lp1476
g56
(g57
g58
NtRp1477
(dp1478
g61
(dp1479
g69
I4
ssg70
g1473
sg63
(lp1480
S'<class gluon.rocket.FileWrapper at 0x101503738>'
p1481
asbasbasbag56
(g72
g58
NtRp1482
(dp1483
g61
(dp1484
sg70
g821
sg63
(lp1485
g56
(g77
g58
NtRp1486
(dp1487
g61
(dp1488
g81
g82
ssg70
g1482
sg63
(lp1489
S'wsgi_input'
p1490
asbag56
(g77
g58
NtRp1491
(dp1492
g61
(dp1493
g88
g89
ssg70
g1482
sg63
(lp1494
S':'
asbag56
(g77
g58
NtRp1495
(dp1496
g61
(dp1497
sg70
g1482
sg63
(lp1498
g56
(g57
g58
NtRp1499
(dp1500
g61
(dp1501
g69
I4
ssg70
g1495
sg63
(lp1502
S'<socket._fileobject object at 0x101a1bd50>'
p1503
asbasbasbag56
(g72
g58
NtRp1504
(dp1505
g61
(dp1506
sg70
g821
sg63
(lp1507
g56
(g77
g58
NtRp1508
(dp1509
g61
(dp1510
g81
g82
ssg70
g1504
sg63
(lp1511
S'wsgi_multiprocess'
p1512
asbag56
(g77
g58
NtRp1513
(dp1514
g61
(dp1515
g88
g89
ssg70
g1504
sg63
(lp1516
S':'
asbag56
(g77
g58
NtRp1517
(dp1518
g61
(dp1519
sg70
g1504
sg63
(lp1520
g56
(g57
g58
NtRp1521
(dp1522
g61
(dp1523
g69
I4
ssg70
g1517
sg63
(lp1524
g99
asbasbasbag56
(g72
g58
NtRp1525
(dp1526
g61
(dp1527
sg70
g821
sg63
(lp1528
g56
(g77
g58
NtRp1529
(dp1530
g61
(dp1531
g81
g82
ssg70
g1525
sg63
(lp1532
S'wsgi_multithread'
p1533
asbag56
(g77
g58
NtRp1534
(dp1535
g61
(dp1536
g88
g89
ssg70
g1525
sg63
(lp1537
S':'
asbag56
(g77
g58
NtRp1538
(dp1539
g61
(dp1540
sg70
g1525
sg63
(lp1541
g56
(g57
g58
NtRp1542
(dp1543
g61
(dp1544
g69
I4
ssg70
g1538
sg63
(lp1545
S'True'
p1546
asbasbasbag56
(g72
g58
NtRp1547
(dp1548
g61
(dp1549
sg70
g821
sg63
(lp1550
g56
(g77
g58
NtRp1551
(dp1552
g61
(dp1553
g81
g82
ssg70
g1547
sg63
(lp1554
S'wsgi_run_once'
p1555
asbag56
(g77
g58
NtRp1556
(dp1557
g61
(dp1558
g88
g89
ssg70
g1547
sg63
(lp1559
S':'
asbag56
(g77
g58
NtRp1560
(dp1561
g61
(dp1562
sg70
g1547
sg63
(lp1563
g56
(g57
g58
NtRp1564
(dp1565
g61
(dp1566
g69
I4
ssg70
g1560
sg63
(lp1567
g99
asbasbasbag56
(g72
g58
NtRp1568
(dp1569
g61
(dp1570
sg70
g821
sg63
(lp1571
g56
(g77
g58
NtRp1572
(dp1573
g61
(dp1574
g81
g82
ssg70
g1568
sg63
(lp1575
S'wsgi_url_scheme'
p1576
asbag56
(g77
g58
NtRp1577
(dp1578
g61
(dp1579
g88
g89
ssg70
g1568
sg63
(lp1580
S':'
asbag56
(g77
g58
NtRp1581
(dp1582
g61
(dp1583
sg70
g1568
sg63
(lp1584
g56
(g57
g58
NtRp1585
(dp1586
g61
(dp1587
g69
I4
ssg70
g1581
sg63
(lp1588
S'http'
p1589
asbasbasbag56
(g72
g58
NtRp1590
(dp1591
g61
(dp1592
sg70
g821
sg63
(lp1593
g56
(g77
g58
NtRp1594
(dp1595
g61
(dp1596
g81
g82
ssg70
g1590
sg63
(lp1597
S'wsgi_version'
p1598
asbag56
(g77
g58
NtRp1599
(dp1600
g61
(dp1601
g88
g89
ssg70
g1590
sg63
(lp1602
S':'
asbag56
(g77
g58
NtRp1603
(dp1604
g61
(dp1605
sg70
g1590
sg63
(lp1606
g56
(g57
g58
NtRp1607
(dp1608
g61
(dp1609
g69
I4
ssg70
g1603
sg63
(lp1610
g56
(g65
g58
NtRp1611
(dp1612
g61
(dp1613
g69
I3
ssg70
Nsg63
(lp1614
g56
(g72
g58
NtRp1615
(dp1616
g61
(dp1617
sg70
g1611
sg63
(lp1618
g56
(g77
g58
NtRp1619
(dp1620
g61
(dp1621
sg70
g1615
sg63
(lp1622
g56
(g57
g58
NtRp1623
(dp1624
g61
(dp1625
g69
I3
ssg70
g1619
sg63
(lp1626
S'1'
asbasbasbag56
(g72
g58
NtRp1627
(dp1628
g61
(dp1629
sg70
g1611
sg63
(lp1630
g56
(g77
g58
NtRp1631
(dp1632
g61
(dp1633
sg70
g1627
sg63
(lp1634
g56
(g57
g58
NtRp1635
(dp1636
g61
(dp1637
g69
I3
ssg70
g1631
sg63
(lp1638
S'0'
asbasbasbasbasbasbasbasbasbasbasbag56
(g72
g58
NtRp1639
(dp1640
g61
(dp1641
sg70
g66
sg63
(lp1642
g56
(g77
g58
NtRp1643
(dp1644
g61
(dp1645
g81
g82
ssg70
g1639
sg63
(lp1646
S'extension'
p1647
asbag56
(g77
g58
NtRp1648
(dp1649
g61
(dp1650
g88
g89
ssg70
g1639
sg63
(lp1651
S':'
asbag56
(g77
g58
NtRp1652
(dp1653
g61
(dp1654
sg70
g1639
sg63
(lp1655
g56
(g57
g58
NtRp1656
(dp1657
g61
(dp1658
g69
I5
ssg70
g1652
sg63
(lp1659
S'html'
p1660
asbasbasbag56
(g72
g58
NtRp1661
(dp1662
g61
(dp1663
sg70
g66
sg63
(lp1664
g56
(g77
g58
NtRp1665
(dp1666
g61
(dp1667
g81
g82
ssg70
g1661
sg63
(lp1668
S'folder'
p1669
asbag56
(g77
g58
NtRp1670
(dp1671
g61
(dp1672
g88
g89
ssg70
g1661
sg63
(lp1673
S':'
asbag56
(g77
g58
NtRp1674
(dp1675
g61
(dp1676
sg70
g1661
sg63
(lp1677
g56
(g57
g58
NtRp1678
(dp1679
g61
(dp1680
g69
I5
ssg70
g1674
sg63
(lp1681
S'/Users/ilustre/development/repo/jittest/web2py/applications/infovis/'
p1682
asbasbasbag56
(g72
g58
NtRp1683
(dp1684
g61
(dp1685
sg70
g66
sg63
(lp1686
g56
(g77
g58
NtRp1687
(dp1688
g61
(dp1689
g81
g82
ssg70
g1683
sg63
(lp1690
S'function'
p1691
asbag56
(g77
g58
NtRp1692
(dp1693
g61
(dp1694
g88
g89
ssg70
g1683
sg63
(lp1695
S':'
asbag56
(g77
g58
NtRp1696
(dp1697
g61
(dp1698
sg70
g1683
sg63
(lp1699
g56
(g57
g58
NtRp1700
(dp1701
g61
(dp1702
g69
I5
ssg70
g1696
sg63
(lp1703
S'treemap'
p1704
asbasbasbag56
(g72
g58
NtRp1705
(dp1706
g61
(dp1707
sg70
g66
sg63
(lp1708
g56
(g77
g58
NtRp1709
(dp1710
g61
(dp1711
g81
g82
ssg70
g1705
sg63
(lp1712
S'get_vars'
p1713
asbag56
(g77
g58
NtRp1714
(dp1715
g61
(dp1716
g88
g89
ssg70
g1705
sg63
(lp1717
S':'
asbag56
(g77
g58
NtRp1718
(dp1719
g61
(dp1720
sg70
g1705
sg63
(lp1721
g56
(g57
g58
NtRp1722
(dp1723
g61
(dp1724
g69
I5
ssg70
g1718
sg63
(lp1725
g56
(g65
g58
NtRp1726
(dp1727
g61
(dp1728
g69
I4
ssg70
Nsg63
(lp1729
sbasbasbasbag56
(g72
g58
NtRp1730
(dp1731
g61
(dp1732
sg70
g66
sg63
(lp1733
g56
(g77
g58
NtRp1734
(dp1735
g61
(dp1736
g81
g82
ssg70
g1730
sg63
(lp1737
S'is_https'
p1738
asbag56
(g77
g58
NtRp1739
(dp1740
g61
(dp1741
g88
g89
ssg70
g1730
sg63
(lp1742
S':'
asbag56
(g77
g58
NtRp1743
(dp1744
g61
(dp1745
sg70
g1730
sg63
(lp1746
g56
(g57
g58
NtRp1747
(dp1748
g61
(dp1749
g69
I5
ssg70
g1743
sg63
(lp1750
g99
asbasbasbag56
(g72
g58
NtRp1751
(dp1752
g61
(dp1753
sg70
g66
sg63
(lp1754
g56
(g77
g58
NtRp1755
(dp1756
g61
(dp1757
g81
g82
ssg70
g1751
sg63
(lp1758
S'is_local'
p1759
asbag56
(g77
g58
NtRp1760
(dp1761
g61
(dp1762
g88
g89
ssg70
g1751
sg63
(lp1763
S':'
asbag56
(g77
g58
NtRp1764
(dp1765
g61
(dp1766
sg70
g1751
sg63
(lp1767
g56
(g57
g58
NtRp1768
(dp1769
g61
(dp1770
g69
I5
ssg70
g1764
sg63
(lp1771
g1546
asbasbasbag56
(g72
g58
NtRp1772
(dp1773
g61
(dp1774
sg70
g66
sg63
(lp1775
g56
(g77
g58
NtRp1776
(dp1777
g61
(dp1778
g81
g82
ssg70
g1772
sg63
(lp1779
S'is_restful'
p1780
asbag56
(g77
g58
NtRp1781
(dp1782
g61
(dp1783
g88
g89
ssg70
g1772
sg63
(lp1784
S':'
asbag56
(g77
g58
NtRp1785
(dp1786
g61
(dp1787
sg70
g1772
sg63
(lp1788
g56
(g57
g58
NtRp1789
(dp1790
g61
(dp1791
g69
I5
ssg70
g1785
sg63
(lp1792
g99
asbasbasbag56
(g72
g58
NtRp1793
(dp1794
g61
(dp1795
sg70
g66
sg63
(lp1796
g56
(g77
g58
NtRp1797
(dp1798
g61
(dp1799
g81
g82
ssg70
g1793
sg63
(lp1800
S'now'
p1801
asbag56
(g77
g58
NtRp1802
(dp1803
g61
(dp1804
g88
g89
ssg70
g1793
sg63
(lp1805
S':'
asbag56
(g77
g58
NtRp1806
(dp1807
g61
(dp1808
sg70
g1793
sg63
(lp1809
g56
(g57
g58
NtRp1810
(dp1811
g61
(dp1812
g69
I5
ssg70
g1806
sg63
(lp1813
S'datetime.datetime(2011, 8, 14, 19, 5, 48, 392562)'
p1814
asbasbasbag56
(g72
g58
NtRp1815
(dp1816
g61
(dp1817
sg70
g66
sg63
(lp1818
g56
(g77
g58
NtRp1819
(dp1820
g61
(dp1821
g81
g82
ssg70
g1815
sg63
(lp1822
S'post_vars'
p1823
asbag56
(g77
g58
NtRp1824
(dp1825
g61
(dp1826
g88
g89
ssg70
g1815
sg63
(lp1827
S':'
asbag56
(g77
g58
NtRp1828
(dp1829
g61
(dp1830
sg70
g1815
sg63
(lp1831
g56
(g57
g58
NtRp1832
(dp1833
g61
(dp1834
g69
I5
ssg70
g1828
sg63
(lp1835
g56
(g65
g58
NtRp1836
(dp1837
g61
(dp1838
g69
I4
ssg70
Nsg63
(lp1839
sbasbasbasbag56
(g72
g58
NtRp1840
(dp1841
g61
(dp1842
sg70
g66
sg63
(lp1843
g56
(g77
g58
NtRp1844
(dp1845
g61
(dp1846
g81
g82
ssg70
g1840
sg63
(lp1847
S'raw_extension'
p1848
asbag56
(g77
g58
NtRp1849
(dp1850
g61
(dp1851
g88
g89
ssg70
g1840
sg63
(lp1852
S':'
asbag56
(g77
g58
NtRp1853
(dp1854
g61
(dp1855
sg70
g1840
sg63
(lp1856
g56
(g57
g58
NtRp1857
(dp1858
g61
(dp1859
g69
I5
ssg70
g1853
sg63
(lp1860
g1660
asbasbasbag56
(g72
g58
NtRp1861
(dp1862
g61
(dp1863
sg70
g66
sg63
(lp1864
g56
(g77
g58
NtRp1865
(dp1866
g61
(dp1867
g81
g82
ssg70
g1861
sg63
(lp1868
S'url'
p1869
asbag56
(g77
g58
NtRp1870
(dp1871
g61
(dp1872
g88
g89
ssg70
g1861
sg63
(lp1873
S':'
asbag56
(g77
g58
NtRp1874
(dp1875
g61
(dp1876
sg70
g1861
sg63
(lp1877
g56
(g57
g58
NtRp1878
(dp1879
g61
(dp1880
g69
I5
ssg70
g1874
sg63
(lp1881
S'/infovis/visual/treemap.html'
p1882
asbasbasbag56
(g72
g58
NtRp1883
(dp1884
g61
(dp1885
sg70
g66
sg63
(lp1886
g56
(g77
g58
NtRp1887
(dp1888
g61
(dp1889
g81
g82
ssg70
g1883
sg63
(lp1890
S'uuid'
p1891
asbag56
(g77
g58
NtRp1892
(dp1893
g61
(dp1894
g88
g89
ssg70
g1883
sg63
(lp1895
S':'
asbag56
(g77
g58
NtRp1896
(dp1897
g61
(dp1898
sg70
g1883
sg63
(lp1899
g56
(g57
g58
NtRp1900
(dp1901
g61
(dp1902
g69
I5
ssg70
g1896
sg63
(lp1903
S'infovis/127.0.0.1.2011-08-14.19-05-48.71c8faeb-07a2-4e61-a2e7-b30b0b3f895d'
p1904
asbasbasbag56
(g72
g58
NtRp1905
(dp1906
g61
(dp1907
sg70
g66
sg63
(lp1908
g56
(g77
g58
NtRp1909
(dp1910
g61
(dp1911
g81
g82
ssg70
g1905
sg63
(lp1912
S'vars'
p1913
asbag56
(g77
g58
NtRp1914
(dp1915
g61
(dp1916
g88
g89
ssg70
g1905
sg63
(lp1917
S':'
asbag56
(g77
g58
NtRp1918
(dp1919
g61
(dp1920
sg70
g1905
sg63
(lp1921
g56
(g57
g58
NtRp1922
(dp1923
g61
(dp1924
g69
I5
ssg70
g1918
sg63
(lp1925
g56
(g65
g58
NtRp1926
(dp1927
g61
(dp1928
g69
I4
ssg70
Nsg63
(lp1929
sbasbasbasbag56
(g72
g58
NtRp1930
(dp1931
g61
(dp1932
sg70
g66
sg63
(lp1933
g56
(g77
g58
NtRp1934
(dp1935
g61
(dp1936
g81
g82
ssg70
g1930
sg63
(lp1937
S'wsgi'
p1938
asbag56
(g77
g58
NtRp1939
(dp1940
g61
(dp1941
g88
g89
ssg70
g1930
sg63
(lp1942
S':'
asbag56
(g77
g58
NtRp1943
(dp1944
g61
(dp1945
sg70
g1930
sg63
(lp1946
g56
(g57
g58
NtRp1947
(dp1948
g61
(dp1949
g69
I5
ssg70
g1943
sg63
(lp1950
g56
(g65
g58
NtRp1951
(dp1952
g61
(dp1953
g69
I4
ssg70
Nsg63
(lp1954
g56
(g72
g58
NtRp1955
(dp1956
g61
(dp1957
sg70
g1951
sg63
(lp1958
g56
(g77
g58
NtRp1959
(dp1960
g61
(dp1961
g81
g82
ssg70
g1955
sg63
(lp1962
S'environ'
p1963
asbag56
(g77
g58
NtRp1964
(dp1965
g61
(dp1966
g88
g89
ssg70
g1955
sg63
(lp1967
S':'
asbag56
(g77
g58
NtRp1968
(dp1969
g61
(dp1970
sg70
g1955
sg63
(lp1971
g56
(g57
g58
NtRp1972
(dp1973
g61
(dp1974
g69
I4
ssg70
g1968
sg63
(lp1975
g56
(g65
g58
NtRp1976
(dp1977
g61
(dp1978
g69
I3
ssg70
Nsg63
(lp1979
g56
(g72
g58
NtRp1980
(dp1981
g61
(dp1982
sg70
g1976
sg63
(lp1983
g56
(g77
g58
NtRp1984
(dp1985
g61
(dp1986
g81
g82
ssg70
g1980
sg63
(lp1987
S'HTTP_ACCEPT'
p1988
asbag56
(g77
g58
NtRp1989
(dp1990
g61
(dp1991
g88
g89
ssg70
g1980
sg63
(lp1992
S':'
asbag56
(g77
g58
NtRp1993
(dp1994
g61
(dp1995
sg70
g1980
sg63
(lp1996
g56
(g57
g58
NtRp1997
(dp1998
g61
(dp1999
g69
I3
ssg70
g1993
sg63
(lp2000
g1002
asbasbasbag56
(g72
g58
NtRp2001
(dp2002
g61
(dp2003
sg70
g1976
sg63
(lp2004
g56
(g77
g58
NtRp2005
(dp2006
g61
(dp2007
g81
g82
ssg70
g2001
sg63
(lp2008
S'HTTP_ACCEPT_ENCODING'
p2009
asbag56
(g77
g58
NtRp2010
(dp2011
g61
(dp2012
g88
g89
ssg70
g2001
sg63
(lp2013
S':'
asbag56
(g77
g58
NtRp2014
(dp2015
g61
(dp2016
sg70
g2001
sg63
(lp2017
g56
(g57
g58
NtRp2018
(dp2019
g61
(dp2020
g69
I3
ssg70
g2014
sg63
(lp2021
g1024
asbasbasbag56
(g72
g58
NtRp2022
(dp2023
g61
(dp2024
sg70
g1976
sg63
(lp2025
g56
(g77
g58
NtRp2026
(dp2027
g61
(dp2028
g81
g82
ssg70
g2022
sg63
(lp2029
S'HTTP_ACCEPT_LANGUAGE'
p2030
asbag56
(g77
g58
NtRp2031
(dp2032
g61
(dp2033
g88
g89
ssg70
g2022
sg63
(lp2034
S':'
asbag56
(g77
g58
NtRp2035
(dp2036
g61
(dp2037
sg70
g2022
sg63
(lp2038
g56
(g57
g58
NtRp2039
(dp2040
g61
(dp2041
g69
I3
ssg70
g2035
sg63
(lp2042
g1046
asbasbasbag56
(g72
g58
NtRp2043
(dp2044
g61
(dp2045
sg70
g1976
sg63
(lp2046
g56
(g77
g58
NtRp2047
(dp2048
g61
(dp2049
g81
g82
ssg70
g2043
sg63
(lp2050
S'HTTP_CONNECTION'
p2051
asbag56
(g77
g58
NtRp2052
(dp2053
g61
(dp2054
g88
g89
ssg70
g2043
sg63
(lp2055
S':'
asbag56
(g77
g58
NtRp2056
(dp2057
g61
(dp2058
sg70
g2043
sg63
(lp2059
g56
(g57
g58
NtRp2060
(dp2061
g61
(dp2062
g69
I3
ssg70
g2056
sg63
(lp2063
g1068
asbasbasbag56
(g72
g58
NtRp2064
(dp2065
g61
(dp2066
sg70
g1976
sg63
(lp2067
g56
(g77
g58
NtRp2068
(dp2069
g61
(dp2070
g81
g82
ssg70
g2064
sg63
(lp2071
S'HTTP_COOKIE'
p2072
asbag56
(g77
g58
NtRp2073
(dp2074
g61
(dp2075
g88
g89
ssg70
g2064
sg63
(lp2076
S':'
asbag56
(g77
g58
NtRp2077
(dp2078
g61
(dp2079
sg70
g2064
sg63
(lp2080
g56
(g57
g58
NtRp2081
(dp2082
g61
(dp2083
g69
I3
ssg70
g2077
sg63
(lp2084
g1090
asbasbasbag56
(g72
g58
NtRp2085
(dp2086
g61
(dp2087
sg70
g1976
sg63
(lp2088
g56
(g77
g58
NtRp2089
(dp2090
g61
(dp2091
g81
g82
ssg70
g2085
sg63
(lp2092
S'HTTP_HOST'
p2093
asbag56
(g77
g58
NtRp2094
(dp2095
g61
(dp2096
g88
g89
ssg70
g2085
sg63
(lp2097
S':'
asbag56
(g77
g58
NtRp2098
(dp2099
g61
(dp2100
sg70
g2085
sg63
(lp2101
g56
(g57
g58
NtRp2102
(dp2103
g61
(dp2104
g69
I3
ssg70
g2098
sg63
(lp2105
g1112
asbasbasbag56
(g72
g58
NtRp2106
(dp2107
g61
(dp2108
sg70
g1976
sg63
(lp2109
g56
(g77
g58
NtRp2110
(dp2111
g61
(dp2112
g81
g82
ssg70
g2106
sg63
(lp2113
S'HTTP_USER_AGENT'
p2114
asbag56
(g77
g58
NtRp2115
(dp2116
g61
(dp2117
g88
g89
ssg70
g2106
sg63
(lp2118
S':'
asbag56
(g77
g58
NtRp2119
(dp2120
g61
(dp2121
sg70
g2106
sg63
(lp2122
g56
(g57
g58
NtRp2123
(dp2124
g61
(dp2125
g69
I3
ssg70
g2119
sg63
(lp2126
g1134
asbasbasbag56
(g72
g58
NtRp2127
(dp2128
g61
(dp2129
sg70
g1976
sg63
(lp2130
g56
(g77
g58
NtRp2131
(dp2132
g61
(dp2133
g81
g82
ssg70
g2127
sg63
(lp2134
S'PATH_INFO'
p2135
asbag56
(g77
g58
NtRp2136
(dp2137
g61
(dp2138
g88
g89
ssg70
g2127
sg63
(lp2139
S':'
asbag56
(g77
g58
NtRp2140
(dp2141
g61
(dp2142
sg70
g2127
sg63
(lp2143
g56
(g57
g58
NtRp2144
(dp2145
g61
(dp2146
g69
I3
ssg70
g2140
sg63
(lp2147
g1177
asbasbasbag56
(g72
g58
NtRp2148
(dp2149
g61
(dp2150
sg70
g1976
sg63
(lp2151
g56
(g77
g58
NtRp2152
(dp2153
g61
(dp2154
g81
g82
ssg70
g2148
sg63
(lp2155
S'QUERY_STRING'
p2156
asbag56
(g77
g58
NtRp2157
(dp2158
g61
(dp2159
g88
g89
ssg70
g2148
sg63
(lp2160
S':'
asbag56
(g77
g58
NtRp2161
(dp2162
g61
(dp2163
sg70
g2148
sg63
(lp2164
g56
(g57
g58
NtRp2165
(dp2166
g61
(dp2167
g69
I3
ssg70
g2161
sg63
(lp2168
S''
asbasbasbag56
(g72
g58
NtRp2169
(dp2170
g61
(dp2171
sg70
g1976
sg63
(lp2172
g56
(g77
g58
NtRp2173
(dp2174
g61
(dp2175
g81
g82
ssg70
g2169
sg63
(lp2176
S'REMOTE_ADDR'
p2177
asbag56
(g77
g58
NtRp2178
(dp2179
g61
(dp2180
g88
g89
ssg70
g2169
sg63
(lp2181
S':'
asbag56
(g77
g58
NtRp2182
(dp2183
g61
(dp2184
sg70
g2169
sg63
(lp2185
g56
(g57
g58
NtRp2186
(dp2187
g61
(dp2188
g69
I3
ssg70
g2182
sg63
(lp2189
g189
asbasbasbag56
(g72
g58
NtRp2190
(dp2191
g61
(dp2192
sg70
g1976
sg63
(lp2193
g56
(g77
g58
NtRp2194
(dp2195
g61
(dp2196
g81
g82
ssg70
g2190
sg63
(lp2197
S'REMOTE_PORT'
p2198
asbag56
(g77
g58
NtRp2199
(dp2200
g61
(dp2201
g88
g89
ssg70
g2190
sg63
(lp2202
S':'
asbag56
(g77
g58
NtRp2203
(dp2204
g61
(dp2205
sg70
g2190
sg63
(lp2206
g56
(g57
g58
NtRp2207
(dp2208
g61
(dp2209
g69
I3
ssg70
g2203
sg63
(lp2210
g1241
asbasbasbag56
(g72
g58
NtRp2211
(dp2212
g61
(dp2213
sg70
g1976
sg63
(lp2214
g56
(g77
g58
NtRp2215
(dp2216
g61
(dp2217
g81
g82
ssg70
g2211
sg63
(lp2218
S'REQUEST_METHOD'
p2219
asbag56
(g77
g58
NtRp2220
(dp2221
g61
(dp2222
g88
g89
ssg70
g2211
sg63
(lp2223
S':'
asbag56
(g77
g58
NtRp2224
(dp2225
g61
(dp2226
sg70
g2211
sg63
(lp2227
g56
(g57
g58
NtRp2228
(dp2229
g61
(dp2230
g69
I3
ssg70
g2224
sg63
(lp2231
g1263
asbasbasbag56
(g72
g58
NtRp2232
(dp2233
g61
(dp2234
sg70
g1976
sg63
(lp2235
g56
(g77
g58
NtRp2236
(dp2237
g61
(dp2238
g81
g82
ssg70
g2232
sg63
(lp2239
S'SCRIPT_NAME'
p2240
asbag56
(g77
g58
NtRp2241
(dp2242
g61
(dp2243
g88
g89
ssg70
g2232
sg63
(lp2244
S':'
asbag56
(g77
g58
NtRp2245
(dp2246
g61
(dp2247
sg70
g2232
sg63
(lp2248
g56
(g57
g58
NtRp2249
(dp2250
g61
(dp2251
g69
I3
ssg70
g2245
sg63
(lp2252
S''
asbasbasbag56
(g72
g58
NtRp2253
(dp2254
g61
(dp2255
sg70
g1976
sg63
(lp2256
g56
(g77
g58
NtRp2257
(dp2258
g61
(dp2259
g81
g82
ssg70
g2253
sg63
(lp2260
S'SERVER_NAME'
p2261
asbag56
(g77
g58
NtRp2262
(dp2263
g61
(dp2264
g88
g89
ssg70
g2253
sg63
(lp2265
S':'
asbag56
(g77
g58
NtRp2266
(dp2267
g61
(dp2268
sg70
g2253
sg63
(lp2269
g56
(g57
g58
NtRp2270
(dp2271
g61
(dp2272
g69
I3
ssg70
g2266
sg63
(lp2273
g1306
asbasbasbag56
(g72
g58
NtRp2274
(dp2275
g61
(dp2276
sg70
g1976
sg63
(lp2277
g56
(g77
g58
NtRp2278
(dp2279
g61
(dp2280
g81
g82
ssg70
g2274
sg63
(lp2281
S'SERVER_PORT'
p2282
asbag56
(g77
g58
NtRp2283
(dp2284
g61
(dp2285
g88
g89
ssg70
g2274
sg63
(lp2286
S':'
asbag56
(g77
g58
NtRp2287
(dp2288
g61
(dp2289
sg70
g2274
sg63
(lp2290
g56
(g57
g58
NtRp2291
(dp2292
g61
(dp2293
g69
I3
ssg70
g2287
sg63
(lp2294
g1328
asbasbasbag56
(g72
g58
NtRp2295
(dp2296
g61
(dp2297
sg70
g1976
sg63
(lp2298
g56
(g77
g58
NtRp2299
(dp2300
g61
(dp2301
g81
g82
ssg70
g2295
sg63
(lp2302
S'SERVER_PROTOCOL'
p2303
asbag56
(g77
g58
NtRp2304
(dp2305
g61
(dp2306
g88
g89
ssg70
g2295
sg63
(lp2307
S':'
asbag56
(g77
g58
NtRp2308
(dp2309
g61
(dp2310
sg70
g2295
sg63
(lp2311
g56
(g57
g58
NtRp2312
(dp2313
g61
(dp2314
g69
I3
ssg70
g2308
sg63
(lp2315
g1350
asbasbasbag56
(g72
g58
NtRp2316
(dp2317
g61
(dp2318
sg70
g1976
sg63
(lp2319
g56
(g77
g58
NtRp2320
(dp2321
g61
(dp2322
g81
g82
ssg70
g2316
sg63
(lp2323
S'SERVER_SOFTWARE'
p2324
asbag56
(g77
g58
NtRp2325
(dp2326
g61
(dp2327
g88
g89
ssg70
g2316
sg63
(lp2328
S':'
asbag56
(g77
g58
NtRp2329
(dp2330
g61
(dp2331
sg70
g2316
sg63
(lp2332
g56
(g57
g58
NtRp2333
(dp2334
g61
(dp2335
g69
I3
ssg70
g2329
sg63
(lp2336
g1372
asbasbasbag56
(g72
g58
NtRp2337
(dp2338
g61
(dp2339
sg70
g1976
sg63
(lp2340
g56
(g77
g58
NtRp2341
(dp2342
g61
(dp2343
g81
g82
ssg70
g2337
sg63
(lp2344
S'wsgi.errors'
p2345
asbag56
(g77
g58
NtRp2346
(dp2347
g61
(dp2348
g88
g89
ssg70
g2337
sg63
(lp2349
S':'
asbag56
(g77
g58
NtRp2350
(dp2351
g61
(dp2352
sg70
g2337
sg63
(lp2353
g56
(g57
g58
NtRp2354
(dp2355
g61
(dp2356
g69
I3
ssg70
g2350
sg63
(lp2357
S"<open file '<stderr>', mode 'w' at 0x100283270>"
p2358
asbasbasbag56
(g72
g58
NtRp2359
(dp2360
g61
(dp2361
sg70
g1976
sg63
(lp2362
g56
(g77
g58
NtRp2363
(dp2364
g61
(dp2365
g81
g82
ssg70
g2359
sg63
(lp2366
S'wsgi.file_wrapper'
p2367
asbag56
(g77
g58
NtRp2368
(dp2369
g61
(dp2370
g88
g89
ssg70
g2359
sg63
(lp2371
S':'
asbag56
(g77
g58
NtRp2372
(dp2373
g61
(dp2374
sg70
g2359
sg63
(lp2375
g56
(g57
g58
NtRp2376
(dp2377
g61
(dp2378
g69
I3
ssg70
g2372
sg63
(lp2379
S'<class gluon.rocket.FileWrapper at 0x101503738>'
p2380
asbasbasbag56
(g72
g58
NtRp2381
(dp2382
g61
(dp2383
sg70
g1976
sg63
(lp2384
g56
(g77
g58
NtRp2385
(dp2386
g61
(dp2387
g81
g82
ssg70
g2381
sg63
(lp2388
S'wsgi.input'
p2389
asbag56
(g77
g58
NtRp2390
(dp2391
g61
(dp2392
g88
g89
ssg70
g2381
sg63
(lp2393
S':'
asbag56
(g77
g58
NtRp2394
(dp2395
g61
(dp2396
sg70
g2381
sg63
(lp2397
g56
(g57
g58
NtRp2398
(dp2399
g61
(dp2400
g69
I3
ssg70
g2394
sg63
(lp2401
S'<cStringIO.StringO object at 0x101521bc8>'
p2402
asbasbasbag56
(g72
g58
NtRp2403
(dp2404
g61
(dp2405
sg70
g1976
sg63
(lp2406
g56
(g77
g58
NtRp2407
(dp2408
g61
(dp2409
g81
g82
ssg70
g2403
sg63
(lp2410
S'wsgi.multiprocess'
p2411
asbag56
(g77
g58
NtRp2412
(dp2413
g61
(dp2414
g88
g89
ssg70
g2403
sg63
(lp2415
S':'
asbag56
(g77
g58
NtRp2416
(dp2417
g61
(dp2418
sg70
g2403
sg63
(lp2419
g56
(g57
g58
NtRp2420
(dp2421
g61
(dp2422
g69
I3
ssg70
g2416
sg63
(lp2423
g99
asbasbasbag56
(g72
g58
NtRp2424
(dp2425
g61
(dp2426
sg70
g1976
sg63
(lp2427
g56
(g77
g58
NtRp2428
(dp2429
g61
(dp2430
g81
g82
ssg70
g2424
sg63
(lp2431
S'wsgi.multithread'
p2432
asbag56
(g77
g58
NtRp2433
(dp2434
g61
(dp2435
g88
g89
ssg70
g2424
sg63
(lp2436
S':'
asbag56
(g77
g58
NtRp2437
(dp2438
g61
(dp2439
sg70
g2424
sg63
(lp2440
g56
(g57
g58
NtRp2441
(dp2442
g61
(dp2443
g69
I3
ssg70
g2437
sg63
(lp2444
g1546
asbasbasbag56
(g72
g58
NtRp2445
(dp2446
g61
(dp2447
sg70
g1976
sg63
(lp2448
g56
(g77
g58
NtRp2449
(dp2450
g61
(dp2451
g81
g82
ssg70
g2445
sg63
(lp2452
S'wsgi.run_once'
p2453
asbag56
(g77
g58
NtRp2454
(dp2455
g61
(dp2456
g88
g89
ssg70
g2445
sg63
(lp2457
S':'
asbag56
(g77
g58
NtRp2458
(dp2459
g61
(dp2460
sg70
g2445
sg63
(lp2461
g56
(g57
g58
NtRp2462
(dp2463
g61
(dp2464
g69
I3
ssg70
g2458
sg63
(lp2465
g99
asbasbasbag56
(g72
g58
NtRp2466
(dp2467
g61
(dp2468
sg70
g1976
sg63
(lp2469
g56
(g77
g58
NtRp2470
(dp2471
g61
(dp2472
g81
g82
ssg70
g2466
sg63
(lp2473
S'wsgi.url_scheme'
p2474
asbag56
(g77
g58
NtRp2475
(dp2476
g61
(dp2477
g88
g89
ssg70
g2466
sg63
(lp2478
S':'
asbag56
(g77
g58
NtRp2479
(dp2480
g61
(dp2481
sg70
g2466
sg63
(lp2482
g56
(g57
g58
NtRp2483
(dp2484
g61
(dp2485
g69
I3
ssg70
g2479
sg63
(lp2486
g1589
asbasbasbag56
(g72
g58
NtRp2487
(dp2488
g61
(dp2489
sg70
g1976
sg63
(lp2490
g56
(g77
g58
NtRp2491
(dp2492
g61
(dp2493
g81
g82
ssg70
g2487
sg63
(lp2494
S'wsgi.version'
p2495
asbag56
(g77
g58
NtRp2496
(dp2497
g61
(dp2498
g88
g89
ssg70
g2487
sg63
(lp2499
S':'
asbag56
(g77
g58
NtRp2500
(dp2501
g61
(dp2502
sg70
g2487
sg63
(lp2503
g56
(g57
g58
NtRp2504
(dp2505
g61
(dp2506
g69
I3
ssg70
g2500
sg63
(lp2507
S'1'
asbasbasbasbasbasbasbasbasbasbasbasbasbsS'frames'
p2508
(lp2509
(dp2510
S'file'
p2511
S'/Users/ilustre/development/repo/jittest/web2py/gluon/restricted.py'
p2512
sS'dump'
p2513
(dp2514
S'environment'
p2515
S"{'A': <class 'gluon.html.A'>, 'Auth': <class 'gluon.tools.Auth'>, 'B': <class 'gluon.html.B'>, 'BEAUTIFY': <class 'gluon.html.BEAUTIFY'>, 'BODY': <class 'gluon.html.BODY'>, 'BR': <class 'gluon.html.BR'>, 'BUTTON': <class 'gluon.html.BUTTON'>, 'CAT': <class 'gluon.html.CAT'>, 'CENTER': <class 'gluon.html.CENTER'>, 'CLEANUP': <class 'gluon.validators.CLEANUP'>, ...}"
p2516
sS'ccode'
p2517
S'<code object <module> at 0x101c89f30, file "/Use...tions/infovis/views/visual/treemap.html", line 1>'
p2518
ssS'lnum'
p2519
I192
sS'lines'
p2520
(dp2521
I192
S'        exec ccode in environment'
p2522
sI193
S'    except HTTP:'
p2523
sI194
S'        raise'
p2524
sI195
S'    except Exception, error:'
p2525
sI196
S'        # XXX Show exception in Wing IDE if running in debugger'
p2526
sI187
S'    try:'
p2527
sI188
S'        if type(code) == types.CodeType:'
p2528
sI189
S'            ccode = code'
p2529
sI190
S'        else:'
p2530
sI191
S'            ccode = compile2(code,layer)'
p2531
ssS'call'
p2532
S'(code="response.write(\'<h1>\', escape=False)\\nresponse.wr...sage)\\nresponse.write(\'</h1>\\\\n\\\\n\\\\n\', escape=False)", environment={\'A\': <class \'gluon.html.A\'>, \'Auth\': <class \'gluon.tools.Auth\'>, \'B\': <class \'gluon.html.B\'>, \'BEAUTIFY\': <class \'gluon.html.BEAUTIFY\'>, \'BODY\': <class \'gluon.html.BODY\'>, \'BR\': <class \'gluon.html.BR\'>, \'BUTTON\': <class \'gluon.html.BUTTON\'>, \'CAT\': <class \'gluon.html.CAT\'>, \'CENTER\': <class \'gluon.html.CENTER\'>, \'CLEANUP\': <class \'gluon.validators.CLEANUP\'>, ...}, layer=\'/Users/ilustre/development/repo/jittest/web2py/applications/infovis/views/visual/treemap.html\')'
p2533
sS'func'
p2534
S'restricted'
p2535
sa(dp2536
g2511
S'/Users/ilustre/development/repo/jittest/web2py/applications/infovis/views/visual/treemap.html'
p2537
sg2513
(dp2538
sg2519
I2
sg2520
(dp2539
I1
S"response.write('<h1>', escape=False)"
p2540
sI2
S'response.write(message)'
p2541
sI3
S"response.write('</h1>\\n\\n\\n', escape=False)"
p2542
ssg2532
S'()'
p2543
sg2534
S'<module>'
p2544
sasS'pyver'
p2545
S'Python 2.7.2: /Users/ilustre/virtual_pythons/python27_gold/bin/python'
p2546
sS'session'
p2547
g56
(g57
g58
NtRp2548
(dp2549
g61
(dp2550
sg63
(lp2551
g56
(g65
g58
NtRp2552
(dp2553
g61
(dp2554
g69
I5
ssg70
Nsg63
(lp2555
sbasbsS'etype'
p2556
S"<type 'exceptions.NameError'>"
p2557
sS'date'
p2558
S'Sun Aug 14 19:05:48 2011'
p2559
sS'response'
p2560
g56
(g57
g58
NtRp2561
(dp2562
g61
(dp2563
sg63
(lp2564
g56
(g65
g58
NtRp2565
(dp2566
g61
(dp2567
g69
I5
ssg70
Nsg63
(lp2568
g56
(g72
g58
NtRp2569
(dp2570
g61
(dp2571
sg70
g2565
sg63
(lp2572
g56
(g77
g58
NtRp2573
(dp2574
g61
(dp2575
g81
g82
ssg70
g2569
sg63
(lp2576
g154
asbag56
(g77
g58
NtRp2577
(dp2578
g61
(dp2579
g88
g89
ssg70
g2569
sg63
(lp2580
S':'
asbag56
(g77
g58
NtRp2581
(dp2582
g61
(dp2583
sg70
g2569
sg63
(lp2584
g56
(g57
g58
NtRp2585
(dp2586
g61
(dp2587
g69
I5
ssg70
g2581
sg63
(lp2588
S'<cStringIO.StringO object at 0x101c73570>'
p2589
asbasbasbag56
(g72
g58
NtRp2590
(dp2591
g61
(dp2592
sg70
g2565
sg63
(lp2593
g56
(g77
g58
NtRp2594
(dp2595
g61
(dp2596
g81
g82
ssg70
g2590
sg63
(lp2597
g220
asbag56
(g77
g58
NtRp2598
(dp2599
g61
(dp2600
g88
g89
ssg70
g2590
sg63
(lp2601
S':'
asbag56
(g77
g58
NtRp2602
(dp2603
g61
(dp2604
sg70
g2590
sg63
(lp2605
g56
(g57
g58
NtRp2606
(dp2607
g61
(dp2608
g69
I5
ssg70
g2602
sg63
(lp2609
g56
(g65
g58
NtRp2610
(dp2611
g61
(dp2612
g69
I4
ssg70
Nsg63
(lp2613
g56
(g72
g58
NtRp2614
(dp2615
g61
(dp2616
sg70
g2610
sg63
(lp2617
g56
(g77
g58
NtRp2618
(dp2619
g61
(dp2620
g81
g82
ssg70
g2614
sg63
(lp2621
S'session_id_infovis'
p2622
asbag56
(g77
g58
NtRp2623
(dp2624
g61
(dp2625
g88
g89
ssg70
g2614
sg63
(lp2626
S':'
asbag56
(g77
g58
NtRp2627
(dp2628
g61
(dp2629
sg70
g2614
sg63
(lp2630
g56
(g57
g58
NtRp2631
(dp2632
g61
(dp2633
g69
I4
ssg70
g2627
sg63
(lp2634
g56
(g65
g58
NtRp2635
(dp2636
g61
(dp2637
g69
I3
ssg70
Nsg63
(lp2638
g56
(g72
g58
NtRp2639
(dp2640
g61
(dp2641
sg70
g2635
sg63
(lp2642
g56
(g77
g58
NtRp2643
(dp2644
g61
(dp2645
g81
g82
ssg70
g2639
sg63
(lp2646
g270
asbag56
(g77
g58
NtRp2647
(dp2648
g61
(dp2649
g88
g89
ssg70
g2639
sg63
(lp2650
S':'
asbag56
(g77
g58
NtRp2651
(dp2652
g61
(dp2653
sg70
g2639
sg63
(lp2654
g56
(g57
g58
NtRp2655
(dp2656
g61
(dp2657
g69
I3
ssg70
g2651
sg63
(lp2658
S''
asbasbasbag56
(g72
g58
NtRp2659
(dp2660
g61
(dp2661
sg70
g2635
sg63
(lp2662
g56
(g77
g58
NtRp2663
(dp2664
g61
(dp2665
g81
g82
ssg70
g2659
sg63
(lp2666
g291
asbag56
(g77
g58
NtRp2667
(dp2668
g61
(dp2669
g88
g89
ssg70
g2659
sg63
(lp2670
S':'
asbag56
(g77
g58
NtRp2671
(dp2672
g61
(dp2673
sg70
g2659
sg63
(lp2674
g56
(g57
g58
NtRp2675
(dp2676
g61
(dp2677
g69
I3
ssg70
g2671
sg63
(lp2678
S''
asbasbasbag56
(g72
g58
NtRp2679
(dp2680
g61
(dp2681
sg70
g2635
sg63
(lp2682
g56
(g77
g58
NtRp2683
(dp2684
g61
(dp2685
g81
g82
ssg70
g2679
sg63
(lp2686
g312
asbag56
(g77
g58
NtRp2687
(dp2688
g61
(dp2689
g88
g89
ssg70
g2679
sg63
(lp2690
S':'
asbag56
(g77
g58
NtRp2691
(dp2692
g61
(dp2693
sg70
g2679
sg63
(lp2694
g56
(g57
g58
NtRp2695
(dp2696
g61
(dp2697
g69
I3
ssg70
g2691
sg63
(lp2698
S''
asbasbasbag56
(g72
g58
NtRp2699
(dp2700
g61
(dp2701
sg70
g2635
sg63
(lp2702
g56
(g77
g58
NtRp2703
(dp2704
g61
(dp2705
g81
g82
ssg70
g2699
sg63
(lp2706
g333
asbag56
(g77
g58
NtRp2707
(dp2708
g61
(dp2709
g88
g89
ssg70
g2699
sg63
(lp2710
S':'
asbag56
(g77
g58
NtRp2711
(dp2712
g61
(dp2713
sg70
g2699
sg63
(lp2714
g56
(g57
g58
NtRp2715
(dp2716
g61
(dp2717
g69
I3
ssg70
g2711
sg63
(lp2718
S''
asbasbasbag56
(g72
g58
NtRp2719
(dp2720
g61
(dp2721
sg70
g2635
sg63
(lp2722
g56
(g77
g58
NtRp2723
(dp2724
g61
(dp2725
g81
g82
ssg70
g2719
sg63
(lp2726
g354
asbag56
(g77
g58
NtRp2727
(dp2728
g61
(dp2729
g88
g89
ssg70
g2719
sg63
(lp2730
S':'
asbag56
(g77
g58
NtRp2731
(dp2732
g61
(dp2733
sg70
g2719
sg63
(lp2734
g56
(g57
g58
NtRp2735
(dp2736
g61
(dp2737
g69
I3
ssg70
g2731
sg63
(lp2738
S''
asbasbasbag56
(g72
g58
NtRp2739
(dp2740
g61
(dp2741
sg70
g2635
sg63
(lp2742
g56
(g77
g58
NtRp2743
(dp2744
g61
(dp2745
g81
g82
ssg70
g2739
sg63
(lp2746
g375
asbag56
(g77
g58
NtRp2747
(dp2748
g61
(dp2749
g88
g89
ssg70
g2739
sg63
(lp2750
S':'
asbag56
(g77
g58
NtRp2751
(dp2752
g61
(dp2753
sg70
g2739
sg63
(lp2754
g56
(g57
g58
NtRp2755
(dp2756
g61
(dp2757
g69
I3
ssg70
g2751
sg63
(lp2758
S'/'
asbasbasbag56
(g72
g58
NtRp2759
(dp2760
g61
(dp2761
sg70
g2635
sg63
(lp2762
g56
(g77
g58
NtRp2763
(dp2764
g61
(dp2765
g81
g82
ssg70
g2759
sg63
(lp2766
g396
asbag56
(g77
g58
NtRp2767
(dp2768
g61
(dp2769
g88
g89
ssg70
g2759
sg63
(lp2770
S':'
asbag56
(g77
g58
NtRp2771
(dp2772
g61
(dp2773
sg70
g2759
sg63
(lp2774
g56
(g57
g58
NtRp2775
(dp2776
g61
(dp2777
g69
I3
ssg70
g2771
sg63
(lp2778
S''
asbasbasbag56
(g72
g58
NtRp2779
(dp2780
g61
(dp2781
sg70
g2635
sg63
(lp2782
g56
(g77
g58
NtRp2783
(dp2784
g61
(dp2785
g81
g82
ssg70
g2779
sg63
(lp2786
g417
asbag56
(g77
g58
NtRp2787
(dp2788
g61
(dp2789
g88
g89
ssg70
g2779
sg63
(lp2790
S':'
asbag56
(g77
g58
NtRp2791
(dp2792
g61
(dp2793
sg70
g2779
sg63
(lp2794
g56
(g57
g58
NtRp2795
(dp2796
g61
(dp2797
g69
I3
ssg70
g2791
sg63
(lp2798
S''
asbasbasbasbasbasbasbasbasbasbasbag56
(g72
g58
NtRp2799
(dp2800
g61
(dp2801
sg70
g2565
sg63
(lp2802
g56
(g77
g58
NtRp2803
(dp2804
g61
(dp2805
g81
g82
ssg70
g2799
sg63
(lp2806
S'files'
p2807
asbag56
(g77
g58
NtRp2808
(dp2809
g61
(dp2810
g88
g89
ssg70
g2799
sg63
(lp2811
S':'
asbag56
(g77
g58
NtRp2812
(dp2813
g61
(dp2814
sg70
g2799
sg63
(lp2815
g56
(g57
g58
NtRp2816
(dp2817
g61
(dp2818
g69
I5
ssg70
g2812
sg63
(lp2819
g56
(g65
g58
NtRp2820
(dp2821
g61
(dp2822
g69
I4
ssg70
Nsg63
(lp2823
sbasbasbasbag56
(g72
g58
NtRp2824
(dp2825
g61
(dp2826
sg70
g2565
sg63
(lp2827
g56
(g77
g58
NtRp2828
(dp2829
g61
(dp2830
g81
g82
ssg70
g2824
sg63
(lp2831
S'flash'
p2832
asbag56
(g77
g58
NtRp2833
(dp2834
g61
(dp2835
g88
g89
ssg70
g2824
sg63
(lp2836
S':'
asbag56
(g77
g58
NtRp2837
(dp2838
g61
(dp2839
sg70
g2824
sg63
(lp2840
g56
(g57
g58
NtRp2841
(dp2842
g61
(dp2843
g69
I5
ssg70
g2837
sg63
(lp2844
S''
asbasbasbag56
(g72
g58
NtRp2845
(dp2846
g61
(dp2847
sg70
g2565
sg63
(lp2848
g56
(g77
g58
NtRp2849
(dp2850
g61
(dp2851
g81
g82
ssg70
g2845
sg63
(lp2852
S'generic_patterns'
p2853
asbag56
(g77
g58
NtRp2854
(dp2855
g61
(dp2856
g88
g89
ssg70
g2845
sg63
(lp2857
S':'
asbag56
(g77
g58
NtRp2858
(dp2859
g61
(dp2860
sg70
g2845
sg63
(lp2861
g56
(g57
g58
NtRp2862
(dp2863
g61
(dp2864
g69
I5
ssg70
g2858
sg63
(lp2865
g56
(g65
g58
NtRp2866
(dp2867
g61
(dp2868
g69
I4
ssg70
Nsg63
(lp2869
g56
(g72
g58
NtRp2870
(dp2871
g61
(dp2872
sg70
g2866
sg63
(lp2873
g56
(g77
g58
NtRp2874
(dp2875
g61
(dp2876
sg70
g2870
sg63
(lp2877
g56
(g57
g58
NtRp2878
(dp2879
g61
(dp2880
g69
I4
ssg70
g2874
sg63
(lp2881
S'*'
asbasbasbasbasbasbasbag56
(g72
g58
NtRp2882
(dp2883
g61
(dp2884
sg70
g2565
sg63
(lp2885
g56
(g77
g58
NtRp2886
(dp2887
g61
(dp2888
g81
g82
ssg70
g2882
sg63
(lp2889
S'headers'
p2890
asbag56
(g77
g58
NtRp2891
(dp2892
g61
(dp2893
g88
g89
ssg70
g2882
sg63
(lp2894
S':'
asbag56
(g77
g58
NtRp2895
(dp2896
g61
(dp2897
sg70
g2882
sg63
(lp2898
g56
(g57
g58
NtRp2899
(dp2900
g61
(dp2901
g69
I5
ssg70
g2895
sg63
(lp2902
g56
(g65
g58
NtRp2903
(dp2904
g61
(dp2905
g69
I4
ssg70
Nsg63
(lp2906
g56
(g72
g58
NtRp2907
(dp2908
g61
(dp2909
sg70
g2903
sg63
(lp2910
g56
(g77
g58
NtRp2911
(dp2912
g61
(dp2913
g81
g82
ssg70
g2907
sg63
(lp2914
S'Cache-Control'
p2915
asbag56
(g77
g58
NtRp2916
(dp2917
g61
(dp2918
g88
g89
ssg70
g2907
sg63
(lp2919
S':'
asbag56
(g77
g58
NtRp2920
(dp2921
g61
(dp2922
sg70
g2907
sg63
(lp2923
g56
(g57
g58
NtRp2924
(dp2925
g61
(dp2926
g69
I4
ssg70
g2920
sg63
(lp2927
S'no-store, no-cache, must-revalidate, post-check=0, pre-check=0'
p2928
asbasbasbag56
(g72
g58
NtRp2929
(dp2930
g61
(dp2931
sg70
g2903
sg63
(lp2932
g56
(g77
g58
NtRp2933
(dp2934
g61
(dp2935
g81
g82
ssg70
g2929
sg63
(lp2936
S'Content-Type'
p2937
asbag56
(g77
g58
NtRp2938
(dp2939
g61
(dp2940
g88
g89
ssg70
g2929
sg63
(lp2941
S':'
asbag56
(g77
g58
NtRp2942
(dp2943
g61
(dp2944
sg70
g2929
sg63
(lp2945
g56
(g57
g58
NtRp2946
(dp2947
g61
(dp2948
g69
I4
ssg70
g2942
sg63
(lp2949
S'text/html; charset=utf-8'
p2950
asbasbasbag56
(g72
g58
NtRp2951
(dp2952
g61
(dp2953
sg70
g2903
sg63
(lp2954
g56
(g77
g58
NtRp2955
(dp2956
g61
(dp2957
g81
g82
ssg70
g2951
sg63
(lp2958
S'Expires'
p2959
asbag56
(g77
g58
NtRp2960
(dp2961
g61
(dp2962
g88
g89
ssg70
g2951
sg63
(lp2963
S':'
asbag56
(g77
g58
NtRp2964
(dp2965
g61
(dp2966
sg70
g2951
sg63
(lp2967
g56
(g57
g58
NtRp2968
(dp2969
g61
(dp2970
g69
I4
ssg70
g2964
sg63
(lp2971
S'Sun, 14 Aug 2011 23:05:48 GMT'
p2972
asbasbasbag56
(g72
g58
NtRp2973
(dp2974
g61
(dp2975
sg70
g2903
sg63
(lp2976
g56
(g77
g58
NtRp2977
(dp2978
g61
(dp2979
g81
g82
ssg70
g2973
sg63
(lp2980
S'Pragma'
p2981
asbag56
(g77
g58
NtRp2982
(dp2983
g61
(dp2984
g88
g89
ssg70
g2973
sg63
(lp2985
S':'
asbag56
(g77
g58
NtRp2986
(dp2987
g61
(dp2988
sg70
g2973
sg63
(lp2989
g56
(g57
g58
NtRp2990
(dp2991
g61
(dp2992
g69
I4
ssg70
g2986
sg63
(lp2993
S'no-cache'
p2994
asbasbasbag56
(g72
g58
NtRp2995
(dp2996
g61
(dp2997
sg70
g2903
sg63
(lp2998
g56
(g77
g58
NtRp2999
(dp3000
g61
(dp3001
g81
g82
ssg70
g2995
sg63
(lp3002
S'X-Powered-By'
p3003
asbag56
(g77
g58
NtRp3004
(dp3005
g61
(dp3006
g88
g89
ssg70
g2995
sg63
(lp3007
S':'
asbag56
(g77
g58
NtRp3008
(dp3009
g61
(dp3010
sg70
g2995
sg63
(lp3011
g56
(g57
g58
NtRp3012
(dp3013
g61
(dp3014
g69
I4
ssg70
g3008
sg63
(lp3015
S'web2py'
p3016
asbasbasbasbasbasbasbag56
(g72
g58
NtRp3017
(dp3018
g61
(dp3019
sg70
g2565
sg63
(lp3020
g56
(g77
g58
NtRp3021
(dp3022
g61
(dp3023
g81
g82
ssg70
g3017
sg63
(lp3024
S'menu'
p3025
asbag56
(g77
g58
NtRp3026
(dp3027
g61
(dp3028
g88
g89
ssg70
g3017
sg63
(lp3029
S':'
asbag56
(g77
g58
NtRp3030
(dp3031
g61
(dp3032
sg70
g3017
sg63
(lp3033
g56
(g57
g58
NtRp3034
(dp3035
g61
(dp3036
g69
I5
ssg70
g3030
sg63
(lp3037
g56
(g65
g58
NtRp3038
(dp3039
g61
(dp3040
g69
I4
ssg70
Nsg63
(lp3041
g56
(g72
g58
NtRp3042
(dp3043
g61
(dp3044
sg70
g3038
sg63
(lp3045
g56
(g77
g58
NtRp3046
(dp3047
g61
(dp3048
sg70
g3042
sg63
(lp3049
g56
(g57
g58
NtRp3050
(dp3051
g61
(dp3052
g69
I4
ssg70
g3046
sg63
(lp3053
g56
(g65
g58
NtRp3054
(dp3055
g61
(dp3056
g69
I3
ssg70
Nsg63
(lp3057
g56
(g72
g58
NtRp3058
(dp3059
g61
(dp3060
sg70
g3054
sg63
(lp3061
g56
(g77
g58
NtRp3062
(dp3063
g61
(dp3064
sg70
g3058
sg63
(lp3065
g56
(g57
g58
NtRp3066
(dp3067
g61
(dp3068
g69
I3
ssg70
g3062
sg63
(lp3069
cgluon.languages
lazyT_unpickle
p3070
(S't\x04\x00\x00\x00Home'
tRp3071
asbasbasbag56
(g72
g58
NtRp3072
(dp3073
g61
(dp3074
sg70
g3054
sg63
(lp3075
g56
(g77
g58
NtRp3076
(dp3077
g61
(dp3078
sg70
g3072
sg63
(lp3079
g56
(g57
g58
NtRp3080
(dp3081
g61
(dp3082
g69
I3
ssg70
g3076
sg63
(lp3083
g99
asbasbasbag56
(g72
g58
NtRp3084
(dp3085
g61
(dp3086
sg70
g3054
sg63
(lp3087
g56
(g77
g58
NtRp3088
(dp3089
g61
(dp3090
sg70
g3084
sg63
(lp3091
g56
(g57
g58
NtRp3092
(dp3093
g61
(dp3094
g69
I3
ssg70
g3088
sg63
(lp3095
S'/infovis/default/index'
p3096
asbasbasbag56
(g72
g58
NtRp3097
(dp3098
g61
(dp3099
sg70
g3054
sg63
(lp3100
g56
(g77
g58
NtRp3101
(dp3102
g61
(dp3103
sg70
g3097
sg63
(lp3104
g56
(g57
g58
NtRp3105
(dp3106
g61
(dp3107
g69
I3
ssg70
g3101
sg63
(lp3108
g56
(g65
g58
NtRp3109
(dp3110
g61
(dp3111
g69
I2
ssg70
Nsg63
(lp3112
sbasbasbasbasbasbasbasbag56
(g72
g58
NtRp3113
(dp3114
g61
(dp3115
sg70
g3038
sg63
(lp3116
g56
(g77
g58
NtRp3117
(dp3118
g61
(dp3119
sg70
g3113
sg63
(lp3120
g56
(g57
g58
NtRp3121
(dp3122
g61
(dp3123
g69
I4
ssg70
g3117
sg63
(lp3124
g56
(g65
g58
NtRp3125
(dp3126
g61
(dp3127
g69
I3
ssg70
Nsg63
(lp3128
g56
(g72
g58
NtRp3129
(dp3130
g61
(dp3131
sg70
g3125
sg63
(lp3132
g56
(g77
g58
NtRp3133
(dp3134
g61
(dp3135
sg70
g3129
sg63
(lp3136
g56
(g57
g58
NtRp3137
(dp3138
g61
(dp3139
g69
I3
ssg70
g3133
sg63
(lp3140
g3070
(S's\x08\x00\x00\x00This App'
tRp3141
asbasbasbag56
(g72
g58
NtRp3142
(dp3143
g61
(dp3144
sg70
g3125
sg63
(lp3145
g56
(g77
g58
NtRp3146
(dp3147
g61
(dp3148
sg70
g3142
sg63
(lp3149
g56
(g57
g58
NtRp3150
(dp3151
g61
(dp3152
g69
I3
ssg70
g3146
sg63
(lp3153
g99
asbasbasbag56
(g72
g58
NtRp3154
(dp3155
g61
(dp3156
sg70
g3125
sg63
(lp3157
g56
(g77
g58
NtRp3158
(dp3159
g61
(dp3160
sg70
g3154
sg63
(lp3161
g56
(g57
g58
NtRp3162
(dp3163
g61
(dp3164
g69
I3
ssg70
g3158
sg63
(lp3165
S'/admin/default/design/infovis'
p3166
asbasbasbag56
(g72
g58
NtRp3167
(dp3168
g61
(dp3169
sg70
g3125
sg63
(lp3170
g56
(g77
g58
NtRp3171
(dp3172
g61
(dp3173
sg70
g3167
sg63
(lp3174
g56
(g57
g58
NtRp3175
(dp3176
g61
(dp3177
g69
I3
ssg70
g3171
sg63
(lp3178
g56
(g65
g58
NtRp3179
(dp3180
g61
(dp3181
g69
I2
ssg70
Nsg63
(lp3182
g56
(g72
g58
NtRp3183
(dp3184
g61
(dp3185
sg70
g3179
sg63
(lp3186
g56
(g77
g58
NtRp3187
(dp3188
g61
(dp3189
sg70
g3183
sg63
(lp3190
g56
(g57
g58
NtRp3191
(dp3192
g61
(dp3193
g69
I2
ssg70
g3187
sg63
(lp3194
g56
(g65
g58
NtRp3195
(dp3196
g61
(dp3197
g69
I1
ssg70
Nsg63
(lp3198
g56
(g72
g58
NtRp3199
(dp3200
g61
(dp3201
sg70
g3195
sg63
(lp3202
g56
(g77
g58
NtRp3203
(dp3204
g61
(dp3205
sg70
g3199
sg63
(lp3206
g56
(g57
g58
NtRp3207
(dp3208
g61
(dp3209
g69
I1
ssg70
g3203
sg63
(lp3210
g3070
(S't\n\x00\x00\x00Controller'
tRp3211
asbasbasbag56
(g72
g58
NtRp3212
(dp3213
g61
(dp3214
sg70
g3195
sg63
(lp3215
g56
(g77
g58
NtRp3216
(dp3217
g61
(dp3218
sg70
g3212
sg63
(lp3219
g56
(g57
g58
NtRp3220
(dp3221
g61
(dp3222
g69
I1
ssg70
g3216
sg63
(lp3223
I00
asbasbasbag56
(g72
g58
NtRp3224
(dp3225
g61
(dp3226
sg70
g3195
sg63
(lp3227
g56
(g77
g58
NtRp3228
(dp3229
g61
(dp3230
sg70
g3224
sg63
(lp3231
g56
(g57
g58
NtRp3232
(dp3233
g61
(dp3234
g69
I1
ssg70
g3228
sg63
(lp3235
S'/admin/default/edit/infovis/controllers/visual.py'
p3236
asbasbasbasbasbasbasbag56
(g72
g58
NtRp3237
(dp3238
g61
(dp3239
sg70
g3179
sg63
(lp3240
g56
(g77
g58
NtRp3241
(dp3242
g61
(dp3243
sg70
g3237
sg63
(lp3244
g56
(g57
g58
NtRp3245
(dp3246
g61
(dp3247
g69
I2
ssg70
g3241
sg63
(lp3248
g56
(g65
g58
NtRp3249
(dp3250
g61
(dp3251
g69
I1
ssg70
Nsg63
(lp3252
g56
(g72
g58
NtRp3253
(dp3254
g61
(dp3255
sg70
g3249
sg63
(lp3256
g56
(g77
g58
NtRp3257
(dp3258
g61
(dp3259
sg70
g3253
sg63
(lp3260
g56
(g57
g58
NtRp3261
(dp3262
g61
(dp3263
g69
I1
ssg70
g3257
sg63
(lp3264
g3070
(S't\x04\x00\x00\x00View'
tRp3265
asbasbasbag56
(g72
g58
NtRp3266
(dp3267
g61
(dp3268
sg70
g3249
sg63
(lp3269
g56
(g77
g58
NtRp3270
(dp3271
g61
(dp3272
sg70
g3266
sg63
(lp3273
g56
(g57
g58
NtRp3274
(dp3275
g61
(dp3276
g69
I1
ssg70
g3270
sg63
(lp3277
I00
asbasbasbag56
(g72
g58
NtRp3278
(dp3279
g61
(dp3280
sg70
g3249
sg63
(lp3281
g56
(g77
g58
NtRp3282
(dp3283
g61
(dp3284
sg70
g3278
sg63
(lp3285
g56
(g57
g58
NtRp3286
(dp3287
g61
(dp3288
g69
I1
ssg70
g3282
sg63
(lp3289
S'/admin/default/edit/infovis/views/visual/treemap.html'
p3290
asbasbasbasbasbasbasbag56
(g72
g58
NtRp3291
(dp3292
g61
(dp3293
sg70
g3179
sg63
(lp3294
g56
(g77
g58
NtRp3295
(dp3296
g61
(dp3297
sg70
g3291
sg63
(lp3298
g56
(g57
g58
NtRp3299
(dp3300
g61
(dp3301
g69
I2
ssg70
g3295
sg63
(lp3302
g56
(g65
g58
NtRp3303
(dp3304
g61
(dp3305
g69
I1
ssg70
Nsg63
(lp3306
g56
(g72
g58
NtRp3307
(dp3308
g61
(dp3309
sg70
g3303
sg63
(lp3310
g56
(g77
g58
NtRp3311
(dp3312
g61
(dp3313
sg70
g3307
sg63
(lp3314
g56
(g57
g58
NtRp3315
(dp3316
g61
(dp3317
g69
I1
ssg70
g3311
sg63
(lp3318
g3070
(S't\x06\x00\x00\x00Layout'
tRp3319
asbasbasbag56
(g72
g58
NtRp3320
(dp3321
g61
(dp3322
sg70
g3303
sg63
(lp3323
g56
(g77
g58
NtRp3324
(dp3325
g61
(dp3326
sg70
g3320
sg63
(lp3327
g56
(g57
g58
NtRp3328
(dp3329
g61
(dp3330
g69
I1
ssg70
g3324
sg63
(lp3331
I00
asbasbasbag56
(g72
g58
NtRp3332
(dp3333
g61
(dp3334
sg70
g3303
sg63
(lp3335
g56
(g77
g58
NtRp3336
(dp3337
g61
(dp3338
sg70
g3332
sg63
(lp3339
g56
(g57
g58
NtRp3340
(dp3341
g61
(dp3342
g69
I1
ssg70
g3336
sg63
(lp3343
S'/admin/default/edit/infovis/views/layout.html'
p3344
asbasbasbasbasbasbasbag56
(g72
g58
NtRp3345
(dp3346
g61
(dp3347
sg70
g3179
sg63
(lp3348
g56
(g77
g58
NtRp3349
(dp3350
g61
(dp3351
sg70
g3345
sg63
(lp3352
g56
(g57
g58
NtRp3353
(dp3354
g61
(dp3355
g69
I2
ssg70
g3349
sg63
(lp3356
g56
(g65
g58
NtRp3357
(dp3358
g61
(dp3359
g69
I1
ssg70
Nsg63
(lp3360
g56
(g72
g58
NtRp3361
(dp3362
g61
(dp3363
sg70
g3357
sg63
(lp3364
g56
(g77
g58
NtRp3365
(dp3366
g61
(dp3367
sg70
g3361
sg63
(lp3368
g56
(g57
g58
NtRp3369
(dp3370
g61
(dp3371
g69
I1
ssg70
g3365
sg63
(lp3372
g3070
(S't\n\x00\x00\x00Stylesheet'
tRp3373
asbasbasbag56
(g72
g58
NtRp3374
(dp3375
g61
(dp3376
sg70
g3357
sg63
(lp3377
g56
(g77
g58
NtRp3378
(dp3379
g61
(dp3380
sg70
g3374
sg63
(lp3381
g56
(g57
g58
NtRp3382
(dp3383
g61
(dp3384
g69
I1
ssg70
g3378
sg63
(lp3385
I00
asbasbasbag56
(g72
g58
NtRp3386
(dp3387
g61
(dp3388
sg70
g3357
sg63
(lp3389
g56
(g77
g58
NtRp3390
(dp3391
g61
(dp3392
sg70
g3386
sg63
(lp3393
g56
(g57
g58
NtRp3394
(dp3395
g61
(dp3396
g69
I1
ssg70
g3390
sg63
(lp3397
S'/admin/default/edit/infovis/static/base.css'
p3398
asbasbasbasbasbasbasbag56
(g72
g58
NtRp3399
(dp3400
g61
(dp3401
sg70
g3179
sg63
(lp3402
g56
(g77
g58
NtRp3403
(dp3404
g61
(dp3405
sg70
g3399
sg63
(lp3406
g56
(g57
g58
NtRp3407
(dp3408
g61
(dp3409
g69
I2
ssg70
g3403
sg63
(lp3410
g56
(g65
g58
NtRp3411
(dp3412
g61
(dp3413
g69
I1
ssg70
Nsg63
(lp3414
g56
(g72
g58
NtRp3415
(dp3416
g61
(dp3417
sg70
g3411
sg63
(lp3418
g56
(g77
g58
NtRp3419
(dp3420
g61
(dp3421
sg70
g3415
sg63
(lp3422
g56
(g57
g58
NtRp3423
(dp3424
g61
(dp3425
g69
I1
ssg70
g3419
sg63
(lp3426
g3070
(S's\x08\x00\x00\x00DB Model'
tRp3427
asbasbasbag56
(g72
g58
NtRp3428
(dp3429
g61
(dp3430
sg70
g3411
sg63
(lp3431
g56
(g77
g58
NtRp3432
(dp3433
g61
(dp3434
sg70
g3428
sg63
(lp3435
g56
(g57
g58
NtRp3436
(dp3437
g61
(dp3438
g69
I1
ssg70
g3432
sg63
(lp3439
I00
asbasbasbag56
(g72
g58
NtRp3440
(dp3441
g61
(dp3442
sg70
g3411
sg63
(lp3443
g56
(g77
g58
NtRp3444
(dp3445
g61
(dp3446
sg70
g3440
sg63
(lp3447
g56
(g57
g58
NtRp3448
(dp3449
g61
(dp3450
g69
I1
ssg70
g3444
sg63
(lp3451
S'/admin/default/edit/infovis/models/db.py'
p3452
asbasbasbasbasbasbasbag56
(g72
g58
NtRp3453
(dp3454
g61
(dp3455
sg70
g3179
sg63
(lp3456
g56
(g77
g58
NtRp3457
(dp3458
g61
(dp3459
sg70
g3453
sg63
(lp3460
g56
(g57
g58
NtRp3461
(dp3462
g61
(dp3463
g69
I2
ssg70
g3457
sg63
(lp3464
g56
(g65
g58
NtRp3465
(dp3466
g61
(dp3467
g69
I1
ssg70
Nsg63
(lp3468
g56
(g72
g58
NtRp3469
(dp3470
g61
(dp3471
sg70
g3465
sg63
(lp3472
g56
(g77
g58
NtRp3473
(dp3474
g61
(dp3475
sg70
g3469
sg63
(lp3476
g56
(g57
g58
NtRp3477
(dp3478
g61
(dp3479
g69
I1
ssg70
g3473
sg63
(lp3480
g3070
(S's\n\x00\x00\x00Menu Model'
tRp3481
asbasbasbag56
(g72
g58
NtRp3482
(dp3483
g61
(dp3484
sg70
g3465
sg63
(lp3485
g56
(g77
g58
NtRp3486
(dp3487
g61
(dp3488
sg70
g3482
sg63
(lp3489
g56
(g57
g58
NtRp3490
(dp3491
g61
(dp3492
g69
I1
ssg70
g3486
sg63
(lp3493
I00
asbasbasbag56
(g72
g58
NtRp3494
(dp3495
g61
(dp3496
sg70
g3465
sg63
(lp3497
g56
(g77
g58
NtRp3498
(dp3499
g61
(dp3500
sg70
g3494
sg63
(lp3501
g56
(g57
g58
NtRp3502
(dp3503
g61
(dp3504
g69
I1
ssg70
g3498
sg63
(lp3505
S'/admin/default/edit/infovis/models/menu.py'
p3506
asbasbasbasbasbasbasbag56
(g72
g58
NtRp3507
(dp3508
g61
(dp3509
sg70
g3179
sg63
(lp3510
g56
(g77
g58
NtRp3511
(dp3512
g61
(dp3513
sg70
g3507
sg63
(lp3514
g56
(g57
g58
NtRp3515
(dp3516
g61
(dp3517
g69
I2
ssg70
g3511
sg63
(lp3518
g56
(g65
g58
NtRp3519
(dp3520
g61
(dp3521
g69
I1
ssg70
Nsg63
(lp3522
g56
(g72
g58
NtRp3523
(dp3524
g61
(dp3525
sg70
g3519
sg63
(lp3526
g56
(g77
g58
NtRp3527
(dp3528
g61
(dp3529
sg70
g3523
sg63
(lp3530
g56
(g57
g58
NtRp3531
(dp3532
g61
(dp3533
g69
I1
ssg70
g3527
sg63
(lp3534
g3070
(S't\x08\x00\x00\x00Database'
tRp3535
asbasbasbag56
(g72
g58
NtRp3536
(dp3537
g61
(dp3538
sg70
g3519
sg63
(lp3539
g56
(g77
g58
NtRp3540
(dp3541
g61
(dp3542
sg70
g3536
sg63
(lp3543
g56
(g57
g58
NtRp3544
(dp3545
g61
(dp3546
g69
I1
ssg70
g3540
sg63
(lp3547
I00
asbasbasbag56
(g72
g58
NtRp3548
(dp3549
g61
(dp3550
sg70
g3519
sg63
(lp3551
g56
(g77
g58
NtRp3552
(dp3553
g61
(dp3554
sg70
g3548
sg63
(lp3555
g56
(g57
g58
NtRp3556
(dp3557
g61
(dp3558
g69
I1
ssg70
g3552
sg63
(lp3559
S'/infovis/appadmin/index'
p3560
asbasbasbasbasbasbasbag56
(g72
g58
NtRp3561
(dp3562
g61
(dp3563
sg70
g3179
sg63
(lp3564
g56
(g77
g58
NtRp3565
(dp3566
g61
(dp3567
sg70
g3561
sg63
(lp3568
g56
(g57
g58
NtRp3569
(dp3570
g61
(dp3571
g69
I2
ssg70
g3565
sg63
(lp3572
g56
(g65
g58
NtRp3573
(dp3574
g61
(dp3575
g69
I1
ssg70
Nsg63
(lp3576
g56
(g72
g58
NtRp3577
(dp3578
g61
(dp3579
sg70
g3573
sg63
(lp3580
g56
(g77
g58
NtRp3581
(dp3582
g61
(dp3583
sg70
g3577
sg63
(lp3584
g56
(g57
g58
NtRp3585
(dp3586
g61
(dp3587
g69
I1
ssg70
g3581
sg63
(lp3588
g3070
(S't\x06\x00\x00\x00Errors'
tRp3589
asbasbasbag56
(g72
g58
NtRp3590
(dp3591
g61
(dp3592
sg70
g3573
sg63
(lp3593
g56
(g77
g58
NtRp3594
(dp3595
g61
(dp3596
sg70
g3590
sg63
(lp3597
g56
(g57
g58
NtRp3598
(dp3599
g61
(dp3600
g69
I1
ssg70
g3594
sg63
(lp3601
I00
asbasbasbag56
(g72
g58
NtRp3602
(dp3603
g61
(dp3604
sg70
g3573
sg63
(lp3605
g56
(g77
g58
NtRp3606
(dp3607
g61
(dp3608
sg70
g3602
sg63
(lp3609
g56
(g57
g58
NtRp3610
(dp3611
g61
(dp3612
g69
I1
ssg70
g3606
sg63
(lp3613
S'/admin/default/errors/infovis'
p3614
asbasbasbasbasbasbasbag56
(g72
g58
NtRp3615
(dp3616
g61
(dp3617
sg70
g3179
sg63
(lp3618
g56
(g77
g58
NtRp3619
(dp3620
g61
(dp3621
sg70
g3615
sg63
(lp3622
g56
(g57
g58
NtRp3623
(dp3624
g61
(dp3625
g69
I2
ssg70
g3619
sg63
(lp3626
g56
(g65
g58
NtRp3627
(dp3628
g61
(dp3629
g69
I1
ssg70
Nsg63
(lp3630
g56
(g72
g58
NtRp3631
(dp3632
g61
(dp3633
sg70
g3627
sg63
(lp3634
g56
(g77
g58
NtRp3635
(dp3636
g61
(dp3637
sg70
g3631
sg63
(lp3638
g56
(g57
g58
NtRp3639
(dp3640
g61
(dp3641
g69
I1
ssg70
g3635
sg63
(lp3642
g3070
(S't\x05\x00\x00\x00About'
tRp3643
asbasbasbag56
(g72
g58
NtRp3644
(dp3645
g61
(dp3646
sg70
g3627
sg63
(lp3647
g56
(g77
g58
NtRp3648
(dp3649
g61
(dp3650
sg70
g3644
sg63
(lp3651
g56
(g57
g58
NtRp3652
(dp3653
g61
(dp3654
g69
I1
ssg70
g3648
sg63
(lp3655
I00
asbasbasbag56
(g72
g58
NtRp3656
(dp3657
g61
(dp3658
sg70
g3627
sg63
(lp3659
g56
(g77
g58
NtRp3660
(dp3661
g61
(dp3662
sg70
g3656
sg63
(lp3663
g56
(g57
g58
NtRp3664
(dp3665
g61
(dp3666
g69
I1
ssg70
g3660
sg63
(lp3667
S'/admin/default/about/infovis'
p3668
asbasbasbasbasbasbasbasbasbasbasbasbasbasbasbag56
(g72
g58
NtRp3669
(dp3670
g61
(dp3671
sg70
g3038
sg63
(lp3672
g56
(g77
g58
NtRp3673
(dp3674
g61
(dp3675
sg70
g3669
sg63
(lp3676
g56
(g57
g58
NtRp3677
(dp3678
g61
(dp3679
g69
I4
ssg70
g3673
sg63
(lp3680
g56
(g65
g58
NtRp3681
(dp3682
g61
(dp3683
g69
I3
ssg70
Nsg63
(lp3684
g56
(g72
g58
NtRp3685
(dp3686
g61
(dp3687
sg70
g3681
sg63
(lp3688
g56
(g77
g58
NtRp3689
(dp3690
g61
(dp3691
sg70
g3685
sg63
(lp3692
g56
(g57
g58
NtRp3693
(dp3694
g61
(dp3695
g69
I3
ssg70
g3689
sg63
(lp3696
g3070
(S't\t\x00\x00\x00Resources'
tRp3697
asbasbasbag56
(g72
g58
NtRp3698
(dp3699
g61
(dp3700
sg70
g3681
sg63
(lp3701
g56
(g77
g58
NtRp3702
(dp3703
g61
(dp3704
sg70
g3698
sg63
(lp3705
g56
(g57
g58
NtRp3706
(dp3707
g61
(dp3708
g69
I3
ssg70
g3702
sg63
(lp3709
g99
asbasbasbag56
(g72
g58
NtRp3710
(dp3711
g61
(dp3712
sg70
g3681
sg63
(lp3713
g56
(g77
g58
NtRp3714
(dp3715
g61
(dp3716
sg70
g3710
sg63
(lp3717
g56
(g57
g58
NtRp3718
(dp3719
g61
(dp3720
g69
I3
ssg70
g3714
sg63
(lp3721
S'None'
p3722
asbasbasbag56
(g72
g58
NtRp3723
(dp3724
g61
(dp3725
sg70
g3681
sg63
(lp3726
g56
(g77
g58
NtRp3727
(dp3728
g61
(dp3729
sg70
g3723
sg63
(lp3730
g56
(g57
g58
NtRp3731
(dp3732
g61
(dp3733
g69
I3
ssg70
g3727
sg63
(lp3734
g56
(g65
g58
NtRp3735
(dp3736
g61
(dp3737
g69
I2
ssg70
Nsg63
(lp3738
g56
(g72
g58
NtRp3739
(dp3740
g61
(dp3741
sg70
g3735
sg63
(lp3742
g56
(g77
g58
NtRp3743
(dp3744
g61
(dp3745
sg70
g3739
sg63
(lp3746
g56
(g57
g58
NtRp3747
(dp3748
g61
(dp3749
g69
I2
ssg70
g3743
sg63
(lp3750
g56
(g65
g58
NtRp3751
(dp3752
g61
(dp3753
g69
I1
ssg70
Nsg63
(lp3754
g56
(g72
g58
NtRp3755
(dp3756
g61
(dp3757
sg70
g3751
sg63
(lp3758
g56
(g77
g58
NtRp3759
(dp3760
g61
(dp3761
sg70
g3755
sg63
(lp3762
g56
(g57
g58
NtRp3763
(dp3764
g61
(dp3765
g69
I1
ssg70
g3759
sg63
(lp3766
g3070
(S't\r\x00\x00\x00Documentation'
tRp3767
asbasbasbag56
(g72
g58
NtRp3768
(dp3769
g61
(dp3770
sg70
g3751
sg63
(lp3771
g56
(g77
g58
NtRp3772
(dp3773
g61
(dp3774
sg70
g3768
sg63
(lp3775
g56
(g57
g58
NtRp3776
(dp3777
g61
(dp3778
g69
I1
ssg70
g3772
sg63
(lp3779
I00
asbasbasbag56
(g72
g58
NtRp3780
(dp3781
g61
(dp3782
sg70
g3751
sg63
(lp3783
g56
(g77
g58
NtRp3784
(dp3785
g61
(dp3786
sg70
g3780
sg63
(lp3787
g56
(g57
g58
NtRp3788
(dp3789
g61
(dp3790
g69
I1
ssg70
g3784
sg63
(lp3791
S'http://www.web2py.com/book'
p3792
asbasbasbag56
(g72
g58
NtRp3793
(dp3794
g61
(dp3795
sg70
g3751
sg63
(lp3796
g56
(g77
g58
NtRp3797
(dp3798
g61
(dp3799
sg70
g3793
sg63
(lp3800
g56
(g57
g58
NtRp3801
(dp3802
g61
(dp3803
g69
I1
ssg70
g3797
sg63
(lp3804
(lp3805
(g3070
(S't\x07\x00\x00\x00Preface'
tRp3806
I00
S'http://www.web2py.com/book/default/chapter/00'
tp3807
a(g3070
(S't\x0c\x00\x00\x00Introduction'
tRp3808
I00
S'http://www.web2py.com/book/default/chapter/01'
tp3809
a(g3070
(S't\x06\x00\x00\x00Python'
tRp3810
I00
S'http://www.web2py.com/book/default/chapter/02'
tp3811
a(g3070
(S't\x08\x00\x00\x00Overview'
tRp3812
I00
S'http://www.web2py.com/book/default/chapter/03'
tp3813
a(g3070
(S's\x08\x00\x00\x00The Core'
tRp3814
I00
S'http://www.web2py.com/book/default/chapter/04'
tp3815
a(g3070
(S's\t\x00\x00\x00The Views'
tRp3816
I00
S'http://www.web2py.com/book/default/chapter/05'
tp3817
a(g3070
(S't\x08\x00\x00\x00Database'
tRp3818
I00
S'http://www.web2py.com/book/default/chapter/06'
tp3819
a(g3070
(S's\x14\x00\x00\x00Forms and Validators'
tRp3820
I00
S'http://www.web2py.com/book/default/chapter/07'
tp3821
a(g3070
(S's\x0e\x00\x00\x00Access Control'
tRp3822
I00
S'http://www.web2py.com/book/default/chapter/08'
tp3823
a(g3070
(S't\x08\x00\x00\x00Services'
tRp3824
I00
S'http://www.web2py.com/book/default/chapter/09'
tp3825
a(g3070
(S's\x0c\x00\x00\x00Ajax Recipes'
tRp3826
I00
S'http://www.web2py.com/book/default/chapter/10'
tp3827
a(g3070
(S's\x12\x00\x00\x00Deployment Recipes'
tRp3828
I00
S'http://www.web2py.com/book/default/chapter/11'
tp3829
a(g3070
(S's\r\x00\x00\x00Other Recipes'
tRp3830
I00
S'http://www.web2py.com/book/default/chapter/12'
tp3831
a(g3070
(S's\r\x00\x00\x00Buy this book'
tRp3832
I00
S'http://stores.lulu.com/web2py'
tp3833
aasbasbasbasbasbasbasbag56
(g72
g58
NtRp3834
(dp3835
g61
(dp3836
sg70
g3735
sg63
(lp3837
g56
(g77
g58
NtRp3838
(dp3839
g61
(dp3840
sg70
g3834
sg63
(lp3841
g56
(g57
g58
NtRp3842
(dp3843
g61
(dp3844
g69
I2
ssg70
g3838
sg63
(lp3845
g56
(g65
g58
NtRp3846
(dp3847
g61
(dp3848
g69
I1
ssg70
Nsg63
(lp3849
g56
(g72
g58
NtRp3850
(dp3851
g61
(dp3852
sg70
g3846
sg63
(lp3853
g56
(g77
g58
NtRp3854
(dp3855
g61
(dp3856
sg70
g3850
sg63
(lp3857
g56
(g57
g58
NtRp3858
(dp3859
g61
(dp3860
g69
I1
ssg70
g3854
sg63
(lp3861
g3070
(S't\t\x00\x00\x00Community'
tRp3862
asbasbasbag56
(g72
g58
NtRp3863
(dp3864
g61
(dp3865
sg70
g3846
sg63
(lp3866
g56
(g77
g58
NtRp3867
(dp3868
g61
(dp3869
sg70
g3863
sg63
(lp3870
g56
(g57
g58
NtRp3871
(dp3872
g61
(dp3873
g69
I1
ssg70
g3867
sg63
(lp3874
I00
asbasbasbag56
(g72
g58
NtRp3875
(dp3876
g61
(dp3877
sg70
g3846
sg63
(lp3878
g56
(g77
g58
NtRp3879
(dp3880
g61
(dp3881
sg70
g3875
sg63
(lp3882
g56
(g57
g58
NtRp3883
(dp3884
g61
(dp3885
g69
I1
ssg70
g3879
sg63
(lp3886
Nasbasbasbag56
(g72
g58
NtRp3887
(dp3888
g61
(dp3889
sg70
g3846
sg63
(lp3890
g56
(g77
g58
NtRp3891
(dp3892
g61
(dp3893
sg70
g3887
sg63
(lp3894
g56
(g57
g58
NtRp3895
(dp3896
g61
(dp3897
g69
I1
ssg70
g3891
sg63
(lp3898
(lp3899
(g3070
(S't\x06\x00\x00\x00Groups'
tRp3900
I00
S'http://www.web2py.com/examples/default/usergroups'
tp3901
a(g3070
(S't\x07\x00\x00\x00Twitter'
tRp3902
I00
S'http://twitter.com/web2py'
tp3903
a(g3070
(S's\t\x00\x00\x00Live chat'
tRp3904
I00
S'http://mibbit.com/?channel=%23web2py&server=irc.mibbit.net'
tp3905
a(g3070
(S's\n\x00\x00\x00User Voice'
tRp3906
I00
S'http://web2py.uservoice.com/'
tp3907
aasbasbasbasbasbasbasbag56
(g72
g58
NtRp3908
(dp3909
g61
(dp3910
sg70
g3735
sg63
(lp3911
g56
(g77
g58
NtRp3912
(dp3913
g61
(dp3914
sg70
g3908
sg63
(lp3915
g56
(g57
g58
NtRp3916
(dp3917
g61
(dp3918
g69
I2
ssg70
g3912
sg63
(lp3919
g56
(g65
g58
NtRp3920
(dp3921
g61
(dp3922
g69
I1
ssg70
Nsg63
(lp3923
g56
(g72
g58
NtRp3924
(dp3925
g61
(dp3926
sg70
g3920
sg63
(lp3927
g56
(g77
g58
NtRp3928
(dp3929
g61
(dp3930
sg70
g3924
sg63
(lp3931
g56
(g57
g58
NtRp3932
(dp3933
g61
(dp3934
g69
I1
ssg70
g3928
sg63
(lp3935
g3070
(S't\x06\x00\x00\x00Web2py'
tRp3936
asbasbasbag56
(g72
g58
NtRp3937
(dp3938
g61
(dp3939
sg70
g3920
sg63
(lp3940
g56
(g77
g58
NtRp3941
(dp3942
g61
(dp3943
sg70
g3937
sg63
(lp3944
g56
(g57
g58
NtRp3945
(dp3946
g61
(dp3947
g69
I1
ssg70
g3941
sg63
(lp3948
I00
asbasbasbag56
(g72
g58
NtRp3949
(dp3950
g61
(dp3951
sg70
g3920
sg63
(lp3952
g56
(g77
g58
NtRp3953
(dp3954
g61
(dp3955
sg70
g3949
sg63
(lp3956
g56
(g57
g58
NtRp3957
(dp3958
g61
(dp3959
g69
I1
ssg70
g3953
sg63
(lp3960
S'http://www.web2py.com'
p3961
asbasbasbag56
(g72
g58
NtRp3962
(dp3963
g61
(dp3964
sg70
g3920
sg63
(lp3965
g56
(g77
g58
NtRp3966
(dp3967
g61
(dp3968
sg70
g3962
sg63
(lp3969
g56
(g57
g58
NtRp3970
(dp3971
g61
(dp3972
g69
I1
ssg70
g3966
sg63
(lp3973
(lp3974
(g3070
(S't\x08\x00\x00\x00Download'
tRp3975
I00
S'http://www.web2py.com/examples/default/download'
tp3976
a(g3070
(S't\x07\x00\x00\x00Support'
tRp3977
I00
S'http://www.web2py.com/examples/default/support'
tp3978
a(g3070
(S's\x0e\x00\x00\x00Quick Examples'
tRp3979
I00
S'http://web2py.com/examples/default/examples'
tp3980
a(g3070
(S't\x03\x00\x00\x00FAQ'
tRp3981
I00
S'http://web2py.com/AlterEgo'
tp3982
a(g3070
(S's\x11\x00\x00\x00Free Applications'
tRp3983
I00
S'http://web2py.com/appliances'
tp3984
a(g3070
(S't\x07\x00\x00\x00Plugins'
tRp3985
I00
S'http://web2py.com/plugins'
tp3986
a(g3070
(S't\x07\x00\x00\x00Recipes'
tRp3987
I00
S'http://web2pyslices.com/'
tp3988
a(g3070
(S't\x04\x00\x00\x00Demo'
tRp3989
I00
S'http://web2py.com/demo_admin'
tp3990
a(g3070
(S't\x08\x00\x00\x00Semantic'
tRp3991
I00
S'http://web2py.com/semantic'
tp3992
a(g3070
(S't\x07\x00\x00\x00Layouts'
tRp3993
I00
S'http://web2py.com/layouts'
tp3994
a(g3070
(S't\x06\x00\x00\x00Videos'
tRp3995
I00
S'http://www.web2py.com/examples/default/videos/'
tp3996
aasbasbasbasbasbasbasbasbasbasbasbasbasbasbasbasbasbasbasbag56
(g72
g58
NtRp3997
(dp3998
g61
(dp3999
sg70
g2565
sg63
(lp4000
g56
(g77
g58
NtRp4001
(dp4002
g61
(dp4003
g81
g82
ssg70
g3997
sg63
(lp4004
S'meta'
p4005
asbag56
(g77
g58
NtRp4006
(dp4007
g61
(dp4008
g88
g89
ssg70
g3997
sg63
(lp4009
S':'
asbag56
(g77
g58
NtRp4010
(dp4011
g61
(dp4012
sg70
g3997
sg63
(lp4013
g56
(g57
g58
NtRp4014
(dp4015
g61
(dp4016
g69
I5
ssg70
g4010
sg63
(lp4017
g56
(g65
g58
NtRp4018
(dp4019
g61
(dp4020
g69
I4
ssg70
Nsg63
(lp4021
g56
(g72
g58
NtRp4022
(dp4023
g61
(dp4024
sg70
g4018
sg63
(lp4025
g56
(g77
g58
NtRp4026
(dp4027
g61
(dp4028
g81
g82
ssg70
g4022
sg63
(lp4029
S'author'
p4030
asbag56
(g77
g58
NtRp4031
(dp4032
g61
(dp4033
g88
g89
ssg70
g4022
sg63
(lp4034
S':'
asbag56
(g77
g58
NtRp4035
(dp4036
g61
(dp4037
sg70
g4022
sg63
(lp4038
g56
(g57
g58
NtRp4039
(dp4040
g61
(dp4041
g69
I4
ssg70
g4035
sg63
(lp4042
S'you'
p4043
asbasbasbag56
(g72
g58
NtRp4044
(dp4045
g61
(dp4046
sg70
g4018
sg63
(lp4047
g56
(g77
g58
NtRp4048
(dp4049
g61
(dp4050
g81
g82
ssg70
g4044
sg63
(lp4051
S'copyright'
p4052
asbag56
(g77
g58
NtRp4053
(dp4054
g61
(dp4055
g88
g89
ssg70
g4044
sg63
(lp4056
S':'
asbag56
(g77
g58
NtRp4057
(dp4058
g61
(dp4059
sg70
g4044
sg63
(lp4060
g56
(g57
g58
NtRp4061
(dp4062
g61
(dp4063
g69
I4
ssg70
g4057
sg63
(lp4064
S'Copyright 2007-2010'
p4065
asbasbasbag56
(g72
g58
NtRp4066
(dp4067
g61
(dp4068
sg70
g4018
sg63
(lp4069
g56
(g77
g58
NtRp4070
(dp4071
g61
(dp4072
g81
g82
ssg70
g4066
sg63
(lp4073
S'description'
p4074
asbag56
(g77
g58
NtRp4075
(dp4076
g61
(dp4077
g88
g89
ssg70
g4066
sg63
(lp4078
S':'
asbag56
(g77
g58
NtRp4079
(dp4080
g61
(dp4081
sg70
g4066
sg63
(lp4082
g56
(g57
g58
NtRp4083
(dp4084
g61
(dp4085
g69
I4
ssg70
g4079
sg63
(lp4086
S'Free and open source full-stack enterprise framework for agile development of fast, scalable, secure and portable database-driven web-based applications. Written and programmable in Python'
p4087
asbasbasbag56
(g72
g58
NtRp4088
(dp4089
g61
(dp4090
sg70
g4018
sg63
(lp4091
g56
(g77
g58
NtRp4092
(dp4093
g61
(dp4094
g81
g82
ssg70
g4088
sg63
(lp4095
S'generator'
p4096
asbag56
(g77
g58
NtRp4097
(dp4098
g61
(dp4099
g88
g89
ssg70
g4088
sg63
(lp4100
S':'
asbag56
(g77
g58
NtRp4101
(dp4102
g61
(dp4103
sg70
g4088
sg63
(lp4104
g56
(g57
g58
NtRp4105
(dp4106
g61
(dp4107
g69
I4
ssg70
g4101
sg63
(lp4108
S'Web2py Enterprise Framework'
p4109
asbasbasbag56
(g72
g58
NtRp4110
(dp4111
g61
(dp4112
sg70
g4018
sg63
(lp4113
g56
(g77
g58
NtRp4114
(dp4115
g61
(dp4116
g81
g82
ssg70
g4110
sg63
(lp4117
S'keywords'
p4118
asbag56
(g77
g58
NtRp4119
(dp4120
g61
(dp4121
g88
g89
ssg70
g4110
sg63
(lp4122
S':'
asbag56
(g77
g58
NtRp4123
(dp4124
g61
(dp4125
sg70
g4110
sg63
(lp4126
g56
(g57
g58
NtRp4127
(dp4128
g61
(dp4129
g69
I4
ssg70
g4123
sg63
(lp4130
S'web2py, python, framework'
p4131
asbasbasbasbasbasbasbag56
(g72
g58
NtRp4132
(dp4133
g61
(dp4134
sg70
g2565
sg63
(lp4135
g56
(g77
g58
NtRp4136
(dp4137
g61
(dp4138
g81
g82
ssg70
g4132
sg63
(lp4139
S'postprocessing'
p4140
asbag56
(g77
g58
NtRp4141
(dp4142
g61
(dp4143
g88
g89
ssg70
g4132
sg63
(lp4144
S':'
asbag56
(g77
g58
NtRp4145
(dp4146
g61
(dp4147
sg70
g4132
sg63
(lp4148
g56
(g57
g58
NtRp4149
(dp4150
g61
(dp4151
g69
I5
ssg70
g4145
sg63
(lp4152
g56
(g65
g58
NtRp4153
(dp4154
g61
(dp4155
g69
I4
ssg70
Nsg63
(lp4156
sbasbasbasbag56
(g72
g58
NtRp4157
(dp4158
g61
(dp4159
sg70
g2565
sg63
(lp4160
g56
(g77
g58
NtRp4161
(dp4162
g61
(dp4163
g81
g82
ssg70
g4157
sg63
(lp4164
S'session_filename'
p4165
asbag56
(g77
g58
NtRp4166
(dp4167
g61
(dp4168
g88
g89
ssg70
g4157
sg63
(lp4169
S':'
asbag56
(g77
g58
NtRp4170
(dp4171
g61
(dp4172
sg70
g4157
sg63
(lp4173
g56
(g57
g58
NtRp4174
(dp4175
g61
(dp4176
g69
I5
ssg70
g4170
sg63
(lp4177
S'/Users/ilustre/development/repo/jittest/web2py/applications/infovis/sessions/127.0.0.1-64b35d98-e997-4173-839b-80f2cbd88e52'
p4178
asbasbasbag56
(g72
g58
NtRp4179
(dp4180
g61
(dp4181
sg70
g2565
sg63
(lp4182
g56
(g77
g58
NtRp4183
(dp4184
g61
(dp4185
g81
g82
ssg70
g4179
sg63
(lp4186
S'session_id'
p4187
asbag56
(g77
g58
NtRp4188
(dp4189
g61
(dp4190
g88
g89
ssg70
g4179
sg63
(lp4191
S':'
asbag56
(g77
g58
NtRp4192
(dp4193
g61
(dp4194
sg70
g4179
sg63
(lp4195
g56
(g57
g58
NtRp4196
(dp4197
g61
(dp4198
g69
I5
ssg70
g4192
sg63
(lp4199
S'127.0.0.1-64b35d98-e997-4173-839b-80f2cbd88e52'
p4200
asbasbasbag56
(g72
g58
NtRp4201
(dp4202
g61
(dp4203
sg70
g2565
sg63
(lp4204
g56
(g77
g58
NtRp4205
(dp4206
g61
(dp4207
g81
g82
ssg70
g4201
sg63
(lp4208
S'session_id_name'
p4209
asbag56
(g77
g58
NtRp4210
(dp4211
g61
(dp4212
g88
g89
ssg70
g4201
sg63
(lp4213
S':'
asbag56
(g77
g58
NtRp4214
(dp4215
g61
(dp4216
sg70
g4201
sg63
(lp4217
g56
(g57
g58
NtRp4218
(dp4219
g61
(dp4220
g69
I5
ssg70
g4214
sg63
(lp4221
g2622
asbasbasbag56
(g72
g58
NtRp4222
(dp4223
g61
(dp4224
sg70
g2565
sg63
(lp4225
g56
(g77
g58
NtRp4226
(dp4227
g61
(dp4228
g81
g82
ssg70
g4222
sg63
(lp4229
S'session_new'
p4230
asbag56
(g77
g58
NtRp4231
(dp4232
g61
(dp4233
g88
g89
ssg70
g4222
sg63
(lp4234
S':'
asbag56
(g77
g58
NtRp4235
(dp4236
g61
(dp4237
sg70
g4222
sg63
(lp4238
g56
(g57
g58
NtRp4239
(dp4240
g61
(dp4241
g69
I5
ssg70
g4235
sg63
(lp4242
g1546
asbasbasbag56
(g72
g58
NtRp4243
(dp4244
g61
(dp4245
sg70
g2565
sg63
(lp4246
g56
(g77
g58
NtRp4247
(dp4248
g61
(dp4249
g81
g82
ssg70
g4243
sg63
(lp4250
S'status'
p4251
asbag56
(g77
g58
NtRp4252
(dp4253
g61
(dp4254
g88
g89
ssg70
g4243
sg63
(lp4255
S':'
asbag56
(g77
g58
NtRp4256
(dp4257
g61
(dp4258
sg70
g4243
sg63
(lp4259
g56
(g57
g58
NtRp4260
(dp4261
g61
(dp4262
g69
I5
ssg70
g4256
sg63
(lp4263
S'200'
p4264
asbasbasbag56
(g72
g58
NtRp4265
(dp4266
g61
(dp4267
sg70
g2565
sg63
(lp4268
g56
(g77
g58
NtRp4269
(dp4270
g61
(dp4271
g81
g82
ssg70
g4265
sg63
(lp4272
S'subtitle'
p4273
asbag56
(g77
g58
NtRp4274
(dp4275
g61
(dp4276
g88
g89
ssg70
g4265
sg63
(lp4277
S':'
asbag56
(g77
g58
NtRp4278
(dp4279
g61
(dp4280
sg70
g4265
sg63
(lp4281
g56
(g57
g58
NtRp4282
(dp4283
g61
(dp4284
g69
I5
ssg70
g4278
sg63
(lp4285
g3070
(S's\r\x00\x00\x00customize me!'
tRp4286
asbasbasbag56
(g72
g58
NtRp4287
(dp4288
g61
(dp4289
sg70
g2565
sg63
(lp4290
g56
(g77
g58
NtRp4291
(dp4292
g61
(dp4293
g81
g82
ssg70
g4287
sg63
(lp4294
S'title'
p4295
asbag56
(g77
g58
NtRp4296
(dp4297
g61
(dp4298
g88
g89
ssg70
g4287
sg63
(lp4299
S':'
asbag56
(g77
g58
NtRp4300
(dp4301
g61
(dp4302
sg70
g4287
sg63
(lp4303
g56
(g57
g58
NtRp4304
(dp4305
g61
(dp4306
g69
I5
ssg70
g4300
sg63
(lp4307
g121
asbasbasbag56
(g72
g58
NtRp4308
(dp4309
g61
(dp4310
sg70
g2565
sg63
(lp4311
g56
(g77
g58
NtRp4312
(dp4313
g61
(dp4314
g81
g82
ssg70
g4308
sg63
(lp4315
g1891
asbag56
(g77
g58
NtRp4316
(dp4317
g61
(dp4318
g88
g89
ssg70
g4308
sg63
(lp4319
S':'
asbag56
(g77
g58
NtRp4320
(dp4321
g61
(dp4322
sg70
g4308
sg63
(lp4323
g56
(g57
g58
NtRp4324
(dp4325
g61
(dp4326
g69
I5
ssg70
g4320
sg63
(lp4327
g1904
asbasbasbag56
(g72
g58
NtRp4328
(dp4329
g61
(dp4330
sg70
g2565
sg63
(lp4331
g56
(g77
g58
NtRp4332
(dp4333
g61
(dp4334
g81
g82
ssg70
g4328
sg63
(lp4335
S'view'
p4336
asbag56
(g77
g58
NtRp4337
(dp4338
g61
(dp4339
g88
g89
ssg70
g4328
sg63
(lp4340
S':'
asbag56
(g77
g58
NtRp4341
(dp4342
g61
(dp4343
sg70
g4328
sg63
(lp4344
g56
(g57
g58
NtRp4345
(dp4346
g61
(dp4347
g69
I5
ssg70
g4341
sg63
(lp4348
S'visual/treemap.html'
p4349
asbasbasbasbasbsS'locals'
p4350
(dp4351
S'Service'
p4352
S"<class 'gluon.tools.Service'>"
p4353
sS'OBJECT'
p4354
S"<class 'gluon.html.OBJECT'>"
p4355
sS'SQLDB'
p4356
S"<class 'gluon.dal.DAL'>"
p4357
sg2547
S"<Storage {'_Session__hash': '\\xc8[\\xd5\\xc1#\\xd8e\\x10\\xe3\\x06\\x0ba\\xddT\\x92m'}>"
p4358
sS'LINK'
p4359
S"<class 'gluon.html.LINK'>"
p4360
sS'BR'
p4361
S"<class 'gluon.html.BR'>"
p4362
sS'local_import'
p4363
S'<function <lambda>>'
p4364
sS'OPTGROUP'
p4365
S"<class 'gluon.html.OPTGROUP'>"
p4366
sS'PRE'
p4367
S"<class 'gluon.html.PRE'>"
p4368
sS'IS_INT_IN_RANGE'
p4369
S"<class 'gluon.validators.IS_INT_IN_RANGE'>"
p4370
sS'IS_LOWER'
p4371
S"<class 'gluon.validators.IS_LOWER'>"
p4372
sS'IS_STRONG'
p4373
S"<class 'gluon.validators.IS_STRONG'>"
p4374
sS'cache'
p4375
S'<gluon.cache.Cache object>'
p4376
sS'IS_IN_DB'
p4377
S"<class 'gluon.validators.IS_IN_DB'>"
p4378
sS'TAG'
p4379
S'<gluon.html.__TAG__ object>'
p4380
sS'SQLField'
p4381
S"<class 'gluon.dal.Field'>"
p4382
sS'mail'
p4383
S'<gluon.tools.Mail object>'
p4384
sS'BODY'
p4385
S"<class 'gluon.html.BODY'>"
p4386
sS'IS_DATE_IN_RANGE'
p4387
S"<class 'gluon.validators.IS_DATE_IN_RANGE'>"
p4388
sS'TH'
p4389
S"<class 'gluon.html.TH'>"
p4390
sS'URL'
p4391
S'<function URL>'
p4392
sS'__file__'
p4393
S"'/Users/ilustre/development/repo/jittest/web2py/applications/infovis/views/visual/treemap.html'"
p4394
sS'db'
p4395
S"<DAL {'auth_event': <Table {'origin': <gluon.dal...'id': <gluon.dal.Field object at 0x10153df50>}>}>"
p4396
sS'auth'
p4397
S'<gluon.tools.Auth object>'
p4398
sS'P'
S"<class 'gluon.html.P'>"
p4399
sS'TFOOT'
p4400
S"<class 'gluon.html.TFOOT'>"
p4401
sS'XHTML'
p4402
S"<class 'gluon.html.XHTML'>"
p4403
sS'ON'
p4404
g1546
sS'OL'
p4405
S"<class 'gluon.html.OL'>"
p4406
sS'TEXTAREA'
p4407
S"<class 'gluon.html.TEXTAREA'>"
p4408
sS'MENU'
p4409
S"<class 'gluon.html.MENU'>"
p4410
sS'LOAD'
p4411
S'<gluon.compileapp.LoadFactory object>'
p4412
sS'CODE'
p4413
S"<class 'gluon.html.CODE'>"
p4414
sS'HTTP'
p4415
S"<class 'gluon.http.HTTP'>"
p4416
sS'HR'
p4417
S"<class 'gluon.html.HR'>"
p4418
sS'IS_DATETIME'
p4419
S"<class 'gluon.validators.IS_DATETIME'>"
p4420
sS'HEAD'
p4421
S"<class 'gluon.html.HEAD'>"
p4422
sS'LABEL'
p4423
S"<class 'gluon.html.LABEL'>"
p4424
sS'CLEANUP'
p4425
S"<class 'gluon.validators.CLEANUP'>"
p4426
sS'plugins'
p4427
S'<gluon.tools.PluginManager object>'
p4428
sS'SELECT'
p4429
S"<class 'gluon.html.SELECT'>"
p4430
sS'CENTER'
p4431
S"<class 'gluon.html.CENTER'>"
p4432
sS'prettydate'
p4433
S'<function prettydate>'
p4434
sS'Crud'
p4435
S"<class 'gluon.tools.Crud'>"
p4436
sS'Auth'
p4437
S"<class 'gluon.tools.Auth'>"
p4438
sS'__builtins__'
p4439
S"{'ArithmeticError': <type 'exceptions.ArithmeticError'>, 'AssertionError': <type 'exceptions.AssertionError'>, 'AttributeError': <type 'exceptions.AttributeError'>, 'BaseException': <type 'exceptions.BaseException'>, 'BufferError': <type 'exceptions.BufferError'>, 'BytesWarning': <type 'exceptions.BytesWarning'>, 'DeprecationWarning': <type 'exceptions.DeprecationWarning'>, 'EOFError': <type 'exceptions.EOFError'>, 'Ellipsis': Ellipsis, 'EnvironmentError': <type 'exceptions.EnvironmentError'>, ...}"
p4440
sS'IS_LIST_OF'
p4441
S"<class 'gluon.validators.IS_LIST_OF'>"
p4442
sS'SQLFORM'
p4443
S"<class 'gluon.sqlhtml.SQLFORM'>"
p4444
sS'EM'
p4445
S"<class 'gluon.html.EM'>"
p4446
sS'redirect'
p4447
S'<function redirect>'
p4448
sS'FIELDSET'
p4449
S"<class 'gluon.html.FIELDSET'>"
p4450
sS'IS_EQUAL_TO'
p4451
S"<class 'gluon.validators.IS_EQUAL_TO'>"
p4452
sS'embed64'
p4453
S'<function embed64>'
p4454
sS'INPUT'
p4455
S"<class 'gluon.html.INPUT'>"
p4456
sS'EMBED'
p4457
S"<class 'gluon.html.EMBED'>"
p4458
sS'FORM'
p4459
S"<class 'gluon.html.FORM'>"
p4460
sS'H2'
p4461
S"<class 'gluon.html.H2'>"
p4462
sS'H3'
p4463
S"<class 'gluon.html.H3'>"
p4464
sS'BUTTON'
p4465
S"<class 'gluon.html.BUTTON'>"
p4466
sS'H1'
p4467
S"<class 'gluon.html.H1'>"
p4468
sS'H6'
p4469
S"<class 'gluon.html.H6'>"
p4470
sS'H4'
p4471
S"<class 'gluon.html.H4'>"
p4472
sS'H5'
p4473
S"<class 'gluon.html.H5'>"
p4474
sS'UL'
p4475
S"<class 'gluon.html.UL'>"
p4476
sS'IS_UPPER'
p4477
S"<class 'gluon.validators.IS_UPPER'>"
p4478
sS'xmlescape'
p4479
S'<function xmlescape>'
p4480
sS'IS_TIME'
p4481
S"<class 'gluon.validators.IS_TIME'>"
p4482
sS'OPTION'
p4483
S"<class 'gluon.html.OPTION'>"
p4484
sS'TITLE'
p4485
S"<class 'gluon.html.TITLE'>"
p4486
sS'CRYPT'
p4487
S"<class 'gluon.validators.CRYPT'>"
p4488
sS'IS_EMPTY_OR'
p4489
S"<class 'gluon.validators.IS_EMPTY_OR'>"
p4490
sS'MARKMIN'
p4491
S"<class 'gluon.html.MARKMIN'>"
p4492
sS'service'
p4493
S'<gluon.tools.Service object>'
p4494
sS'SCRIPT'
p4495
S"<class 'gluon.html.SCRIPT'>"
p4496
sS'json'
p4497
S"'yeppo'"
p4498
sS'TABLE'
p4499
S"<class 'gluon.html.TABLE'>"
p4500
sS'IS_IPV4'
p4501
S"<class 'gluon.validators.IS_IPV4'>"
p4502
sS'IS_LENGTH'
p4503
S"<class 'gluon.validators.IS_LENGTH'>"
p4504
sS'XML'
p4505
S"<class 'gluon.html.XML'>"
p4506
sS'B'
S"<class 'gluon.html.B'>"
p4507
sS'IMG'
p4508
S"<class 'gluon.html.IMG'>"
p4509
sS'SQLTABLE'
p4510
S"<class 'gluon.sqlhtml.SQLTABLE'>"
p4511
sS'IS_MATCH'
p4512
S"<class 'gluon.validators.IS_MATCH'>"
p4513
sS'IS_ALPHANUMERIC'
p4514
S"<class 'gluon.validators.IS_ALPHANUMERIC'>"
p4515
sS'SPAN'
p4516
S"<class 'gluon.html.SPAN'>"
p4517
sS'IS_SLUG'
p4518
S"<class 'gluon.validators.IS_SLUG'>"
p4519
sS'BEAUTIFY'
p4520
S"<class 'gluon.html.BEAUTIFY'>"
p4521
sS'META'
p4522
S"<class 'gluon.html.META'>"
p4523
sS'IS_DATE'
p4524
S"<class 'gluon.validators.IS_DATE'>"
p4525
sS'IS_EMAIL'
p4526
S"<class 'gluon.validators.IS_EMAIL'>"
p4527
sS'IS_NOT_EMPTY'
p4528
S"<class 'gluon.validators.IS_NOT_EMPTY'>"
p4529
sg55
S"<Storage {'body': <cStringIO.StringO object at 0..._vars': <Storage {}>, 'post_vars': <Storage {}>}>"
p4530
sS'TBODY'
p4531
S"<class 'gluon.html.TBODY'>"
p4532
sS'CAT'
p4533
S"<class 'gluon.html.CAT'>"
p4534
sS'Field'
p4535
S"<class 'gluon.dal.Field'>"
p4536
sS'Mail'
p4537
S"<class 'gluon.tools.Mail'>"
p4538
sS'DIV'
p4539
S"<class 'gluon.html.DIV'>"
p4540
sS'LEGEND'
p4541
S"<class 'gluon.html.LEGEND'>"
p4542
sS'DAL'
p4543
S"<class 'gluon.dal.DAL'>"
p4544
sS'TT'
p4545
S"<class 'gluon.html.TT'>"
p4546
sS'TR'
p4547
S"<class 'gluon.html.TR'>"
p4548
sS'LI'
p4549
S"<class 'gluon.html.LI'>"
p4550
sS'IFRAME'
p4551
S"<class 'gluon.html.IFRAME'>"
p4552
sS'TD'
p4553
S"<class 'gluon.html.TD'>"
p4554
sS'PluginManager'
p4555
S"<class 'gluon.tools.PluginManager'>"
p4556
sS'IS_URL'
p4557
S"<class 'gluon.validators.IS_URL'>"
p4558
sS'A'
S"<class 'gluon.html.A'>"
p4559
sS'STYLE'
p4560
S"<class 'gluon.html.STYLE'>"
p4561
sS'IS_DATETIME_IN_RANGE'
p4562
S"<class 'gluon.validators.IS_DATETIME_IN_RANGE'>"
p4563
sS'HTML'
p4564
S"<class 'gluon.html.HTML'>"
p4565
sS'IS_IMAGE'
p4566
S"<class 'gluon.validators.IS_IMAGE'>"
p4567
sS'I'
S"<class 'gluon.html.I'>"
p4568
sS'crud'
p4569
S'<gluon.tools.Crud object>'
p4570
sS'IS_NOT_IN_DB'
p4571
S"<class 'gluon.validators.IS_NOT_IN_DB'>"
p4572
sg2560
S"<Storage {'status': 200, 'body': <cStringIO.Stri...60>, 'files': [], 'view': 'visual/treemap.html'}>"
p4573
sS'THEAD'
p4574
S"<class 'gluon.html.THEAD'>"
p4575
sS'IS_NULL_OR'
p4576
S"<class 'gluon.validators.IS_EMPTY_OR'>"
p4577
sS'IS_FLOAT_IN_RANGE'
p4578
S"<class 'gluon.validators.IS_FLOAT_IN_RANGE'>"
p4579
sS'IS_EXPR'
p4580
S"<class 'gluon.validators.IS_EXPR'>"
p4581
sS'T'
S'<gluon.languages.translator object>'
p4582
sS'IS_IN_SET'
p4583
S"<class 'gluon.validators.IS_IN_SET'>"
p4584
sS'IS_UPLOAD_FILENAME'
p4585
S"<class 'gluon.validators.IS_UPLOAD_FILENAME'>"
p4586
sS'IS_DECIMAL_IN_RANGE'
p4587
S"<class 'gluon.validators.IS_DECIMAL_IN_RANGE'>"
p4588
sssS'traceback'
p4589
S'Traceback (most recent call last):\n  File "/Users/ilustre/development/repo/jittest/web2py/gluon/restricted.py", line 192, in restricted\n    exec ccode in environment\n  File "/Users/ilustre/development/repo/jittest/web2py/applications/infovis/views/visual/treemap.html", line 2, in <module>\nNameError: name \'message\' is not defined\n'
p4590
s.